SF:/app/implants/golem/src/directorybackend.rs
FN:89,_RNCNCNvXs_NtCsbxEB5CaKYmm_5golem16directorybackendNtB8_21DirectoryAssetBackendNtNtCsjjrTDlECOC2_18eldritch_libassetss_3std12AssetBackend6assetss0_00Ba_
FN:90,_RNCNCNvXs_NtCsbxEB5CaKYmm_5golem16directorybackendNtB8_21DirectoryAssetBackendNtNtCsjjrTDlECOC2_18eldritch_libassetss_3std12AssetBackend6assetss0_0s_0Ba_
FN:36,_RNCNvMNtCsbxEB5CaKYmm_5golem16directorybackendNtB4_21DirectoryAssetBackend3new0B6_
FN:82,_RNCNvXs_NtCsbxEB5CaKYmm_5golem16directorybackendNtB6_21DirectoryAssetBackendNtNtCsjjrTDlECOC2_18eldritch_libassetss_3std12AssetBackend6assets0B8_
FN:84,_RNCNvXs_NtCsbxEB5CaKYmm_5golem16directorybackendNtB6_21DirectoryAssetBackendNtNtCsjjrTDlECOC2_18eldritch_libassetss_3std12AssetBackend6assetss0_0B8_
FN:83,_RNCNvXs_NtCsbxEB5CaKYmm_5golem16directorybackendNtB6_21DirectoryAssetBackendNtNtCsjjrTDlECOC2_18eldritch_libassetss_3std12AssetBackend6assetss_0B8_
FN:45,_RNvMNtCsbxEB5CaKYmm_5golem16directorybackendNtB2_21DirectoryAssetBackend13get_safe_path
FN:23,_RNvMNtCsbxEB5CaKYmm_5golem16directorybackendNtB2_21DirectoryAssetBackend3new
FN:69,_RNvXs_NtCsbxEB5CaKYmm_5golem16directorybackendNtB4_21DirectoryAssetBackendNtNtCsjjrTDlECOC2_18eldritch_libassetss_3std12AssetBackend3get
FN:78,_RNvXs_NtCsbxEB5CaKYmm_5golem16directorybackendNtB4_21DirectoryAssetBackendNtNtCsjjrTDlECOC2_18eldritch_libassetss_3std12AssetBackend6assets
FN:89,_RNCNCNvXs_NtCs9I3pOM5i1YW_5golem16directorybackendNtB8_21DirectoryAssetBackendNtNtCsjjrTDlECOC2_18eldritch_libassetss_3std12AssetBackend6assetss0_00Ba_
FN:90,_RNCNCNvXs_NtCs9I3pOM5i1YW_5golem16directorybackendNtB8_21DirectoryAssetBackendNtNtCsjjrTDlECOC2_18eldritch_libassetss_3std12AssetBackend6assetss0_0s_0Ba_
FN:36,_RNCNvMNtCs9I3pOM5i1YW_5golem16directorybackendNtB4_21DirectoryAssetBackend3new0B6_
FN:82,_RNCNvXs_NtCs9I3pOM5i1YW_5golem16directorybackendNtB6_21DirectoryAssetBackendNtNtCsjjrTDlECOC2_18eldritch_libassetss_3std12AssetBackend6assets0B8_
FN:84,_RNCNvXs_NtCs9I3pOM5i1YW_5golem16directorybackendNtB6_21DirectoryAssetBackendNtNtCsjjrTDlECOC2_18eldritch_libassetss_3std12AssetBackend6assetss0_0B8_
FN:83,_RNCNvXs_NtCs9I3pOM5i1YW_5golem16directorybackendNtB6_21DirectoryAssetBackendNtNtCsjjrTDlECOC2_18eldritch_libassetss_3std12AssetBackend6assetss_0B8_
FN:45,_RNvMNtCs9I3pOM5i1YW_5golem16directorybackendNtB2_21DirectoryAssetBackend13get_safe_path
FN:23,_RNvMNtCs9I3pOM5i1YW_5golem16directorybackendNtB2_21DirectoryAssetBackend3new
FN:69,_RNvXs_NtCs9I3pOM5i1YW_5golem16directorybackendNtB4_21DirectoryAssetBackendNtNtCsjjrTDlECOC2_18eldritch_libassetss_3std12AssetBackend3get
FN:78,_RNvXs_NtCs9I3pOM5i1YW_5golem16directorybackendNtB4_21DirectoryAssetBackendNtNtCsjjrTDlECOC2_18eldritch_libassetss_3std12AssetBackend6assets
FNDA:8,_RNCNCNvXs_NtCsbxEB5CaKYmm_5golem16directorybackendNtB8_21DirectoryAssetBackendNtNtCsjjrTDlECOC2_18eldritch_libassetss_3std12AssetBackend6assetss0_00Ba_
FNDA:8,_RNCNCNvXs_NtCsbxEB5CaKYmm_5golem16directorybackendNtB8_21DirectoryAssetBackendNtNtCsjjrTDlECOC2_18eldritch_libassetss_3std12AssetBackend6assetss0_0s_0Ba_
FNDA:0,_RNCNvMNtCsbxEB5CaKYmm_5golem16directorybackendNtB4_21DirectoryAssetBackend3new0B6_
FNDA:20,_RNCNvXs_NtCsbxEB5CaKYmm_5golem16directorybackendNtB6_21DirectoryAssetBackendNtNtCsjjrTDlECOC2_18eldritch_libassetss_3std12AssetBackend6assets0B8_
FNDA:8,_RNCNvXs_NtCsbxEB5CaKYmm_5golem16directorybackendNtB6_21DirectoryAssetBackendNtNtCsjjrTDlECOC2_18eldritch_libassetss_3std12AssetBackend6assetss0_0B8_
FNDA:20,_RNCNvXs_NtCsbxEB5CaKYmm_5golem16directorybackendNtB6_21DirectoryAssetBackendNtNtCsjjrTDlECOC2_18eldritch_libassetss_3std12AssetBackend6assetss_0B8_
FNDA:4,_RNvMNtCsbxEB5CaKYmm_5golem16directorybackendNtB2_21DirectoryAssetBackend13get_safe_path
FNDA:4,_RNvMNtCsbxEB5CaKYmm_5golem16directorybackendNtB2_21DirectoryAssetBackend3new
FNDA:4,_RNvXs_NtCsbxEB5CaKYmm_5golem16directorybackendNtB4_21DirectoryAssetBackendNtNtCsjjrTDlECOC2_18eldritch_libassetss_3std12AssetBackend3get
FNDA:4,_RNvXs_NtCsbxEB5CaKYmm_5golem16directorybackendNtB4_21DirectoryAssetBackendNtNtCsjjrTDlECOC2_18eldritch_libassetss_3std12AssetBackend6assets
FNDA:0,_RNCNCNvXs_NtCs9I3pOM5i1YW_5golem16directorybackendNtB8_21DirectoryAssetBackendNtNtCsjjrTDlECOC2_18eldritch_libassetss_3std12AssetBackend6assetss0_00Ba_
FNDA:0,_RNCNCNvXs_NtCs9I3pOM5i1YW_5golem16directorybackendNtB8_21DirectoryAssetBackendNtNtCsjjrTDlECOC2_18eldritch_libassetss_3std12AssetBackend6assetss0_0s_0Ba_
FNDA:0,_RNCNvMNtCs9I3pOM5i1YW_5golem16directorybackendNtB4_21DirectoryAssetBackend3new0B6_
FNDA:0,_RNCNvXs_NtCs9I3pOM5i1YW_5golem16directorybackendNtB6_21DirectoryAssetBackendNtNtCsjjrTDlECOC2_18eldritch_libassetss_3std12AssetBackend6assets0B8_
FNDA:0,_RNCNvXs_NtCs9I3pOM5i1YW_5golem16directorybackendNtB6_21DirectoryAssetBackendNtNtCsjjrTDlECOC2_18eldritch_libassetss_3std12AssetBackend6assetss0_0B8_
FNDA:0,_RNCNvXs_NtCs9I3pOM5i1YW_5golem16directorybackendNtB6_21DirectoryAssetBackendNtNtCsjjrTDlECOC2_18eldritch_libassetss_3std12AssetBackend6assetss_0B8_
FNDA:0,_RNvMNtCs9I3pOM5i1YW_5golem16directorybackendNtB2_21DirectoryAssetBackend13get_safe_path
FNDA:0,_RNvMNtCs9I3pOM5i1YW_5golem16directorybackendNtB2_21DirectoryAssetBackend3new
FNDA:0,_RNvXs_NtCs9I3pOM5i1YW_5golem16directorybackendNtB4_21DirectoryAssetBackendNtNtCsjjrTDlECOC2_18eldritch_libassetss_3std12AssetBackend3get
FNDA:0,_RNvXs_NtCs9I3pOM5i1YW_5golem16directorybackendNtB4_21DirectoryAssetBackendNtNtCsjjrTDlECOC2_18eldritch_libassetss_3std12AssetBackend6assets
FNF:10
FNH:9
DA:23,4
DA:24,4
DA:25,4
DA:26,0
DA:27,4
DA:28,4
DA:29,0
DA:30,4
DA:34,4
DA:35,4
DA:36,4
DA:38,4
DA:39,4
DA:40,4
DA:41,4
DA:45,4
DA:47,4
DA:48,4
DA:50,4
DA:51,4
DA:53,0
DA:58,4
DA:60,0
DA:61,4
DA:63,4
DA:64,4
DA:69,4
DA:70,4
DA:71,4
DA:72,4
DA:74,4
DA:75,4
DA:76,4
DA:78,4
DA:79,4
DA:80,4
DA:81,4
DA:82,20
DA:83,20
DA:84,8
DA:85,8
DA:86,8
DA:87,8
DA:88,8
DA:89,8
DA:90,8
DA:91,8
DA:92,4
DA:93,4
BRF:0
BRH:0
LF:55
LH:50
end_of_record
SF:/app/implants/golem/src/main.rs
FN:40,_RINvCsbxEB5CaKYmm_5golem11new_runtimeNtNtCsjjrTDlECOC2_18eldritch_libassetss_3std16StdAssetsLibraryEB2_
FN:131,_RNCNCNvCsbxEB5CaKYmm_5golem4mains_00B5_
FN:171,_RNCNvCsbxEB5CaKYmm_5golem4mains0_0B3_
FN:128,_RNCNvCsbxEB5CaKYmm_5golem4mains_0B3_
FN:61,_RNvCsbxEB5CaKYmm_5golem4main
FN:30,_RNvMs_CsbxEB5CaKYmm_5golemNtB4_19GolemEmbeddedAssets3get
FN:40,_RINvCs9I3pOM5i1YW_5golem11new_runtimepEB2_
FN:131,_RNCNCNvCs9I3pOM5i1YW_5golem4mains_00B5_
FN:171,_RNCNvCs9I3pOM5i1YW_5golem4mains0_0B3_
FN:128,_RNCNvCs9I3pOM5i1YW_5golem4mains_0B3_
FN:61,_RNvCs9I3pOM5i1YW_5golem4main
FN:30,_RNvMs_Cs9I3pOM5i1YW_5golemNtB4_19GolemEmbeddedAssets3get
FNDA:6,_RINvCsbxEB5CaKYmm_5golem11new_runtimeNtNtCsjjrTDlECOC2_18eldritch_libassetss_3std16StdAssetsLibraryEB2_
FNDA:1,_RNCNCNvCsbxEB5CaKYmm_5golem4mains_00B5_
FNDA:0,_RNCNvCsbxEB5CaKYmm_5golem4mains0_0B3_
FNDA:1,_RNCNvCsbxEB5CaKYmm_5golem4mains_0B3_
FNDA:8,_RNvCsbxEB5CaKYmm_5golem4main
FNDA:0,_RNvMs_CsbxEB5CaKYmm_5golemNtB4_19GolemEmbeddedAssets3get
FNDA:0,_RINvCs9I3pOM5i1YW_5golem11new_runtimepEB2_
FNDA:0,_RNCNCNvCs9I3pOM5i1YW_5golem4mains_00B5_
FNDA:0,_RNCNvCs9I3pOM5i1YW_5golem4mains0_0B3_
FNDA:0,_RNCNvCs9I3pOM5i1YW_5golem4mains_0B3_
FNDA:0,_RNvCs9I3pOM5i1YW_5golem4main
FNDA:0,_RNvMs_Cs9I3pOM5i1YW_5golemNtB4_19GolemEmbeddedAssets3get
FNF:6
FNH:4
DA:30,0
DA:40,6
DA:42,6
DA:45,6
DA:46,6
DA:47,6
DA:48,6
DA:49,6
DA:50,6
DA:51,6
DA:52,6
DA:53,6
DA:54,6
DA:55,6
DA:56,6
DA:57,6
DA:58,6
DA:59,6
DA:61,8
DA:62,8
DA:63,8
DA:64,8
DA:65,8
DA:66,8
DA:67,8
DA:69,8
DA:70,8
DA:71,8
DA:72,8
DA:73,8
DA:75,8
DA:76,8
DA:77,8
DA:78,8
DA:79,8
DA:80,8
DA:81,8
DA:83,8
DA:84,8
DA:85,8
DA:86,8
DA:87,8
DA:88,8
DA:90,8
DA:91,8
DA:92,8
DA:93,8
DA:94,8
DA:95,8
DA:97,8
DA:99,8
DA:101,8
DA:102,8
DA:103,8
DA:104,8
DA:105,8
DA:108,8
DA:109,6
DA:110,6
DA:111,2
DA:113,11
DA:114,4
DA:115,4
DA:118,7
DA:120,7
DA:122,4
DA:123,7
DA:124,4
DA:126,4
DA:127,4
DA:128,4
DA:129,1
DA:130,1
DA:131,1
DA:132,1
DA:134,3
DA:135,3
DA:136,3
DA:137,3
DA:139,3
DA:141,6
DA:142,3
DA:143,3
DA:144,19
DA:145,16
DA:146,8
DA:147,8
DA:148,0
DA:150,8
DA:151,8
DA:152,8
DA:153,8
DA:154,8
DA:157,0
DA:159,3
DA:162,6
DA:164,6
DA:165,0
DA:166,0
DA:167,6
DA:170,6
DA:171,0
DA:172,0
DA:173,0
DA:174,0
DA:175,0
DA:176,0
DA:177,0
DA:180,6
DA:183,16
DA:186,11
DA:187,11
DA:188,11
DA:189,10
DA:190,1
DA:191,1
DA:192,1
DA:197,5
DA:198,7
BRF:0
BRH:0
LF:123
LH:110
end_of_record
SF:/app/implants/golem/src/repl.rs
FN:12,_RNvNtCsbxEB5CaKYmm_5golem4repl4repl
FN:140,_RNvNtCsbxEB5CaKYmm_5golem4repl6render
FN:102,_RNvNtCsbxEB5CaKYmm_5golem4repl7map_key
FN:18,_RNCNvNtCsbxEB5CaKYmm_5golem4repl4repl0B5_
FN:33,_RNCNvNtCsbxEB5CaKYmm_5golem4repl4repls_0B5_
FN:18,_RNCNvNtCs9I3pOM5i1YW_5golem4repl4repl0B5_
FN:33,_RNCNvNtCs9I3pOM5i1YW_5golem4repl4repls_0B5_
FN:12,_RNvNtCs9I3pOM5i1YW_5golem4repl4repl
FN:140,_RNvNtCs9I3pOM5i1YW_5golem4repl6render
FN:102,_RNvNtCs9I3pOM5i1YW_5golem4repl7map_key
FNDA:0,_RNvNtCsbxEB5CaKYmm_5golem4repl4repl
FNDA:0,_RNvNtCsbxEB5CaKYmm_5golem4repl6render
FNDA:0,_RNvNtCsbxEB5CaKYmm_5golem4repl7map_key
FNDA:0,_RNCNvNtCsbxEB5CaKYmm_5golem4repl4repl0B5_
FNDA:0,_RNCNvNtCsbxEB5CaKYmm_5golem4repl4repls_0B5_
FNDA:0,_RNCNvNtCs9I3pOM5i1YW_5golem4repl4repl0B5_
FNDA:0,_RNCNvNtCs9I3pOM5i1YW_5golem4repl4repls_0B5_
FNDA:0,_RNvNtCs9I3pOM5i1YW_5golem4repl4repl
FNDA:0,_RNvNtCs9I3pOM5i1YW_5golem4repl6render
FNDA:0,_RNvNtCs9I3pOM5i1YW_5golem4repl7map_key
FNF:5
FNH:0
DA:12,0
DA:13,0
DA:16,0
DA:17,0
DA:18,0
DA:19,0
DA:20,0
DA:21,0
DA:22,0
DA:23,0
DA:25,0
DA:26,0
DA:27,0
DA:31,0
DA:32,0
DA:33,0
DA:34,0
DA:35,0
DA:39,0
DA:40,0
DA:41,0
DA:43,0
DA:46,0
DA:47,0
DA:48,0
DA:49,0
DA:50,0
DA:51,0
DA:53,0
DA:58,0
DA:60,0
DA:61,0
DA:62,0
DA:63,0
DA:64,0
DA:65,0
DA:67,0
DA:69,0
DA:71,0
DA:74,0
DA:75,0
DA:78,0
DA:81,0
DA:82,0
DA:83,0
DA:86,0
DA:87,0
DA:88,0
DA:89,0
DA:91,0
DA:93,0
DA:94,0
DA:95,0
DA:98,0
DA:99,0
DA:100,0
DA:102,0
DA:103,0
DA:104,0
DA:105,0
DA:106,0
DA:108,0
DA:109,0
DA:110,0
DA:112,0
DA:113,0
DA:115,0
DA:116,0
DA:118,0
DA:119,0
DA:121,0
DA:122,0
DA:124,0
DA:125,0
DA:126,0
DA:127,0
DA:128,0
DA:129,0
DA:130,0
DA:131,0
DA:132,0
DA:133,0
DA:134,0
DA:135,0
DA:136,0
DA:138,0
DA:140,0
DA:141,0
DA:144,0
DA:146,0
DA:147,0
DA:149,0
DA:150,0
DA:153,0
DA:155,0
DA:156,0
DA:157,0
DA:160,0
DA:161,0
DA:162,0
DA:163,0
DA:165,0
DA:166,0
DA:168,0
DA:169,0
DA:170,0
DA:172,0
DA:176,0
DA:178,0
DA:179,0
DA:180,0
DA:182,0
DA:183,0
DA:184,0
DA:185,0
DA:186,0
DA:190,0
DA:191,0
DA:192,0
DA:194,0
DA:196,0
DA:198,0
DA:202,0
DA:203,0
DA:204,0
DA:205,0
DA:208,0
DA:209,0
DA:211,0
DA:212,0
DA:214,0
DA:215,0
DA:216,0
BRF:0
BRH:0
LF:135
LH:0
end_of_record
SF:/app/implants/imix/src/agent.rs
FN:118,_RNvMNtCsa7Dhx6HaxLb_4imix5agentNtB2_9ImixAgent10refresh_ip
FN:290,_RNvMNtCsa7Dhx6HaxLb_4imix5agentNtB2_9ImixAgent11claim_tasks
FN:130,_RNvMNtCsa7Dhx6HaxLb_4imix5agentNtB2_9ImixAgent13flush_outputs
FN:124,_RNvMNtCsa7Dhx6HaxLb_4imix5agentNtB2_9ImixAgent16update_transport
FN:90,_RNvMNtCsa7Dhx6HaxLb_4imix5agentNtB2_9ImixAgent19get_callback_jitter
FN:303,_RNvMNtCsa7Dhx6HaxLb_4imix5agentNtB2_9ImixAgent19process_job_request
FN:253,_RNvMNtCsa7Dhx6HaxLb_4imix5agentNtB2_9ImixAgent19rotate_callback_uri
FN:59,_RNvMNtCsa7Dhx6HaxLb_4imix5agentNtB2_9ImixAgent19start_shell_manager
FN:248,_RNvMNtCsa7Dhx6HaxLb_4imix5agentNtB2_9ImixAgent20get_transport_config
FN:269,_RNvMNtCsa7Dhx6HaxLb_4imix5agentNtB2_9ImixAgent20get_usable_transport
FN:63,_RNvMNtCsa7Dhx6HaxLb_4imix5agentNtB2_9ImixAgent25get_callback_interval_u64
FN:38,_RNvMNtCsa7Dhx6HaxLb_4imix5agentNtB2_9ImixAgent3new
FN:476,_RNvXs_NtCsa7Dhx6HaxLb_4imix5agentNtB4_9ImixAgentNtCs4YvUcAiDkiF_14eldritch_agent5Agent10get_config
FN:775,_RNvXs_NtCsa7Dhx6HaxLb_4imix5agentNtB4_9ImixAgentNtCs4YvUcAiDkiF_14eldritch_agent5Agent10list_tasks
FN:472,_RNvXs_NtCsa7Dhx6HaxLb_4imix5agentNtB4_9ImixAgentNtCs4YvUcAiDkiF_14eldritch_agent5Agent11claim_tasks
FN:394,_RNvXs_NtCsa7Dhx6HaxLb_4imix5agentNtB4_9ImixAgentNtCs4YvUcAiDkiF_14eldritch_agent5Agent11fetch_asset
FN:415,_RNvXs_NtCsa7Dhx6HaxLb_4imix5agentNtB4_9ImixAgentNtCs4YvUcAiDkiF_14eldritch_agent5Agent11report_file
FN:450,_RNvXs_NtCsa7Dhx6HaxLb_4imix5agentNtB4_9ImixAgentNtCs4YvUcAiDkiF_14eldritch_agent5Agent13create_portal
FN:546,_RNvXs_NtCsa7Dhx6HaxLb_4imix5agentNtB4_9ImixAgentNtCs4YvUcAiDkiF_14eldritch_agent5Agent13get_transport
FN:429,_RNvXs_NtCsa7Dhx6HaxLb_4imix5agentNtB4_9ImixAgentNtCs4YvUcAiDkiF_14eldritch_agent5Agent13report_output
FN:558,_RNvXs_NtCsa7Dhx6HaxLb_4imix5agentNtB4_9ImixAgentNtCs4YvUcAiDkiF_14eldritch_agent5Agent13set_transport
FN:599,_RNvXs_NtCsa7Dhx6HaxLb_4imix5agentNtB4_9ImixAgentNtCs4YvUcAiDkiF_14eldritch_agent5Agent15list_transports
FN:717,_RNvXs_NtCsa7Dhx6HaxLb_4imix5agentNtB4_9ImixAgentNtCs4YvUcAiDkiF_14eldritch_agent5Agent16add_callback_uri
FN:626,_RNvXs_NtCsa7Dhx6HaxLb_4imix5agentNtB4_9ImixAgentNtCs4YvUcAiDkiF_14eldritch_agent5Agent16set_callback_uri
FN:408,_RNvXs_NtCsa7Dhx6HaxLb_4imix5agentNtB4_9ImixAgentNtCs4YvUcAiDkiF_14eldritch_agent5Agent17report_credential
FN:668,_RNvXs_NtCsa7Dhx6HaxLb_4imix5agentNtB4_9ImixAgentNtCs4YvUcAiDkiF_14eldritch_agent5Agent18list_callback_uris
FN:752,_RNvXs_NtCsa7Dhx6HaxLb_4imix5agentNtB4_9ImixAgentNtCs4YvUcAiDkiF_14eldritch_agent5Agent19remove_callback_uri
FN:422,_RNvXs_NtCsa7Dhx6HaxLb_4imix5agentNtB4_9ImixAgentNtCs4YvUcAiDkiF_14eldritch_agent5Agent19report_process_list
FN:440,_RNvXs_NtCsa7Dhx6HaxLb_4imix5agentNtB4_9ImixAgentNtCs4YvUcAiDkiF_14eldritch_agent5Agent19start_reverse_shell
FN:603,_RNvXs_NtCsa7Dhx6HaxLb_4imix5agentNtB4_9ImixAgentNtCs4YvUcAiDkiF_14eldritch_agent5Agent21get_callback_interval
FN:698,_RNvXs_NtCsa7Dhx6HaxLb_4imix5agentNtB4_9ImixAgentNtCs4YvUcAiDkiF_14eldritch_agent5Agent21get_next_callback_uri
FN:607,_RNvXs_NtCsa7Dhx6HaxLb_4imix5agentNtB4_9ImixAgentNtCs4YvUcAiDkiF_14eldritch_agent5Agent21set_callback_interval
FN:681,_RNvXs_NtCsa7Dhx6HaxLb_4imix5agentNtB4_9ImixAgentNtCs4YvUcAiDkiF_14eldritch_agent5Agent23get_active_callback_uri
FN:461,_RNvXs_NtCsa7Dhx6HaxLb_4imix5agentNtB4_9ImixAgentNtCs4YvUcAiDkiF_14eldritch_agent5Agent24start_repl_reverse_shell
FN:779,_RNvXs_NtCsa7Dhx6HaxLb_4imix5agentNtB4_9ImixAgentNtCs4YvUcAiDkiF_14eldritch_agent5Agent9stop_task
FN:360,_RINvMNtCsa7Dhx6HaxLb_4imix5agentNtB3_9ImixAgent13spawn_subtaskNCNvXs_B3_Bu_NtCs4YvUcAiDkiF_14eldritch_agent5Agent13create_portal0NCNCB10_00EB5_
FN:360,_RINvMNtCsa7Dhx6HaxLb_4imix5agentNtB3_9ImixAgent13spawn_subtaskNCNvXs_B3_Bu_NtCs4YvUcAiDkiF_14eldritch_agent5Agent19start_reverse_shell0NCNCB10_00EB5_
FN:360,_RINvMNtCsa7Dhx6HaxLb_4imix5agentNtB3_9ImixAgent13spawn_subtaskNCNvXs_B3_Bu_NtCs4YvUcAiDkiF_14eldritch_agent5Agent24start_repl_reverse_shell0NCNCB10_00EB5_
FN:345,_RINvMNtCsa7Dhx6HaxLb_4imix5agentNtB3_9ImixAgent14with_transportNCNvXs_B3_Bu_NtCs4YvUcAiDkiF_14eldritch_agent5Agent11claim_tasks0NCNCB11_00NtNtCs7b6pIPUuCtr_2pb2c218ClaimTasksResponseEB5_
FN:345,_RINvMNtCsa7Dhx6HaxLb_4imix5agentNtB3_9ImixAgent14with_transportNCNvXs_B3_Bu_NtCs4YvUcAiDkiF_14eldritch_agent5Agent11fetch_asset0NCNCB11_00INtNtCs456UZznmu7y_5alloc3vec3VechEEB5_
FN:345,_RINvMNtCsa7Dhx6HaxLb_4imix5agentNtB3_9ImixAgent14with_transportNCNvXs_B3_Bu_NtCs4YvUcAiDkiF_14eldritch_agent5Agent11report_file0NCNCB11_00NtNtCs7b6pIPUuCtr_2pb2c218ReportFileResponseEB5_
FN:345,_RINvMNtCsa7Dhx6HaxLb_4imix5agentNtB3_9ImixAgent14with_transportNCNvXs_B3_Bu_NtCs4YvUcAiDkiF_14eldritch_agent5Agent17report_credential0NCNCB11_00NtNtCs7b6pIPUuCtr_2pb2c224ReportCredentialResponseEB5_
FN:345,_RINvMNtCsa7Dhx6HaxLb_4imix5agentNtB3_9ImixAgent14with_transportNCNvXs_B3_Bu_NtCs4YvUcAiDkiF_14eldritch_agent5Agent19report_process_list0NCNCB11_00NtNtCs7b6pIPUuCtr_2pb2c225ReportProcessListResponseEB5_
FN:337,_RINvMNtCsa7Dhx6HaxLb_4imix5agentNtB3_9ImixAgent8block_onNCINvB2_14with_transportNCNvXs_B3_Bu_NtCs4YvUcAiDkiF_14eldritch_agent5Agent11claim_tasks0NCNCB1i_00NtNtCs7b6pIPUuCtr_2pb2c218ClaimTasksResponseE0B2t_EB5_
FN:337,_RINvMNtCsa7Dhx6HaxLb_4imix5agentNtB3_9ImixAgent8block_onNCINvB2_14with_transportNCNvXs_B3_Bu_NtCs4YvUcAiDkiF_14eldritch_agent5Agent11fetch_asset0NCNCB1i_00INtNtCs456UZznmu7y_5alloc3vec3VechEE0B2t_EB5_
FN:337,_RINvMNtCsa7Dhx6HaxLb_4imix5agentNtB3_9ImixAgent8block_onNCINvB2_14with_transportNCNvXs_B3_Bu_NtCs4YvUcAiDkiF_14eldritch_agent5Agent11report_file0NCNCB1i_00NtNtCs7b6pIPUuCtr_2pb2c218ReportFileResponseE0B2t_EB5_
FN:337,_RINvMNtCsa7Dhx6HaxLb_4imix5agentNtB3_9ImixAgent8block_onNCINvB2_14with_transportNCNvXs_B3_Bu_NtCs4YvUcAiDkiF_14eldritch_agent5Agent17report_credential0NCNCB1i_00NtNtCs7b6pIPUuCtr_2pb2c224ReportCredentialResponseE0B2z_EB5_
FN:337,_RINvMNtCsa7Dhx6HaxLb_4imix5agentNtB3_9ImixAgent8block_onNCINvB2_14with_transportNCNvXs_B3_Bu_NtCs4YvUcAiDkiF_14eldritch_agent5Agent19report_process_list0NCNCB1i_00NtNtCs7b6pIPUuCtr_2pb2c225ReportProcessListResponseE0B2B_EB5_
FN:337,_RINvMNtCsa7Dhx6HaxLb_4imix5agentNtB3_9ImixAgent8block_onNCNvXs_B3_Bu_NtCs4YvUcAiDkiF_14eldritch_agent5Agent10get_config0NtNtCs7b6pIPUuCtr_2pb6config6ConfigEB5_
FN:337,_RINvMNtCsa7Dhx6HaxLb_4imix5agentNtB3_9ImixAgent8block_onNCNvXs_B3_Bu_NtCs4YvUcAiDkiF_14eldritch_agent5Agent13get_transport0NtNtCs456UZznmu7y_5alloc6string6StringEB5_
FN:337,_RINvMNtCsa7Dhx6HaxLb_4imix5agentNtB3_9ImixAgent8block_onNCNvXs_B3_Bu_NtCs4YvUcAiDkiF_14eldritch_agent5Agent13set_transport0uEB5_
FN:337,_RINvMNtCsa7Dhx6HaxLb_4imix5agentNtB3_9ImixAgent8block_onNCNvXs_B3_Bu_NtCs4YvUcAiDkiF_14eldritch_agent5Agent15list_transports0INtNtCs456UZznmu7y_5alloc3vec3VecNtNtB24_6string6StringEEB5_
FN:337,_RINvMNtCsa7Dhx6HaxLb_4imix5agentNtB3_9ImixAgent8block_onNCNvXs_B3_Bu_NtCs4YvUcAiDkiF_14eldritch_agent5Agent16add_callback_uri0uEB5_
FN:337,_RINvMNtCsa7Dhx6HaxLb_4imix5agentNtB3_9ImixAgent8block_onNCNvXs_B3_Bu_NtCs4YvUcAiDkiF_14eldritch_agent5Agent16set_callback_uri0uEB5_
FN:337,_RINvMNtCsa7Dhx6HaxLb_4imix5agentNtB3_9ImixAgent8block_onNCNvXs_B3_Bu_NtCs4YvUcAiDkiF_14eldritch_agent5Agent18list_callback_uris0INtNtNtNtCs456UZznmu7y_5alloc11collections5btree3set8BTreeSetNtNtB2b_6string6StringEEB5_
FN:337,_RINvMNtCsa7Dhx6HaxLb_4imix5agentNtB3_9ImixAgent8block_onNCNvXs_B3_Bu_NtCs4YvUcAiDkiF_14eldritch_agent5Agent19remove_callback_uri0uEB5_
FN:337,_RINvMNtCsa7Dhx6HaxLb_4imix5agentNtB3_9ImixAgent8block_onNCNvXs_B3_Bu_NtCs4YvUcAiDkiF_14eldritch_agent5Agent21get_next_callback_uri0NtNtCs456UZznmu7y_5alloc6string6StringEB5_
FN:337,_RINvMNtCsa7Dhx6HaxLb_4imix5agentNtB3_9ImixAgent8block_onNCNvXs_B3_Bu_NtCs4YvUcAiDkiF_14eldritch_agent5Agent21set_callback_interval0uEB5_
FN:337,_RINvMNtCsa7Dhx6HaxLb_4imix5agentNtB3_9ImixAgent8block_onNCNvXs_B3_Bu_NtCs4YvUcAiDkiF_14eldritch_agent5Agent23get_active_callback_uri0NtNtCs456UZznmu7y_5alloc6string6StringEB5_
FN:368,_RNCINvMNtCsa7Dhx6HaxLb_4imix5agentNtB5_9ImixAgent13spawn_subtaskNCNvXs_B5_Bw_NtCs4YvUcAiDkiF_14eldritch_agent5Agent13create_portal0NCNCB12_00E0B7_
FN:368,_RNCINvMNtCsa7Dhx6HaxLb_4imix5agentNtB5_9ImixAgent13spawn_subtaskNCNvXs_B5_Bw_NtCs4YvUcAiDkiF_14eldritch_agent5Agent19start_reverse_shell0NCNCB12_00E0B7_
FN:368,_RNCINvMNtCsa7Dhx6HaxLb_4imix5agentNtB5_9ImixAgent13spawn_subtaskNCNvXs_B5_Bw_NtCs4YvUcAiDkiF_14eldritch_agent5Agent24start_repl_reverse_shell0NCNCB12_00E0B7_
FN:350,_RNCINvMNtCsa7Dhx6HaxLb_4imix5agentNtB5_9ImixAgent14with_transportNCNvXs_B5_Bw_NtCs4YvUcAiDkiF_14eldritch_agent5Agent11claim_tasks0NCNCB13_00NtNtCs7b6pIPUuCtr_2pb2c218ClaimTasksResponseE0B7_
FN:350,_RNCINvMNtCsa7Dhx6HaxLb_4imix5agentNtB5_9ImixAgent14with_transportNCNvXs_B5_Bw_NtCs4YvUcAiDkiF_14eldritch_agent5Agent11fetch_asset0NCNCB13_00INtNtCs456UZznmu7y_5alloc3vec3VechEE0B7_
FN:350,_RNCINvMNtCsa7Dhx6HaxLb_4imix5agentNtB5_9ImixAgent14with_transportNCNvXs_B5_Bw_NtCs4YvUcAiDkiF_14eldritch_agent5Agent11report_file0NCNCB13_00NtNtCs7b6pIPUuCtr_2pb2c218ReportFileResponseE0B7_
FN:350,_RNCINvMNtCsa7Dhx6HaxLb_4imix5agentNtB5_9ImixAgent14with_transportNCNvXs_B5_Bw_NtCs4YvUcAiDkiF_14eldritch_agent5Agent17report_credential0NCNCB13_00NtNtCs7b6pIPUuCtr_2pb2c224ReportCredentialResponseE0B7_
FN:350,_RNCINvMNtCsa7Dhx6HaxLb_4imix5agentNtB5_9ImixAgent14with_transportNCNvXs_B5_Bw_NtCs4YvUcAiDkiF_14eldritch_agent5Agent19report_process_list0NCNCB13_00NtNtCs7b6pIPUuCtr_2pb2c225ReportProcessListResponseE0B7_
FN:354,_RNCNCINvMNtCsa7Dhx6HaxLb_4imix5agentNtB7_9ImixAgent14with_transportNCNvXs_B7_By_NtCs4YvUcAiDkiF_14eldritch_agent5Agent11claim_tasks0NCNCB15_00NtNtCs7b6pIPUuCtr_2pb2c218ClaimTasksResponseE00B9_
FN:355,_RNCNCINvMNtCsa7Dhx6HaxLb_4imix5agentNtB7_9ImixAgent14with_transportNCNvXs_B7_By_NtCs4YvUcAiDkiF_14eldritch_agent5Agent11claim_tasks0NCNCB15_00NtNtCs7b6pIPUuCtr_2pb2c218ClaimTasksResponseE0s_0B9_
FN:354,_RNCNCINvMNtCsa7Dhx6HaxLb_4imix5agentNtB7_9ImixAgent14with_transportNCNvXs_B7_By_NtCs4YvUcAiDkiF_14eldritch_agent5Agent11fetch_asset0NCNCB15_00INtNtCs456UZznmu7y_5alloc3vec3VechEE00B9_
FN:355,_RNCNCINvMNtCsa7Dhx6HaxLb_4imix5agentNtB7_9ImixAgent14with_transportNCNvXs_B7_By_NtCs4YvUcAiDkiF_14eldritch_agent5Agent11fetch_asset0NCNCB15_00INtNtCs456UZznmu7y_5alloc3vec3VechEE0s_0B9_
FN:354,_RNCNCINvMNtCsa7Dhx6HaxLb_4imix5agentNtB7_9ImixAgent14with_transportNCNvXs_B7_By_NtCs4YvUcAiDkiF_14eldritch_agent5Agent11report_file0NCNCB15_00NtNtCs7b6pIPUuCtr_2pb2c218ReportFileResponseE00B9_
FN:355,_RNCNCINvMNtCsa7Dhx6HaxLb_4imix5agentNtB7_9ImixAgent14with_transportNCNvXs_B7_By_NtCs4YvUcAiDkiF_14eldritch_agent5Agent11report_file0NCNCB15_00NtNtCs7b6pIPUuCtr_2pb2c218ReportFileResponseE0s_0B9_
FN:354,_RNCNCINvMNtCsa7Dhx6HaxLb_4imix5agentNtB7_9ImixAgent14with_transportNCNvXs_B7_By_NtCs4YvUcAiDkiF_14eldritch_agent5Agent17report_credential0NCNCB15_00NtNtCs7b6pIPUuCtr_2pb2c224ReportCredentialResponseE00B9_
FN:355,_RNCNCINvMNtCsa7Dhx6HaxLb_4imix5agentNtB7_9ImixAgent14with_transportNCNvXs_B7_By_NtCs4YvUcAiDkiF_14eldritch_agent5Agent17report_credential0NCNCB15_00NtNtCs7b6pIPUuCtr_2pb2c224ReportCredentialResponseE0s_0B9_
FN:354,_RNCNCINvMNtCsa7Dhx6HaxLb_4imix5agentNtB7_9ImixAgent14with_transportNCNvXs_B7_By_NtCs4YvUcAiDkiF_14eldritch_agent5Agent19report_process_list0NCNCB15_00NtNtCs7b6pIPUuCtr_2pb2c225ReportProcessListResponseE00B9_
FN:355,_RNCNCINvMNtCsa7Dhx6HaxLb_4imix5agentNtB7_9ImixAgent14with_transportNCNvXs_B7_By_NtCs4YvUcAiDkiF_14eldritch_agent5Agent19report_process_list0NCNCB15_00NtNtCs7b6pIPUuCtr_2pb2c225ReportProcessListResponseE0s_0B9_
FN:675,_RNCNCNCNvXs_NtCsa7Dhx6HaxLb_4imix5agentNtBa_9ImixAgentNtCs4YvUcAiDkiF_14eldritch_agent5Agent18list_callback_uris0s_00Bc_
FN:691,_RNCNCNCNvXs_NtCsa7Dhx6HaxLb_4imix5agentNtBa_9ImixAgentNtCs4YvUcAiDkiF_14eldritch_agent5Agent23get_active_callback_uri0s_00Bc_
FN:473,_RNCNCNvXs_NtCsa7Dhx6HaxLb_4imix5agentNtB8_9ImixAgentNtCs4YvUcAiDkiF_14eldritch_agent5Agent11claim_tasks00Ba_
FN:395,_RNCNCNvXs_NtCsa7Dhx6HaxLb_4imix5agentNtB8_9ImixAgentNtCs4YvUcAiDkiF_14eldritch_agent5Agent11fetch_asset00Ba_
FN:419,_RNCNCNvXs_NtCsa7Dhx6HaxLb_4imix5agentNtB8_9ImixAgentNtCs4YvUcAiDkiF_14eldritch_agent5Agent11report_file00Ba_
FN:456,_RNCNCNvXs_NtCsa7Dhx6HaxLb_4imix5agentNtB8_9ImixAgentNtCs4YvUcAiDkiF_14eldritch_agent5Agent13create_portal00Ba_
FN:552,_RNCNCNvXs_NtCsa7Dhx6HaxLb_4imix5agentNtB8_9ImixAgentNtCs4YvUcAiDkiF_14eldritch_agent5Agent13get_transport00Ba_
FN:724,_RNCNCNvXs_NtCsa7Dhx6HaxLb_4imix5agentNtB8_9ImixAgentNtCs4YvUcAiDkiF_14eldritch_agent5Agent16add_callback_uri00Ba_
FN:731,_RNCNCNvXs_NtCsa7Dhx6HaxLb_4imix5agentNtB8_9ImixAgentNtCs4YvUcAiDkiF_14eldritch_agent5Agent16add_callback_uri0s_0Ba_
FN:636,_RNCNCNvXs_NtCsa7Dhx6HaxLb_4imix5agentNtB8_9ImixAgentNtCs4YvUcAiDkiF_14eldritch_agent5Agent16set_callback_uri00Ba_
FN:646,_RNCNCNvXs_NtCsa7Dhx6HaxLb_4imix5agentNtB8_9ImixAgentNtCs4YvUcAiDkiF_14eldritch_agent5Agent16set_callback_uri0s_0Ba_
FN:412,_RNCNCNvXs_NtCsa7Dhx6HaxLb_4imix5agentNtB8_9ImixAgentNtCs4YvUcAiDkiF_14eldritch_agent5Agent17report_credential00Ba_
FN:674,_RNCNCNvXs_NtCsa7Dhx6HaxLb_4imix5agentNtB8_9ImixAgentNtCs4YvUcAiDkiF_14eldritch_agent5Agent18list_callback_uris00Ba_
FN:675,_RNCNCNvXs_NtCsa7Dhx6HaxLb_4imix5agentNtB8_9ImixAgentNtCs4YvUcAiDkiF_14eldritch_agent5Agent18list_callback_uris0s_0Ba_
FN:760,_RNCNCNvXs_NtCsa7Dhx6HaxLb_4imix5agentNtB8_9ImixAgentNtCs4YvUcAiDkiF_14eldritch_agent5Agent19remove_callback_uri00Ba_
FN:426,_RNCNCNvXs_NtCsa7Dhx6HaxLb_4imix5agentNtB8_9ImixAgentNtCs4YvUcAiDkiF_14eldritch_agent5Agent19report_process_list00Ba_
FN:445,_RNCNCNvXs_NtCsa7Dhx6HaxLb_4imix5agentNtB8_9ImixAgentNtCs4YvUcAiDkiF_14eldritch_agent5Agent19start_reverse_shell00Ba_
FN:703,_RNCNCNvXs_NtCsa7Dhx6HaxLb_4imix5agentNtB8_9ImixAgentNtCs4YvUcAiDkiF_14eldritch_agent5Agent21get_next_callback_uri00Ba_
FN:712,_RNCNCNvXs_NtCsa7Dhx6HaxLb_4imix5agentNtB8_9ImixAgentNtCs4YvUcAiDkiF_14eldritch_agent5Agent21get_next_callback_uri0s0_0Ba_
FN:713,_RNCNCNvXs_NtCsa7Dhx6HaxLb_4imix5agentNtB8_9ImixAgentNtCs4YvUcAiDkiF_14eldritch_agent5Agent21get_next_callback_uri0s1_0Ba_
FN:704,_RNCNCNvXs_NtCsa7Dhx6HaxLb_4imix5agentNtB8_9ImixAgentNtCs4YvUcAiDkiF_14eldritch_agent5Agent21get_next_callback_uri0s_0Ba_
FN:686,_RNCNCNvXs_NtCsa7Dhx6HaxLb_4imix5agentNtB8_9ImixAgentNtCs4YvUcAiDkiF_14eldritch_agent5Agent23get_active_callback_uri00Ba_
FN:693,_RNCNCNvXs_NtCsa7Dhx6HaxLb_4imix5agentNtB8_9ImixAgentNtCs4YvUcAiDkiF_14eldritch_agent5Agent23get_active_callback_uri0s0_0Ba_
FN:694,_RNCNCNvXs_NtCsa7Dhx6HaxLb_4imix5agentNtB8_9ImixAgentNtCs4YvUcAiDkiF_14eldritch_agent5Agent23get_active_callback_uri0s1_0Ba_
FN:687,_RNCNCNvXs_NtCsa7Dhx6HaxLb_4imix5agentNtB8_9ImixAgentNtCs4YvUcAiDkiF_14eldritch_agent5Agent23get_active_callback_uri0s_0Ba_
FN:467,_RNCNCNvXs_NtCsa7Dhx6HaxLb_4imix5agentNtB8_9ImixAgentNtCs4YvUcAiDkiF_14eldritch_agent5Agent24start_repl_reverse_shell00Ba_
FN:118,_RNCNvMNtCsa7Dhx6HaxLb_4imix5agentNtB4_9ImixAgent10refresh_ip0B6_
FN:290,_RNCNvMNtCsa7Dhx6HaxLb_4imix5agentNtB4_9ImixAgent11claim_tasks0B6_
FN:130,_RNCNvMNtCsa7Dhx6HaxLb_4imix5agentNtB4_9ImixAgent13flush_outputs0B6_
FN:124,_RNCNvMNtCsa7Dhx6HaxLb_4imix5agentNtB4_9ImixAgent16update_transport0B6_
FN:95,_RNCNvMNtCsa7Dhx6HaxLb_4imix5agentNtB4_9ImixAgent19get_callback_jitter0B6_
FN:104,_RNCNvMNtCsa7Dhx6HaxLb_4imix5agentNtB4_9ImixAgent19get_callback_jitters0_0B6_
FN:110,_RNCNvMNtCsa7Dhx6HaxLb_4imix5agentNtB4_9ImixAgent19get_callback_jitters1_0B6_
FN:111,_RNCNvMNtCsa7Dhx6HaxLb_4imix5agentNtB4_9ImixAgent19get_callback_jitters2_0B6_
FN:99,_RNCNvMNtCsa7Dhx6HaxLb_4imix5agentNtB4_9ImixAgent19get_callback_jitters_0B6_
FN:303,_RNCNvMNtCsa7Dhx6HaxLb_4imix5agentNtB4_9ImixAgent19process_job_request0B6_
FN:253,_RNCNvMNtCsa7Dhx6HaxLb_4imix5agentNtB4_9ImixAgent19rotate_callback_uri0B6_
FN:248,_RNCNvMNtCsa7Dhx6HaxLb_4imix5agentNtB4_9ImixAgent20get_transport_config0B6_
FN:269,_RNCNvMNtCsa7Dhx6HaxLb_4imix5agentNtB4_9ImixAgent20get_usable_transport0B6_
FN:68,_RNCNvMNtCsa7Dhx6HaxLb_4imix5agentNtB4_9ImixAgent25get_callback_interval_u640B6_
FN:77,_RNCNvMNtCsa7Dhx6HaxLb_4imix5agentNtB4_9ImixAgent25get_callback_interval_u64s0_0B6_
FN:83,_RNCNvMNtCsa7Dhx6HaxLb_4imix5agentNtB4_9ImixAgent25get_callback_interval_u64s1_0B6_
FN:84,_RNCNvMNtCsa7Dhx6HaxLb_4imix5agentNtB4_9ImixAgent25get_callback_interval_u64s2_0B6_
FN:72,_RNCNvMNtCsa7Dhx6HaxLb_4imix5agentNtB4_9ImixAgent25get_callback_interval_u64s_0B6_
FN:480,_RNCNvXs_NtCsa7Dhx6HaxLb_4imix5agentNtB6_9ImixAgentNtCs4YvUcAiDkiF_14eldritch_agent5Agent10get_config0B8_
FN:489,_RNCNvXs_NtCsa7Dhx6HaxLb_4imix5agentNtB6_9ImixAgentNtCs4YvUcAiDkiF_14eldritch_agent5Agent10get_configs0_0B8_
FN:491,_RNCNvXs_NtCsa7Dhx6HaxLb_4imix5agentNtB6_9ImixAgentNtCs4YvUcAiDkiF_14eldritch_agent5Agent10get_configs1_0B8_
FN:497,_RNCNvXs_NtCsa7Dhx6HaxLb_4imix5agentNtB6_9ImixAgentNtCs4YvUcAiDkiF_14eldritch_agent5Agent10get_configs2_0B8_
FN:499,_RNCNvXs_NtCsa7Dhx6HaxLb_4imix5agentNtB6_9ImixAgentNtCs4YvUcAiDkiF_14eldritch_agent5Agent10get_configs3_0B8_
FN:473,_RNCNvXs_NtCsa7Dhx6HaxLb_4imix5agentNtB6_9ImixAgentNtCs4YvUcAiDkiF_14eldritch_agent5Agent11claim_tasks0B8_
FN:405,_RNCNvXs_NtCsa7Dhx6HaxLb_4imix5agentNtB6_9ImixAgentNtCs4YvUcAiDkiF_14eldritch_agent5Agent11fetch_asset0B8_
FN:419,_RNCNvXs_NtCsa7Dhx6HaxLb_4imix5agentNtB6_9ImixAgentNtCs4YvUcAiDkiF_14eldritch_agent5Agent11report_file0B8_
FN:458,_RNCNvXs_NtCsa7Dhx6HaxLb_4imix5agentNtB6_9ImixAgentNtCs4YvUcAiDkiF_14eldritch_agent5Agent13create_portal0B8_
FN:548,_RNCNvXs_NtCsa7Dhx6HaxLb_4imix5agentNtB6_9ImixAgentNtCs4YvUcAiDkiF_14eldritch_agent5Agent13get_transport0B8_
FN:436,_RNCNvXs_NtCsa7Dhx6HaxLb_4imix5agentNtB6_9ImixAgentNtCs4YvUcAiDkiF_14eldritch_agent5Agent13report_output0B8_
FN:564,_RNCNvXs_NtCsa7Dhx6HaxLb_4imix5agentNtB6_9ImixAgentNtCs4YvUcAiDkiF_14eldritch_agent5Agent13set_transport0B8_
FN:600,_RNCNvXs_NtCsa7Dhx6HaxLb_4imix5agentNtB6_9ImixAgentNtCs4YvUcAiDkiF_14eldritch_agent5Agent15list_transports0B8_
FN:718,_RNCNvXs_NtCsa7Dhx6HaxLb_4imix5agentNtB6_9ImixAgentNtCs4YvUcAiDkiF_14eldritch_agent5Agent16add_callback_uri0B8_
FN:627,_RNCNvXs_NtCsa7Dhx6HaxLb_4imix5agentNtB6_9ImixAgentNtCs4YvUcAiDkiF_14eldritch_agent5Agent16set_callback_uri0B8_
FN:412,_RNCNvXs_NtCsa7Dhx6HaxLb_4imix5agentNtB6_9ImixAgentNtCs4YvUcAiDkiF_14eldritch_agent5Agent17report_credential0B8_
FN:669,_RNCNvXs_NtCsa7Dhx6HaxLb_4imix5agentNtB6_9ImixAgentNtCs4YvUcAiDkiF_14eldritch_agent5Agent18list_callback_uris0B8_
FN:753,_RNCNvXs_NtCsa7Dhx6HaxLb_4imix5agentNtB6_9ImixAgentNtCs4YvUcAiDkiF_14eldritch_agent5Agent19remove_callback_uri0B8_
FN:426,_RNCNvXs_NtCsa7Dhx6HaxLb_4imix5agentNtB6_9ImixAgentNtCs4YvUcAiDkiF_14eldritch_agent5Agent19report_process_list0B8_
FN:447,_RNCNvXs_NtCsa7Dhx6HaxLb_4imix5agentNtB6_9ImixAgentNtCs4YvUcAiDkiF_14eldritch_agent5Agent19start_reverse_shell0B8_
FN:604,_RNCNvXs_NtCsa7Dhx6HaxLb_4imix5agentNtB6_9ImixAgentNtCs4YvUcAiDkiF_14eldritch_agent5Agent21get_callback_interval0B8_
FN:699,_RNCNvXs_NtCsa7Dhx6HaxLb_4imix5agentNtB6_9ImixAgentNtCs4YvUcAiDkiF_14eldritch_agent5Agent21get_next_callback_uri0B8_
FN:608,_RNCNvXs_NtCsa7Dhx6HaxLb_4imix5agentNtB6_9ImixAgentNtCs4YvUcAiDkiF_14eldritch_agent5Agent21set_callback_interval0B8_
FN:682,_RNCNvXs_NtCsa7Dhx6HaxLb_4imix5agentNtB6_9ImixAgentNtCs4YvUcAiDkiF_14eldritch_agent5Agent23get_active_callback_uri0B8_
FN:469,_RNCNvXs_NtCsa7Dhx6HaxLb_4imix5agentNtB6_9ImixAgentNtCs4YvUcAiDkiF_14eldritch_agent5Agent24start_repl_reverse_shell0B8_
FN:785,_RNCNvXs_NtCsa7Dhx6HaxLb_4imix5agentNtB6_9ImixAgentNtCs4YvUcAiDkiF_14eldritch_agent5Agent9stop_task0B8_
FN:360,_RINvMNtCshYyER8Nev1x_4imix5agentNtB3_9ImixAgent13spawn_subtaskNCNvXs_B3_Bu_NtCs4YvUcAiDkiF_14eldritch_agent5Agent13create_portal0NCNCB10_00EB5_
FN:360,_RINvMNtCshYyER8Nev1x_4imix5agentNtB3_9ImixAgent13spawn_subtaskNCNvXs_B3_Bu_NtCs4YvUcAiDkiF_14eldritch_agent5Agent19start_reverse_shell0NCNCB10_00EB5_
FN:360,_RINvMNtCshYyER8Nev1x_4imix5agentNtB3_9ImixAgent13spawn_subtaskNCNvXs_B3_Bu_NtCs4YvUcAiDkiF_14eldritch_agent5Agent24start_repl_reverse_shell0NCNCB10_00EB5_
FN:345,_RINvMNtCshYyER8Nev1x_4imix5agentNtB3_9ImixAgent14with_transportNCNvXs_B3_Bu_NtCs4YvUcAiDkiF_14eldritch_agent5Agent11claim_tasks0NCNCB11_00NtNtCs7b6pIPUuCtr_2pb2c218ClaimTasksResponseEB5_
FN:345,_RINvMNtCshYyER8Nev1x_4imix5agentNtB3_9ImixAgent14with_transportNCNvXs_B3_Bu_NtCs4YvUcAiDkiF_14eldritch_agent5Agent11fetch_asset0NCNCB11_00INtNtCs456UZznmu7y_5alloc3vec3VechEEB5_
FN:345,_RINvMNtCshYyER8Nev1x_4imix5agentNtB3_9ImixAgent14with_transportNCNvXs_B3_Bu_NtCs4YvUcAiDkiF_14eldritch_agent5Agent11report_file0NCNCB11_00NtNtCs7b6pIPUuCtr_2pb2c218ReportFileResponseEB5_
FN:345,_RINvMNtCshYyER8Nev1x_4imix5agentNtB3_9ImixAgent14with_transportNCNvXs_B3_Bu_NtCs4YvUcAiDkiF_14eldritch_agent5Agent17report_credential0NCNCB11_00NtNtCs7b6pIPUuCtr_2pb2c224ReportCredentialResponseEB5_
FN:345,_RINvMNtCshYyER8Nev1x_4imix5agentNtB3_9ImixAgent14with_transportNCNvXs_B3_Bu_NtCs4YvUcAiDkiF_14eldritch_agent5Agent19report_process_list0NCNCB11_00NtNtCs7b6pIPUuCtr_2pb2c225ReportProcessListResponseEB5_
FN:337,_RINvMNtCshYyER8Nev1x_4imix5agentNtB3_9ImixAgent8block_onNCINvB2_14with_transportNCNvXs_B3_Bu_NtCs4YvUcAiDkiF_14eldritch_agent5Agent11claim_tasks0NCNCB1i_00NtNtCs7b6pIPUuCtr_2pb2c218ClaimTasksResponseE0B2t_EB5_
FN:337,_RINvMNtCshYyER8Nev1x_4imix5agentNtB3_9ImixAgent8block_onNCINvB2_14with_transportNCNvXs_B3_Bu_NtCs4YvUcAiDkiF_14eldritch_agent5Agent11fetch_asset0NCNCB1i_00INtNtCs456UZznmu7y_5alloc3vec3VechEE0B2t_EB5_
FN:337,_RINvMNtCshYyER8Nev1x_4imix5agentNtB3_9ImixAgent8block_onNCINvB2_14with_transportNCNvXs_B3_Bu_NtCs4YvUcAiDkiF_14eldritch_agent5Agent11report_file0NCNCB1i_00NtNtCs7b6pIPUuCtr_2pb2c218ReportFileResponseE0B2t_EB5_
FN:337,_RINvMNtCshYyER8Nev1x_4imix5agentNtB3_9ImixAgent8block_onNCINvB2_14with_transportNCNvXs_B3_Bu_NtCs4YvUcAiDkiF_14eldritch_agent5Agent17report_credential0NCNCB1i_00NtNtCs7b6pIPUuCtr_2pb2c224ReportCredentialResponseE0B2z_EB5_
FN:337,_RINvMNtCshYyER8Nev1x_4imix5agentNtB3_9ImixAgent8block_onNCINvB2_14with_transportNCNvXs_B3_Bu_NtCs4YvUcAiDkiF_14eldritch_agent5Agent19report_process_list0NCNCB1i_00NtNtCs7b6pIPUuCtr_2pb2c225ReportProcessListResponseE0B2B_EB5_
FN:337,_RINvMNtCshYyER8Nev1x_4imix5agentNtB3_9ImixAgent8block_onNCNvXs_B3_Bu_NtCs4YvUcAiDkiF_14eldritch_agent5Agent10get_config0NtNtCs7b6pIPUuCtr_2pb6config6ConfigEB5_
FN:337,_RINvMNtCshYyER8Nev1x_4imix5agentNtB3_9ImixAgent8block_onNCNvXs_B3_Bu_NtCs4YvUcAiDkiF_14eldritch_agent5Agent13get_transport0NtNtCs456UZznmu7y_5alloc6string6StringEB5_
FN:337,_RINvMNtCshYyER8Nev1x_4imix5agentNtB3_9ImixAgent8block_onNCNvXs_B3_Bu_NtCs4YvUcAiDkiF_14eldritch_agent5Agent13set_transport0uEB5_
FN:337,_RINvMNtCshYyER8Nev1x_4imix5agentNtB3_9ImixAgent8block_onNCNvXs_B3_Bu_NtCs4YvUcAiDkiF_14eldritch_agent5Agent15list_transports0INtNtCs456UZznmu7y_5alloc3vec3VecNtNtB24_6string6StringEEB5_
FN:337,_RINvMNtCshYyER8Nev1x_4imix5agentNtB3_9ImixAgent8block_onNCNvXs_B3_Bu_NtCs4YvUcAiDkiF_14eldritch_agent5Agent16add_callback_uri0uEB5_
FN:337,_RINvMNtCshYyER8Nev1x_4imix5agentNtB3_9ImixAgent8block_onNCNvXs_B3_Bu_NtCs4YvUcAiDkiF_14eldritch_agent5Agent16set_callback_uri0uEB5_
FN:337,_RINvMNtCshYyER8Nev1x_4imix5agentNtB3_9ImixAgent8block_onNCNvXs_B3_Bu_NtCs4YvUcAiDkiF_14eldritch_agent5Agent18list_callback_uris0INtNtNtNtCs456UZznmu7y_5alloc11collections5btree3set8BTreeSetNtNtB2b_6string6StringEEB5_
FN:337,_RINvMNtCshYyER8Nev1x_4imix5agentNtB3_9ImixAgent8block_onNCNvXs_B3_Bu_NtCs4YvUcAiDkiF_14eldritch_agent5Agent19remove_callback_uri0uEB5_
FN:337,_RINvMNtCshYyER8Nev1x_4imix5agentNtB3_9ImixAgent8block_onNCNvXs_B3_Bu_NtCs4YvUcAiDkiF_14eldritch_agent5Agent21get_next_callback_uri0NtNtCs456UZznmu7y_5alloc6string6StringEB5_
FN:337,_RINvMNtCshYyER8Nev1x_4imix5agentNtB3_9ImixAgent8block_onNCNvXs_B3_Bu_NtCs4YvUcAiDkiF_14eldritch_agent5Agent21set_callback_interval0uEB5_
FN:337,_RINvMNtCshYyER8Nev1x_4imix5agentNtB3_9ImixAgent8block_onNCNvXs_B3_Bu_NtCs4YvUcAiDkiF_14eldritch_agent5Agent23get_active_callback_uri0NtNtCs456UZznmu7y_5alloc6string6StringEB5_
FN:368,_RNCINvMNtCshYyER8Nev1x_4imix5agentNtB5_9ImixAgent13spawn_subtaskNCNvXs_B5_Bw_NtCs4YvUcAiDkiF_14eldritch_agent5Agent13create_portal0NCNCB12_00E0B7_
FN:368,_RNCINvMNtCshYyER8Nev1x_4imix5agentNtB5_9ImixAgent13spawn_subtaskNCNvXs_B5_Bw_NtCs4YvUcAiDkiF_14eldritch_agent5Agent19start_reverse_shell0NCNCB12_00E0B7_
FN:368,_RNCINvMNtCshYyER8Nev1x_4imix5agentNtB5_9ImixAgent13spawn_subtaskNCNvXs_B5_Bw_NtCs4YvUcAiDkiF_14eldritch_agent5Agent24start_repl_reverse_shell0NCNCB12_00E0B7_
FN:350,_RNCINvMNtCshYyER8Nev1x_4imix5agentNtB5_9ImixAgent14with_transportNCNvXs_B5_Bw_NtCs4YvUcAiDkiF_14eldritch_agent5Agent11claim_tasks0NCNCB13_00NtNtCs7b6pIPUuCtr_2pb2c218ClaimTasksResponseE0B7_
FN:350,_RNCINvMNtCshYyER8Nev1x_4imix5agentNtB5_9ImixAgent14with_transportNCNvXs_B5_Bw_NtCs4YvUcAiDkiF_14eldritch_agent5Agent11fetch_asset0NCNCB13_00INtNtCs456UZznmu7y_5alloc3vec3VechEE0B7_
FN:350,_RNCINvMNtCshYyER8Nev1x_4imix5agentNtB5_9ImixAgent14with_transportNCNvXs_B5_Bw_NtCs4YvUcAiDkiF_14eldritch_agent5Agent11report_file0NCNCB13_00NtNtCs7b6pIPUuCtr_2pb2c218ReportFileResponseE0B7_
FN:350,_RNCINvMNtCshYyER8Nev1x_4imix5agentNtB5_9ImixAgent14with_transportNCNvXs_B5_Bw_NtCs4YvUcAiDkiF_14eldritch_agent5Agent17report_credential0NCNCB13_00NtNtCs7b6pIPUuCtr_2pb2c224ReportCredentialResponseE0B7_
FN:350,_RNCINvMNtCshYyER8Nev1x_4imix5agentNtB5_9ImixAgent14with_transportNCNvXs_B5_Bw_NtCs4YvUcAiDkiF_14eldritch_agent5Agent19report_process_list0NCNCB13_00NtNtCs7b6pIPUuCtr_2pb2c225ReportProcessListResponseE0B7_
FN:354,_RNCNCINvMNtCshYyER8Nev1x_4imix5agentNtB7_9ImixAgent14with_transportNCNvXs_B7_By_NtCs4YvUcAiDkiF_14eldritch_agent5Agent11claim_tasks0NCNCB15_00NtNtCs7b6pIPUuCtr_2pb2c218ClaimTasksResponseE00B9_
FN:355,_RNCNCINvMNtCshYyER8Nev1x_4imix5agentNtB7_9ImixAgent14with_transportNCNvXs_B7_By_NtCs4YvUcAiDkiF_14eldritch_agent5Agent11claim_tasks0NCNCB15_00NtNtCs7b6pIPUuCtr_2pb2c218ClaimTasksResponseE0s_0B9_
FN:354,_RNCNCINvMNtCshYyER8Nev1x_4imix5agentNtB7_9ImixAgent14with_transportNCNvXs_B7_By_NtCs4YvUcAiDkiF_14eldritch_agent5Agent11fetch_asset0NCNCB15_00INtNtCs456UZznmu7y_5alloc3vec3VechEE00B9_
FN:355,_RNCNCINvMNtCshYyER8Nev1x_4imix5agentNtB7_9ImixAgent14with_transportNCNvXs_B7_By_NtCs4YvUcAiDkiF_14eldritch_agent5Agent11fetch_asset0NCNCB15_00INtNtCs456UZznmu7y_5alloc3vec3VechEE0s_0B9_
FN:354,_RNCNCINvMNtCshYyER8Nev1x_4imix5agentNtB7_9ImixAgent14with_transportNCNvXs_B7_By_NtCs4YvUcAiDkiF_14eldritch_agent5Agent11report_file0NCNCB15_00NtNtCs7b6pIPUuCtr_2pb2c218ReportFileResponseE00B9_
FN:355,_RNCNCINvMNtCshYyER8Nev1x_4imix5agentNtB7_9ImixAgent14with_transportNCNvXs_B7_By_NtCs4YvUcAiDkiF_14eldritch_agent5Agent11report_file0NCNCB15_00NtNtCs7b6pIPUuCtr_2pb2c218ReportFileResponseE0s_0B9_
FN:354,_RNCNCINvMNtCshYyER8Nev1x_4imix5agentNtB7_9ImixAgent14with_transportNCNvXs_B7_By_NtCs4YvUcAiDkiF_14eldritch_agent5Agent17report_credential0NCNCB15_00NtNtCs7b6pIPUuCtr_2pb2c224ReportCredentialResponseE00B9_
FN:355,_RNCNCINvMNtCshYyER8Nev1x_4imix5agentNtB7_9ImixAgent14with_transportNCNvXs_B7_By_NtCs4YvUcAiDkiF_14eldritch_agent5Agent17report_credential0NCNCB15_00NtNtCs7b6pIPUuCtr_2pb2c224ReportCredentialResponseE0s_0B9_
FN:354,_RNCNCINvMNtCshYyER8Nev1x_4imix5agentNtB7_9ImixAgent14with_transportNCNvXs_B7_By_NtCs4YvUcAiDkiF_14eldritch_agent5Agent19report_process_list0NCNCB15_00NtNtCs7b6pIPUuCtr_2pb2c225ReportProcessListResponseE00B9_
FN:355,_RNCNCINvMNtCshYyER8Nev1x_4imix5agentNtB7_9ImixAgent14with_transportNCNvXs_B7_By_NtCs4YvUcAiDkiF_14eldritch_agent5Agent19report_process_list0NCNCB15_00NtNtCs7b6pIPUuCtr_2pb2c225ReportProcessListResponseE0s_0B9_
FN:675,_RNCNCNCNvXs_NtCshYyER8Nev1x_4imix5agentNtBa_9ImixAgentNtCs4YvUcAiDkiF_14eldritch_agent5Agent18list_callback_uris0s_00Bc_
FN:691,_RNCNCNCNvXs_NtCshYyER8Nev1x_4imix5agentNtBa_9ImixAgentNtCs4YvUcAiDkiF_14eldritch_agent5Agent23get_active_callback_uri0s_00Bc_
FN:473,_RNCNCNvXs_NtCshYyER8Nev1x_4imix5agentNtB8_9ImixAgentNtCs4YvUcAiDkiF_14eldritch_agent5Agent11claim_tasks00Ba_
FN:395,_RNCNCNvXs_NtCshYyER8Nev1x_4imix5agentNtB8_9ImixAgentNtCs4YvUcAiDkiF_14eldritch_agent5Agent11fetch_asset00Ba_
FN:419,_RNCNCNvXs_NtCshYyER8Nev1x_4imix5agentNtB8_9ImixAgentNtCs4YvUcAiDkiF_14eldritch_agent5Agent11report_file00Ba_
FN:456,_RNCNCNvXs_NtCshYyER8Nev1x_4imix5agentNtB8_9ImixAgentNtCs4YvUcAiDkiF_14eldritch_agent5Agent13create_portal00Ba_
FN:552,_RNCNCNvXs_NtCshYyER8Nev1x_4imix5agentNtB8_9ImixAgentNtCs4YvUcAiDkiF_14eldritch_agent5Agent13get_transport00Ba_
FN:724,_RNCNCNvXs_NtCshYyER8Nev1x_4imix5agentNtB8_9ImixAgentNtCs4YvUcAiDkiF_14eldritch_agent5Agent16add_callback_uri00Ba_
FN:731,_RNCNCNvXs_NtCshYyER8Nev1x_4imix5agentNtB8_9ImixAgentNtCs4YvUcAiDkiF_14eldritch_agent5Agent16add_callback_uri0s_0Ba_
FN:636,_RNCNCNvXs_NtCshYyER8Nev1x_4imix5agentNtB8_9ImixAgentNtCs4YvUcAiDkiF_14eldritch_agent5Agent16set_callback_uri00Ba_
FN:646,_RNCNCNvXs_NtCshYyER8Nev1x_4imix5agentNtB8_9ImixAgentNtCs4YvUcAiDkiF_14eldritch_agent5Agent16set_callback_uri0s_0Ba_
FN:412,_RNCNCNvXs_NtCshYyER8Nev1x_4imix5agentNtB8_9ImixAgentNtCs4YvUcAiDkiF_14eldritch_agent5Agent17report_credential00Ba_
FN:674,_RNCNCNvXs_NtCshYyER8Nev1x_4imix5agentNtB8_9ImixAgentNtCs4YvUcAiDkiF_14eldritch_agent5Agent18list_callback_uris00Ba_
FN:675,_RNCNCNvXs_NtCshYyER8Nev1x_4imix5agentNtB8_9ImixAgentNtCs4YvUcAiDkiF_14eldritch_agent5Agent18list_callback_uris0s_0Ba_
FN:760,_RNCNCNvXs_NtCshYyER8Nev1x_4imix5agentNtB8_9ImixAgentNtCs4YvUcAiDkiF_14eldritch_agent5Agent19remove_callback_uri00Ba_
FN:426,_RNCNCNvXs_NtCshYyER8Nev1x_4imix5agentNtB8_9ImixAgentNtCs4YvUcAiDkiF_14eldritch_agent5Agent19report_process_list00Ba_
FN:445,_RNCNCNvXs_NtCshYyER8Nev1x_4imix5agentNtB8_9ImixAgentNtCs4YvUcAiDkiF_14eldritch_agent5Agent19start_reverse_shell00Ba_
FN:703,_RNCNCNvXs_NtCshYyER8Nev1x_4imix5agentNtB8_9ImixAgentNtCs4YvUcAiDkiF_14eldritch_agent5Agent21get_next_callback_uri00Ba_
FN:712,_RNCNCNvXs_NtCshYyER8Nev1x_4imix5agentNtB8_9ImixAgentNtCs4YvUcAiDkiF_14eldritch_agent5Agent21get_next_callback_uri0s0_0Ba_
FN:713,_RNCNCNvXs_NtCshYyER8Nev1x_4imix5agentNtB8_9ImixAgentNtCs4YvUcAiDkiF_14eldritch_agent5Agent21get_next_callback_uri0s1_0Ba_
FN:704,_RNCNCNvXs_NtCshYyER8Nev1x_4imix5agentNtB8_9ImixAgentNtCs4YvUcAiDkiF_14eldritch_agent5Agent21get_next_callback_uri0s_0Ba_
FN:686,_RNCNCNvXs_NtCshYyER8Nev1x_4imix5agentNtB8_9ImixAgentNtCs4YvUcAiDkiF_14eldritch_agent5Agent23get_active_callback_uri00Ba_
FN:693,_RNCNCNvXs_NtCshYyER8Nev1x_4imix5agentNtB8_9ImixAgentNtCs4YvUcAiDkiF_14eldritch_agent5Agent23get_active_callback_uri0s0_0Ba_
FN:694,_RNCNCNvXs_NtCshYyER8Nev1x_4imix5agentNtB8_9ImixAgentNtCs4YvUcAiDkiF_14eldritch_agent5Agent23get_active_callback_uri0s1_0Ba_
FN:687,_RNCNCNvXs_NtCshYyER8Nev1x_4imix5agentNtB8_9ImixAgentNtCs4YvUcAiDkiF_14eldritch_agent5Agent23get_active_callback_uri0s_0Ba_
FN:467,_RNCNCNvXs_NtCshYyER8Nev1x_4imix5agentNtB8_9ImixAgentNtCs4YvUcAiDkiF_14eldritch_agent5Agent24start_repl_reverse_shell00Ba_
FN:118,_RNCNvMNtCshYyER8Nev1x_4imix5agentNtB4_9ImixAgent10refresh_ip0B6_
FN:290,_RNCNvMNtCshYyER8Nev1x_4imix5agentNtB4_9ImixAgent11claim_tasks0B6_
FN:130,_RNCNvMNtCshYyER8Nev1x_4imix5agentNtB4_9ImixAgent13flush_outputs0B6_
FN:124,_RNCNvMNtCshYyER8Nev1x_4imix5agentNtB4_9ImixAgent16update_transport0B6_
FN:95,_RNCNvMNtCshYyER8Nev1x_4imix5agentNtB4_9ImixAgent19get_callback_jitter0B6_
FN:104,_RNCNvMNtCshYyER8Nev1x_4imix5agentNtB4_9ImixAgent19get_callback_jitters0_0B6_
FN:110,_RNCNvMNtCshYyER8Nev1x_4imix5agentNtB4_9ImixAgent19get_callback_jitters1_0B6_
FN:111,_RNCNvMNtCshYyER8Nev1x_4imix5agentNtB4_9ImixAgent19get_callback_jitters2_0B6_
FN:99,_RNCNvMNtCshYyER8Nev1x_4imix5agentNtB4_9ImixAgent19get_callback_jitters_0B6_
FN:303,_RNCNvMNtCshYyER8Nev1x_4imix5agentNtB4_9ImixAgent19process_job_request0B6_
FN:253,_RNCNvMNtCshYyER8Nev1x_4imix5agentNtB4_9ImixAgent19rotate_callback_uri0B6_
FN:248,_RNCNvMNtCshYyER8Nev1x_4imix5agentNtB4_9ImixAgent20get_transport_config0B6_
FN:269,_RNCNvMNtCshYyER8Nev1x_4imix5agentNtB4_9ImixAgent20get_usable_transport0B6_
FN:68,_RNCNvMNtCshYyER8Nev1x_4imix5agentNtB4_9ImixAgent25get_callback_interval_u640B6_
FN:77,_RNCNvMNtCshYyER8Nev1x_4imix5agentNtB4_9ImixAgent25get_callback_interval_u64s0_0B6_
FN:83,_RNCNvMNtCshYyER8Nev1x_4imix5agentNtB4_9ImixAgent25get_callback_interval_u64s1_0B6_
FN:84,_RNCNvMNtCshYyER8Nev1x_4imix5agentNtB4_9ImixAgent25get_callback_interval_u64s2_0B6_
FN:72,_RNCNvMNtCshYyER8Nev1x_4imix5agentNtB4_9ImixAgent25get_callback_interval_u64s_0B6_
FN:480,_RNCNvXs_NtCshYyER8Nev1x_4imix5agentNtB6_9ImixAgentNtCs4YvUcAiDkiF_14eldritch_agent5Agent10get_config0B8_
FN:489,_RNCNvXs_NtCshYyER8Nev1x_4imix5agentNtB6_9ImixAgentNtCs4YvUcAiDkiF_14eldritch_agent5Agent10get_configs0_0B8_
FN:491,_RNCNvXs_NtCshYyER8Nev1x_4imix5agentNtB6_9ImixAgentNtCs4YvUcAiDkiF_14eldritch_agent5Agent10get_configs1_0B8_
FN:497,_RNCNvXs_NtCshYyER8Nev1x_4imix5agentNtB6_9ImixAgentNtCs4YvUcAiDkiF_14eldritch_agent5Agent10get_configs2_0B8_
FN:499,_RNCNvXs_NtCshYyER8Nev1x_4imix5agentNtB6_9ImixAgentNtCs4YvUcAiDkiF_14eldritch_agent5Agent10get_configs3_0B8_
FN:473,_RNCNvXs_NtCshYyER8Nev1x_4imix5agentNtB6_9ImixAgentNtCs4YvUcAiDkiF_14eldritch_agent5Agent11claim_tasks0B8_
FN:405,_RNCNvXs_NtCshYyER8Nev1x_4imix5agentNtB6_9ImixAgentNtCs4YvUcAiDkiF_14eldritch_agent5Agent11fetch_asset0B8_
FN:419,_RNCNvXs_NtCshYyER8Nev1x_4imix5agentNtB6_9ImixAgentNtCs4YvUcAiDkiF_14eldritch_agent5Agent11report_file0B8_
FN:458,_RNCNvXs_NtCshYyER8Nev1x_4imix5agentNtB6_9ImixAgentNtCs4YvUcAiDkiF_14eldritch_agent5Agent13create_portal0B8_
FN:548,_RNCNvXs_NtCshYyER8Nev1x_4imix5agentNtB6_9ImixAgentNtCs4YvUcAiDkiF_14eldritch_agent5Agent13get_transport0B8_
FN:436,_RNCNvXs_NtCshYyER8Nev1x_4imix5agentNtB6_9ImixAgentNtCs4YvUcAiDkiF_14eldritch_agent5Agent13report_output0B8_
FN:564,_RNCNvXs_NtCshYyER8Nev1x_4imix5agentNtB6_9ImixAgentNtCs4YvUcAiDkiF_14eldritch_agent5Agent13set_transport0B8_
FN:600,_RNCNvXs_NtCshYyER8Nev1x_4imix5agentNtB6_9ImixAgentNtCs4YvUcAiDkiF_14eldritch_agent5Agent15list_transports0B8_
FN:718,_RNCNvXs_NtCshYyER8Nev1x_4imix5agentNtB6_9ImixAgentNtCs4YvUcAiDkiF_14eldritch_agent5Agent16add_callback_uri0B8_
FN:627,_RNCNvXs_NtCshYyER8Nev1x_4imix5agentNtB6_9ImixAgentNtCs4YvUcAiDkiF_14eldritch_agent5Agent16set_callback_uri0B8_
FN:412,_RNCNvXs_NtCshYyER8Nev1x_4imix5agentNtB6_9ImixAgentNtCs4YvUcAiDkiF_14eldritch_agent5Agent17report_credential0B8_
FN:669,_RNCNvXs_NtCshYyER8Nev1x_4imix5agentNtB6_9ImixAgentNtCs4YvUcAiDkiF_14eldritch_agent5Agent18list_callback_uris0B8_
FN:753,_RNCNvXs_NtCshYyER8Nev1x_4imix5agentNtB6_9ImixAgentNtCs4YvUcAiDkiF_14eldritch_agent5Agent19remove_callback_uri0B8_
FN:426,_RNCNvXs_NtCshYyER8Nev1x_4imix5agentNtB6_9ImixAgentNtCs4YvUcAiDkiF_14eldritch_agent5Agent19report_process_list0B8_
FN:447,_RNCNvXs_NtCshYyER8Nev1x_4imix5agentNtB6_9ImixAgentNtCs4YvUcAiDkiF_14eldritch_agent5Agent19start_reverse_shell0B8_
FN:604,_RNCNvXs_NtCshYyER8Nev1x_4imix5agentNtB6_9ImixAgentNtCs4YvUcAiDkiF_14eldritch_agent5Agent21get_callback_interval0B8_
FN:699,_RNCNvXs_NtCshYyER8Nev1x_4imix5agentNtB6_9ImixAgentNtCs4YvUcAiDkiF_14eldritch_agent5Agent21get_next_callback_uri0B8_
FN:608,_RNCNvXs_NtCshYyER8Nev1x_4imix5agentNtB6_9ImixAgentNtCs4YvUcAiDkiF_14eldritch_agent5Agent21set_callback_interval0B8_
FN:682,_RNCNvXs_NtCshYyER8Nev1x_4imix5agentNtB6_9ImixAgentNtCs4YvUcAiDkiF_14eldritch_agent5Agent23get_active_callback_uri0B8_
FN:469,_RNCNvXs_NtCshYyER8Nev1x_4imix5agentNtB6_9ImixAgentNtCs4YvUcAiDkiF_14eldritch_agent5Agent24start_repl_reverse_shell0B8_
FN:785,_RNCNvXs_NtCshYyER8Nev1x_4imix5agentNtB6_9ImixAgentNtCs4YvUcAiDkiF_14eldritch_agent5Agent9stop_task0B8_
FN:118,_RNvMNtCshYyER8Nev1x_4imix5agentNtB2_9ImixAgent10refresh_ip
FN:290,_RNvMNtCshYyER8Nev1x_4imix5agentNtB2_9ImixAgent11claim_tasks
FN:130,_RNvMNtCshYyER8Nev1x_4imix5agentNtB2_9ImixAgent13flush_outputs
FN:124,_RNvMNtCshYyER8Nev1x_4imix5agentNtB2_9ImixAgent16update_transport
FN:90,_RNvMNtCshYyER8Nev1x_4imix5agentNtB2_9ImixAgent19get_callback_jitter
FN:303,_RNvMNtCshYyER8Nev1x_4imix5agentNtB2_9ImixAgent19process_job_request
FN:253,_RNvMNtCshYyER8Nev1x_4imix5agentNtB2_9ImixAgent19rotate_callback_uri
FN:59,_RNvMNtCshYyER8Nev1x_4imix5agentNtB2_9ImixAgent19start_shell_manager
FN:248,_RNvMNtCshYyER8Nev1x_4imix5agentNtB2_9ImixAgent20get_transport_config
FN:269,_RNvMNtCshYyER8Nev1x_4imix5agentNtB2_9ImixAgent20get_usable_transport
FN:63,_RNvMNtCshYyER8Nev1x_4imix5agentNtB2_9ImixAgent25get_callback_interval_u64
FN:38,_RNvMNtCshYyER8Nev1x_4imix5agentNtB2_9ImixAgent3new
FN:476,_RNvXs_NtCshYyER8Nev1x_4imix5agentNtB4_9ImixAgentNtCs4YvUcAiDkiF_14eldritch_agent5Agent10get_config
FN:775,_RNvXs_NtCshYyER8Nev1x_4imix5agentNtB4_9ImixAgentNtCs4YvUcAiDkiF_14eldritch_agent5Agent10list_tasks
FN:472,_RNvXs_NtCshYyER8Nev1x_4imix5agentNtB4_9ImixAgentNtCs4YvUcAiDkiF_14eldritch_agent5Agent11claim_tasks
FN:394,_RNvXs_NtCshYyER8Nev1x_4imix5agentNtB4_9ImixAgentNtCs4YvUcAiDkiF_14eldritch_agent5Agent11fetch_asset
FN:415,_RNvXs_NtCshYyER8Nev1x_4imix5agentNtB4_9ImixAgentNtCs4YvUcAiDkiF_14eldritch_agent5Agent11report_file
FN:450,_RNvXs_NtCshYyER8Nev1x_4imix5agentNtB4_9ImixAgentNtCs4YvUcAiDkiF_14eldritch_agent5Agent13create_portal
FN:546,_RNvXs_NtCshYyER8Nev1x_4imix5agentNtB4_9ImixAgentNtCs4YvUcAiDkiF_14eldritch_agent5Agent13get_transport
FN:429,_RNvXs_NtCshYyER8Nev1x_4imix5agentNtB4_9ImixAgentNtCs4YvUcAiDkiF_14eldritch_agent5Agent13report_output
FN:558,_RNvXs_NtCshYyER8Nev1x_4imix5agentNtB4_9ImixAgentNtCs4YvUcAiDkiF_14eldritch_agent5Agent13set_transport
FN:599,_RNvXs_NtCshYyER8Nev1x_4imix5agentNtB4_9ImixAgentNtCs4YvUcAiDkiF_14eldritch_agent5Agent15list_transports
FN:717,_RNvXs_NtCshYyER8Nev1x_4imix5agentNtB4_9ImixAgentNtCs4YvUcAiDkiF_14eldritch_agent5Agent16add_callback_uri
FN:626,_RNvXs_NtCshYyER8Nev1x_4imix5agentNtB4_9ImixAgentNtCs4YvUcAiDkiF_14eldritch_agent5Agent16set_callback_uri
FN:408,_RNvXs_NtCshYyER8Nev1x_4imix5agentNtB4_9ImixAgentNtCs4YvUcAiDkiF_14eldritch_agent5Agent17report_credential
FN:668,_RNvXs_NtCshYyER8Nev1x_4imix5agentNtB4_9ImixAgentNtCs4YvUcAiDkiF_14eldritch_agent5Agent18list_callback_uris
FN:752,_RNvXs_NtCshYyER8Nev1x_4imix5agentNtB4_9ImixAgentNtCs4YvUcAiDkiF_14eldritch_agent5Agent19remove_callback_uri
FN:422,_RNvXs_NtCshYyER8Nev1x_4imix5agentNtB4_9ImixAgentNtCs4YvUcAiDkiF_14eldritch_agent5Agent19report_process_list
FN:440,_RNvXs_NtCshYyER8Nev1x_4imix5agentNtB4_9ImixAgentNtCs4YvUcAiDkiF_14eldritch_agent5Agent19start_reverse_shell
FN:603,_RNvXs_NtCshYyER8Nev1x_4imix5agentNtB4_9ImixAgentNtCs4YvUcAiDkiF_14eldritch_agent5Agent21get_callback_interval
FN:698,_RNvXs_NtCshYyER8Nev1x_4imix5agentNtB4_9ImixAgentNtCs4YvUcAiDkiF_14eldritch_agent5Agent21get_next_callback_uri
FN:607,_RNvXs_NtCshYyER8Nev1x_4imix5agentNtB4_9ImixAgentNtCs4YvUcAiDkiF_14eldritch_agent5Agent21set_callback_interval
FN:681,_RNvXs_NtCshYyER8Nev1x_4imix5agentNtB4_9ImixAgentNtCs4YvUcAiDkiF_14eldritch_agent5Agent23get_active_callback_uri
FN:461,_RNvXs_NtCshYyER8Nev1x_4imix5agentNtB4_9ImixAgentNtCs4YvUcAiDkiF_14eldritch_agent5Agent24start_repl_reverse_shell
FN:779,_RNvXs_NtCshYyER8Nev1x_4imix5agentNtB4_9ImixAgentNtCs4YvUcAiDkiF_14eldritch_agent5Agent9stop_task
FNDA:0,_RNvMNtCsa7Dhx6HaxLb_4imix5agentNtB2_9ImixAgent10refresh_ip
FNDA:0,_RNvMNtCsa7Dhx6HaxLb_4imix5agentNtB2_9ImixAgent11claim_tasks
FNDA:1,_RNvMNtCsa7Dhx6HaxLb_4imix5agentNtB2_9ImixAgent13flush_outputs
FNDA:0,_RNvMNtCsa7Dhx6HaxLb_4imix5agentNtB2_9ImixAgent16update_transport
FNDA:0,_RNvMNtCsa7Dhx6HaxLb_4imix5agentNtB2_9ImixAgent19get_callback_jitter
FNDA:0,_RNvMNtCsa7Dhx6HaxLb_4imix5agentNtB2_9ImixAgent19process_job_request
FNDA:0,_RNvMNtCsa7Dhx6HaxLb_4imix5agentNtB2_9ImixAgent19rotate_callback_uri
FNDA:0,_RNvMNtCsa7Dhx6HaxLb_4imix5agentNtB2_9ImixAgent19start_shell_manager
FNDA:0,_RNvMNtCsa7Dhx6HaxLb_4imix5agentNtB2_9ImixAgent20get_transport_config
FNDA:0,_RNvMNtCsa7Dhx6HaxLb_4imix5agentNtB2_9ImixAgent20get_usable_transport
FNDA:0,_RNvMNtCsa7Dhx6HaxLb_4imix5agentNtB2_9ImixAgent25get_callback_interval_u64
FNDA:1,_RNvMNtCsa7Dhx6HaxLb_4imix5agentNtB2_9ImixAgent3new
FNDA:0,_RNvXs_NtCsa7Dhx6HaxLb_4imix5agentNtB4_9ImixAgentNtCs4YvUcAiDkiF_14eldritch_agent5Agent10get_config
FNDA:0,_RNvXs_NtCsa7Dhx6HaxLb_4imix5agentNtB4_9ImixAgentNtCs4YvUcAiDkiF_14eldritch_agent5Agent10list_tasks
FNDA:0,_RNvXs_NtCsa7Dhx6HaxLb_4imix5agentNtB4_9ImixAgentNtCs4YvUcAiDkiF_14eldritch_agent5Agent11claim_tasks
FNDA:0,_RNvXs_NtCsa7Dhx6HaxLb_4imix5agentNtB4_9ImixAgentNtCs4YvUcAiDkiF_14eldritch_agent5Agent11fetch_asset
FNDA:0,_RNvXs_NtCsa7Dhx6HaxLb_4imix5agentNtB4_9ImixAgentNtCs4YvUcAiDkiF_14eldritch_agent5Agent11report_file
FNDA:0,_RNvXs_NtCsa7Dhx6HaxLb_4imix5agentNtB4_9ImixAgentNtCs4YvUcAiDkiF_14eldritch_agent5Agent13create_portal
FNDA:0,_RNvXs_NtCsa7Dhx6HaxLb_4imix5agentNtB4_9ImixAgentNtCs4YvUcAiDkiF_14eldritch_agent5Agent13get_transport
FNDA:1,_RNvXs_NtCsa7Dhx6HaxLb_4imix5agentNtB4_9ImixAgentNtCs4YvUcAiDkiF_14eldritch_agent5Agent13report_output
FNDA:0,_RNvXs_NtCsa7Dhx6HaxLb_4imix5agentNtB4_9ImixAgentNtCs4YvUcAiDkiF_14eldritch_agent5Agent13set_transport
FNDA:0,_RNvXs_NtCsa7Dhx6HaxLb_4imix5agentNtB4_9ImixAgentNtCs4YvUcAiDkiF_14eldritch_agent5Agent15list_transports
FNDA:0,_RNvXs_NtCsa7Dhx6HaxLb_4imix5agentNtB4_9ImixAgentNtCs4YvUcAiDkiF_14eldritch_agent5Agent16add_callback_uri
FNDA:0,_RNvXs_NtCsa7Dhx6HaxLb_4imix5agentNtB4_9ImixAgentNtCs4YvUcAiDkiF_14eldritch_agent5Agent16set_callback_uri
FNDA:0,_RNvXs_NtCsa7Dhx6HaxLb_4imix5agentNtB4_9ImixAgentNtCs4YvUcAiDkiF_14eldritch_agent5Agent17report_credential
FNDA:0,_RNvXs_NtCsa7Dhx6HaxLb_4imix5agentNtB4_9ImixAgentNtCs4YvUcAiDkiF_14eldritch_agent5Agent18list_callback_uris
FNDA:0,_RNvXs_NtCsa7Dhx6HaxLb_4imix5agentNtB4_9ImixAgentNtCs4YvUcAiDkiF_14eldritch_agent5Agent19remove_callback_uri
FNDA:0,_RNvXs_NtCsa7Dhx6HaxLb_4imix5agentNtB4_9ImixAgentNtCs4YvUcAiDkiF_14eldritch_agent5Agent19report_process_list
FNDA:0,_RNvXs_NtCsa7Dhx6HaxLb_4imix5agentNtB4_9ImixAgentNtCs4YvUcAiDkiF_14eldritch_agent5Agent19start_reverse_shell
FNDA:0,_RNvXs_NtCsa7Dhx6HaxLb_4imix5agentNtB4_9ImixAgentNtCs4YvUcAiDkiF_14eldritch_agent5Agent21get_callback_interval
FNDA:0,_RNvXs_NtCsa7Dhx6HaxLb_4imix5agentNtB4_9ImixAgentNtCs4YvUcAiDkiF_14eldritch_agent5Agent21get_next_callback_uri
FNDA:0,_RNvXs_NtCsa7Dhx6HaxLb_4imix5agentNtB4_9ImixAgentNtCs4YvUcAiDkiF_14eldritch_agent5Agent21set_callback_interval
FNDA:0,_RNvXs_NtCsa7Dhx6HaxLb_4imix5agentNtB4_9ImixAgentNtCs4YvUcAiDkiF_14eldritch_agent5Agent23get_active_callback_uri
FNDA:0,_RNvXs_NtCsa7Dhx6HaxLb_4imix5agentNtB4_9ImixAgentNtCs4YvUcAiDkiF_14eldritch_agent5Agent24start_repl_reverse_shell
FNDA:0,_RNvXs_NtCsa7Dhx6HaxLb_4imix5agentNtB4_9ImixAgentNtCs4YvUcAiDkiF_14eldritch_agent5Agent9stop_task
FNDA:0,_RINvMNtCsa7Dhx6HaxLb_4imix5agentNtB3_9ImixAgent13spawn_subtaskNCNvXs_B3_Bu_NtCs4YvUcAiDkiF_14eldritch_agent5Agent13create_portal0NCNCB10_00EB5_
FNDA:0,_RINvMNtCsa7Dhx6HaxLb_4imix5agentNtB3_9ImixAgent13spawn_subtaskNCNvXs_B3_Bu_NtCs4YvUcAiDkiF_14eldritch_agent5Agent19start_reverse_shell0NCNCB10_00EB5_
FNDA:0,_RINvMNtCsa7Dhx6HaxLb_4imix5agentNtB3_9ImixAgent13spawn_subtaskNCNvXs_B3_Bu_NtCs4YvUcAiDkiF_14eldritch_agent5Agent24start_repl_reverse_shell0NCNCB10_00EB5_
FNDA:0,_RINvMNtCsa7Dhx6HaxLb_4imix5agentNtB3_9ImixAgent14with_transportNCNvXs_B3_Bu_NtCs4YvUcAiDkiF_14eldritch_agent5Agent11claim_tasks0NCNCB11_00NtNtCs7b6pIPUuCtr_2pb2c218ClaimTasksResponseEB5_
FNDA:0,_RINvMNtCsa7Dhx6HaxLb_4imix5agentNtB3_9ImixAgent14with_transportNCNvXs_B3_Bu_NtCs4YvUcAiDkiF_14eldritch_agent5Agent11fetch_asset0NCNCB11_00INtNtCs456UZznmu7y_5alloc3vec3VechEEB5_
FNDA:0,_RINvMNtCsa7Dhx6HaxLb_4imix5agentNtB3_9ImixAgent14with_transportNCNvXs_B3_Bu_NtCs4YvUcAiDkiF_14eldritch_agent5Agent11report_file0NCNCB11_00NtNtCs7b6pIPUuCtr_2pb2c218ReportFileResponseEB5_
FNDA:0,_RINvMNtCsa7Dhx6HaxLb_4imix5agentNtB3_9ImixAgent14with_transportNCNvXs_B3_Bu_NtCs4YvUcAiDkiF_14eldritch_agent5Agent17report_credential0NCNCB11_00NtNtCs7b6pIPUuCtr_2pb2c224ReportCredentialResponseEB5_
FNDA:0,_RINvMNtCsa7Dhx6HaxLb_4imix5agentNtB3_9ImixAgent14with_transportNCNvXs_B3_Bu_NtCs4YvUcAiDkiF_14eldritch_agent5Agent19report_process_list0NCNCB11_00NtNtCs7b6pIPUuCtr_2pb2c225ReportProcessListResponseEB5_
FNDA:0,_RINvMNtCsa7Dhx6HaxLb_4imix5agentNtB3_9ImixAgent8block_onNCINvB2_14with_transportNCNvXs_B3_Bu_NtCs4YvUcAiDkiF_14eldritch_agent5Agent11claim_tasks0NCNCB1i_00NtNtCs7b6pIPUuCtr_2pb2c218ClaimTasksResponseE0B2t_EB5_
FNDA:0,_RINvMNtCsa7Dhx6HaxLb_4imix5agentNtB3_9ImixAgent8block_onNCINvB2_14with_transportNCNvXs_B3_Bu_NtCs4YvUcAiDkiF_14eldritch_agent5Agent11fetch_asset0NCNCB1i_00INtNtCs456UZznmu7y_5alloc3vec3VechEE0B2t_EB5_
FNDA:0,_RINvMNtCsa7Dhx6HaxLb_4imix5agentNtB3_9ImixAgent8block_onNCINvB2_14with_transportNCNvXs_B3_Bu_NtCs4YvUcAiDkiF_14eldritch_agent5Agent11report_file0NCNCB1i_00NtNtCs7b6pIPUuCtr_2pb2c218ReportFileResponseE0B2t_EB5_
FNDA:0,_RINvMNtCsa7Dhx6HaxLb_4imix5agentNtB3_9ImixAgent8block_onNCINvB2_14with_transportNCNvXs_B3_Bu_NtCs4YvUcAiDkiF_14eldritch_agent5Agent17report_credential0NCNCB1i_00NtNtCs7b6pIPUuCtr_2pb2c224ReportCredentialResponseE0B2z_EB5_
FNDA:0,_RINvMNtCsa7Dhx6HaxLb_4imix5agentNtB3_9ImixAgent8block_onNCINvB2_14with_transportNCNvXs_B3_Bu_NtCs4YvUcAiDkiF_14eldritch_agent5Agent19report_process_list0NCNCB1i_00NtNtCs7b6pIPUuCtr_2pb2c225ReportProcessListResponseE0B2B_EB5_
FNDA:0,_RINvMNtCsa7Dhx6HaxLb_4imix5agentNtB3_9ImixAgent8block_onNCNvXs_B3_Bu_NtCs4YvUcAiDkiF_14eldritch_agent5Agent10get_config0NtNtCs7b6pIPUuCtr_2pb6config6ConfigEB5_
FNDA:0,_RINvMNtCsa7Dhx6HaxLb_4imix5agentNtB3_9ImixAgent8block_onNCNvXs_B3_Bu_NtCs4YvUcAiDkiF_14eldritch_agent5Agent13get_transport0NtNtCs456UZznmu7y_5alloc6string6StringEB5_
FNDA:0,_RINvMNtCsa7Dhx6HaxLb_4imix5agentNtB3_9ImixAgent8block_onNCNvXs_B3_Bu_NtCs4YvUcAiDkiF_14eldritch_agent5Agent13set_transport0uEB5_
FNDA:0,_RINvMNtCsa7Dhx6HaxLb_4imix5agentNtB3_9ImixAgent8block_onNCNvXs_B3_Bu_NtCs4YvUcAiDkiF_14eldritch_agent5Agent15list_transports0INtNtCs456UZznmu7y_5alloc3vec3VecNtNtB24_6string6StringEEB5_
FNDA:0,_RINvMNtCsa7Dhx6HaxLb_4imix5agentNtB3_9ImixAgent8block_onNCNvXs_B3_Bu_NtCs4YvUcAiDkiF_14eldritch_agent5Agent16add_callback_uri0uEB5_
FNDA:0,_RINvMNtCsa7Dhx6HaxLb_4imix5agentNtB3_9ImixAgent8block_onNCNvXs_B3_Bu_NtCs4YvUcAiDkiF_14eldritch_agent5Agent16set_callback_uri0uEB5_
FNDA:0,_RINvMNtCsa7Dhx6HaxLb_4imix5agentNtB3_9ImixAgent8block_onNCNvXs_B3_Bu_NtCs4YvUcAiDkiF_14eldritch_agent5Agent18list_callback_uris0INtNtNtNtCs456UZznmu7y_5alloc11collections5btree3set8BTreeSetNtNtB2b_6string6StringEEB5_
FNDA:0,_RINvMNtCsa7Dhx6HaxLb_4imix5agentNtB3_9ImixAgent8block_onNCNvXs_B3_Bu_NtCs4YvUcAiDkiF_14eldritch_agent5Agent19remove_callback_uri0uEB5_
FNDA:0,_RINvMNtCsa7Dhx6HaxLb_4imix5agentNtB3_9ImixAgent8block_onNCNvXs_B3_Bu_NtCs4YvUcAiDkiF_14eldritch_agent5Agent21get_next_callback_uri0NtNtCs456UZznmu7y_5alloc6string6StringEB5_
FNDA:0,_RINvMNtCsa7Dhx6HaxLb_4imix5agentNtB3_9ImixAgent8block_onNCNvXs_B3_Bu_NtCs4YvUcAiDkiF_14eldritch_agent5Agent21set_callback_interval0uEB5_
FNDA:0,_RINvMNtCsa7Dhx6HaxLb_4imix5agentNtB3_9ImixAgent8block_onNCNvXs_B3_Bu_NtCs4YvUcAiDkiF_14eldritch_agent5Agent23get_active_callback_uri0NtNtCs456UZznmu7y_5alloc6string6StringEB5_
FNDA:0,_RNCINvMNtCsa7Dhx6HaxLb_4imix5agentNtB5_9ImixAgent13spawn_subtaskNCNvXs_B5_Bw_NtCs4YvUcAiDkiF_14eldritch_agent5Agent13create_portal0NCNCB12_00E0B7_
FNDA:0,_RNCINvMNtCsa7Dhx6HaxLb_4imix5agentNtB5_9ImixAgent13spawn_subtaskNCNvXs_B5_Bw_NtCs4YvUcAiDkiF_14eldritch_agent5Agent19start_reverse_shell0NCNCB12_00E0B7_
FNDA:0,_RNCINvMNtCsa7Dhx6HaxLb_4imix5agentNtB5_9ImixAgent13spawn_subtaskNCNvXs_B5_Bw_NtCs4YvUcAiDkiF_14eldritch_agent5Agent24start_repl_reverse_shell0NCNCB12_00E0B7_
FNDA:0,_RNCINvMNtCsa7Dhx6HaxLb_4imix5agentNtB5_9ImixAgent14with_transportNCNvXs_B5_Bw_NtCs4YvUcAiDkiF_14eldritch_agent5Agent11claim_tasks0NCNCB13_00NtNtCs7b6pIPUuCtr_2pb2c218ClaimTasksResponseE0B7_
FNDA:0,_RNCINvMNtCsa7Dhx6HaxLb_4imix5agentNtB5_9ImixAgent14with_transportNCNvXs_B5_Bw_NtCs4YvUcAiDkiF_14eldritch_agent5Agent11fetch_asset0NCNCB13_00INtNtCs456UZznmu7y_5alloc3vec3VechEE0B7_
FNDA:0,_RNCINvMNtCsa7Dhx6HaxLb_4imix5agentNtB5_9ImixAgent14with_transportNCNvXs_B5_Bw_NtCs4YvUcAiDkiF_14eldritch_agent5Agent11report_file0NCNCB13_00NtNtCs7b6pIPUuCtr_2pb2c218ReportFileResponseE0B7_
FNDA:0,_RNCINvMNtCsa7Dhx6HaxLb_4imix5agentNtB5_9ImixAgent14with_transportNCNvXs_B5_Bw_NtCs4YvUcAiDkiF_14eldritch_agent5Agent17report_credential0NCNCB13_00NtNtCs7b6pIPUuCtr_2pb2c224ReportCredentialResponseE0B7_
FNDA:0,_RNCINvMNtCsa7Dhx6HaxLb_4imix5agentNtB5_9ImixAgent14with_transportNCNvXs_B5_Bw_NtCs4YvUcAiDkiF_14eldritch_agent5Agent19report_process_list0NCNCB13_00NtNtCs7b6pIPUuCtr_2pb2c225ReportProcessListResponseE0B7_
FNDA:0,_RNCNCINvMNtCsa7Dhx6HaxLb_4imix5agentNtB7_9ImixAgent14with_transportNCNvXs_B7_By_NtCs4YvUcAiDkiF_14eldritch_agent5Agent11claim_tasks0NCNCB15_00NtNtCs7b6pIPUuCtr_2pb2c218ClaimTasksResponseE00B9_
FNDA:0,_RNCNCINvMNtCsa7Dhx6HaxLb_4imix5agentNtB7_9ImixAgent14with_transportNCNvXs_B7_By_NtCs4YvUcAiDkiF_14eldritch_agent5Agent11claim_tasks0NCNCB15_00NtNtCs7b6pIPUuCtr_2pb2c218ClaimTasksResponseE0s_0B9_
FNDA:0,_RNCNCINvMNtCsa7Dhx6HaxLb_4imix5agentNtB7_9ImixAgent14with_transportNCNvXs_B7_By_NtCs4YvUcAiDkiF_14eldritch_agent5Agent11fetch_asset0NCNCB15_00INtNtCs456UZznmu7y_5alloc3vec3VechEE00B9_
FNDA:0,_RNCNCINvMNtCsa7Dhx6HaxLb_4imix5agentNtB7_9ImixAgent14with_transportNCNvXs_B7_By_NtCs4YvUcAiDkiF_14eldritch_agent5Agent11fetch_asset0NCNCB15_00INtNtCs456UZznmu7y_5alloc3vec3VechEE0s_0B9_
FNDA:0,_RNCNCINvMNtCsa7Dhx6HaxLb_4imix5agentNtB7_9ImixAgent14with_transportNCNvXs_B7_By_NtCs4YvUcAiDkiF_14eldritch_agent5Agent11report_file0NCNCB15_00NtNtCs7b6pIPUuCtr_2pb2c218ReportFileResponseE00B9_
FNDA:0,_RNCNCINvMNtCsa7Dhx6HaxLb_4imix5agentNtB7_9ImixAgent14with_transportNCNvXs_B7_By_NtCs4YvUcAiDkiF_14eldritch_agent5Agent11report_file0NCNCB15_00NtNtCs7b6pIPUuCtr_2pb2c218ReportFileResponseE0s_0B9_
FNDA:0,_RNCNCINvMNtCsa7Dhx6HaxLb_4imix5agentNtB7_9ImixAgent14with_transportNCNvXs_B7_By_NtCs4YvUcAiDkiF_14eldritch_agent5Agent17report_credential0NCNCB15_00NtNtCs7b6pIPUuCtr_2pb2c224ReportCredentialResponseE00B9_
FNDA:0,_RNCNCINvMNtCsa7Dhx6HaxLb_4imix5agentNtB7_9ImixAgent14with_transportNCNvXs_B7_By_NtCs4YvUcAiDkiF_14eldritch_agent5Agent17report_credential0NCNCB15_00NtNtCs7b6pIPUuCtr_2pb2c224ReportCredentialResponseE0s_0B9_
FNDA:0,_RNCNCINvMNtCsa7Dhx6HaxLb_4imix5agentNtB7_9ImixAgent14with_transportNCNvXs_B7_By_NtCs4YvUcAiDkiF_14eldritch_agent5Agent19report_process_list0NCNCB15_00NtNtCs7b6pIPUuCtr_2pb2c225ReportProcessListResponseE00B9_
FNDA:0,_RNCNCINvMNtCsa7Dhx6HaxLb_4imix5agentNtB7_9ImixAgent14with_transportNCNvXs_B7_By_NtCs4YvUcAiDkiF_14eldritch_agent5Agent19report_process_list0NCNCB15_00NtNtCs7b6pIPUuCtr_2pb2c225ReportProcessListResponseE0s_0B9_
FNDA:0,_RNCNCNCNvXs_NtCsa7Dhx6HaxLb_4imix5agentNtBa_9ImixAgentNtCs4YvUcAiDkiF_14eldritch_agent5Agent18list_callback_uris0s_00Bc_
FNDA:0,_RNCNCNCNvXs_NtCsa7Dhx6HaxLb_4imix5agentNtBa_9ImixAgentNtCs4YvUcAiDkiF_14eldritch_agent5Agent23get_active_callback_uri0s_00Bc_
FNDA:0,_RNCNCNvXs_NtCsa7Dhx6HaxLb_4imix5agentNtB8_9ImixAgentNtCs4YvUcAiDkiF_14eldritch_agent5Agent11claim_tasks00Ba_
FNDA:0,_RNCNCNvXs_NtCsa7Dhx6HaxLb_4imix5agentNtB8_9ImixAgentNtCs4YvUcAiDkiF_14eldritch_agent5Agent11fetch_asset00Ba_
FNDA:0,_RNCNCNvXs_NtCsa7Dhx6HaxLb_4imix5agentNtB8_9ImixAgentNtCs4YvUcAiDkiF_14eldritch_agent5Agent11report_file00Ba_
FNDA:0,_RNCNCNvXs_NtCsa7Dhx6HaxLb_4imix5agentNtB8_9ImixAgentNtCs4YvUcAiDkiF_14eldritch_agent5Agent13create_portal00Ba_
FNDA:0,_RNCNCNvXs_NtCsa7Dhx6HaxLb_4imix5agentNtB8_9ImixAgentNtCs4YvUcAiDkiF_14eldritch_agent5Agent13get_transport00Ba_
FNDA:0,_RNCNCNvXs_NtCsa7Dhx6HaxLb_4imix5agentNtB8_9ImixAgentNtCs4YvUcAiDkiF_14eldritch_agent5Agent16add_callback_uri00Ba_
FNDA:0,_RNCNCNvXs_NtCsa7Dhx6HaxLb_4imix5agentNtB8_9ImixAgentNtCs4YvUcAiDkiF_14eldritch_agent5Agent16add_callback_uri0s_0Ba_
FNDA:0,_RNCNCNvXs_NtCsa7Dhx6HaxLb_4imix5agentNtB8_9ImixAgentNtCs4YvUcAiDkiF_14eldritch_agent5Agent16set_callback_uri00Ba_
FNDA:0,_RNCNCNvXs_NtCsa7Dhx6HaxLb_4imix5agentNtB8_9ImixAgentNtCs4YvUcAiDkiF_14eldritch_agent5Agent16set_callback_uri0s_0Ba_
FNDA:0,_RNCNCNvXs_NtCsa7Dhx6HaxLb_4imix5agentNtB8_9ImixAgentNtCs4YvUcAiDkiF_14eldritch_agent5Agent17report_credential00Ba_
FNDA:0,_RNCNCNvXs_NtCsa7Dhx6HaxLb_4imix5agentNtB8_9ImixAgentNtCs4YvUcAiDkiF_14eldritch_agent5Agent18list_callback_uris00Ba_
FNDA:0,_RNCNCNvXs_NtCsa7Dhx6HaxLb_4imix5agentNtB8_9ImixAgentNtCs4YvUcAiDkiF_14eldritch_agent5Agent18list_callback_uris0s_0Ba_
FNDA:0,_RNCNCNvXs_NtCsa7Dhx6HaxLb_4imix5agentNtB8_9ImixAgentNtCs4YvUcAiDkiF_14eldritch_agent5Agent19remove_callback_uri00Ba_
FNDA:0,_RNCNCNvXs_NtCsa7Dhx6HaxLb_4imix5agentNtB8_9ImixAgentNtCs4YvUcAiDkiF_14eldritch_agent5Agent19report_process_list00Ba_
FNDA:0,_RNCNCNvXs_NtCsa7Dhx6HaxLb_4imix5agentNtB8_9ImixAgentNtCs4YvUcAiDkiF_14eldritch_agent5Agent19start_reverse_shell00Ba_
FNDA:0,_RNCNCNvXs_NtCsa7Dhx6HaxLb_4imix5agentNtB8_9ImixAgentNtCs4YvUcAiDkiF_14eldritch_agent5Agent21get_next_callback_uri00Ba_
FNDA:0,_RNCNCNvXs_NtCsa7Dhx6HaxLb_4imix5agentNtB8_9ImixAgentNtCs4YvUcAiDkiF_14eldritch_agent5Agent21get_next_callback_uri0s0_0Ba_
FNDA:0,_RNCNCNvXs_NtCsa7Dhx6HaxLb_4imix5agentNtB8_9ImixAgentNtCs4YvUcAiDkiF_14eldritch_agent5Agent21get_next_callback_uri0s1_0Ba_
FNDA:0,_RNCNCNvXs_NtCsa7Dhx6HaxLb_4imix5agentNtB8_9ImixAgentNtCs4YvUcAiDkiF_14eldritch_agent5Agent21get_next_callback_uri0s_0Ba_
FNDA:0,_RNCNCNvXs_NtCsa7Dhx6HaxLb_4imix5agentNtB8_9ImixAgentNtCs4YvUcAiDkiF_14eldritch_agent5Agent23get_active_callback_uri00Ba_
FNDA:0,_RNCNCNvXs_NtCsa7Dhx6HaxLb_4imix5agentNtB8_9ImixAgentNtCs4YvUcAiDkiF_14eldritch_agent5Agent23get_active_callback_uri0s0_0Ba_
FNDA:0,_RNCNCNvXs_NtCsa7Dhx6HaxLb_4imix5agentNtB8_9ImixAgentNtCs4YvUcAiDkiF_14eldritch_agent5Agent23get_active_callback_uri0s1_0Ba_
FNDA:0,_RNCNCNvXs_NtCsa7Dhx6HaxLb_4imix5agentNtB8_9ImixAgentNtCs4YvUcAiDkiF_14eldritch_agent5Agent23get_active_callback_uri0s_0Ba_
FNDA:0,_RNCNCNvXs_NtCsa7Dhx6HaxLb_4imix5agentNtB8_9ImixAgentNtCs4YvUcAiDkiF_14eldritch_agent5Agent24start_repl_reverse_shell00Ba_
FNDA:0,_RNCNvMNtCsa7Dhx6HaxLb_4imix5agentNtB4_9ImixAgent10refresh_ip0B6_
FNDA:0,_RNCNvMNtCsa7Dhx6HaxLb_4imix5agentNtB4_9ImixAgent11claim_tasks0B6_
FNDA:1,_RNCNvMNtCsa7Dhx6HaxLb_4imix5agentNtB4_9ImixAgent13flush_outputs0B6_
FNDA:0,_RNCNvMNtCsa7Dhx6HaxLb_4imix5agentNtB4_9ImixAgent16update_transport0B6_
FNDA:0,_RNCNvMNtCsa7Dhx6HaxLb_4imix5agentNtB4_9ImixAgent19get_callback_jitter0B6_
FNDA:0,_RNCNvMNtCsa7Dhx6HaxLb_4imix5agentNtB4_9ImixAgent19get_callback_jitters0_0B6_
FNDA:0,_RNCNvMNtCsa7Dhx6HaxLb_4imix5agentNtB4_9ImixAgent19get_callback_jitters1_0B6_
FNDA:0,_RNCNvMNtCsa7Dhx6HaxLb_4imix5agentNtB4_9ImixAgent19get_callback_jitters2_0B6_
FNDA:0,_RNCNvMNtCsa7Dhx6HaxLb_4imix5agentNtB4_9ImixAgent19get_callback_jitters_0B6_
FNDA:0,_RNCNvMNtCsa7Dhx6HaxLb_4imix5agentNtB4_9ImixAgent19process_job_request0B6_
FNDA:0,_RNCNvMNtCsa7Dhx6HaxLb_4imix5agentNtB4_9ImixAgent19rotate_callback_uri0B6_
FNDA:0,_RNCNvMNtCsa7Dhx6HaxLb_4imix5agentNtB4_9ImixAgent20get_transport_config0B6_
FNDA:0,_RNCNvMNtCsa7Dhx6HaxLb_4imix5agentNtB4_9ImixAgent20get_usable_transport0B6_
FNDA:0,_RNCNvMNtCsa7Dhx6HaxLb_4imix5agentNtB4_9ImixAgent25get_callback_interval_u640B6_
FNDA:0,_RNCNvMNtCsa7Dhx6HaxLb_4imix5agentNtB4_9ImixAgent25get_callback_interval_u64s0_0B6_
FNDA:0,_RNCNvMNtCsa7Dhx6HaxLb_4imix5agentNtB4_9ImixAgent25get_callback_interval_u64s1_0B6_
FNDA:0,_RNCNvMNtCsa7Dhx6HaxLb_4imix5agentNtB4_9ImixAgent25get_callback_interval_u64s2_0B6_
FNDA:0,_RNCNvMNtCsa7Dhx6HaxLb_4imix5agentNtB4_9ImixAgent25get_callback_interval_u64s_0B6_
FNDA:0,_RNCNvXs_NtCsa7Dhx6HaxLb_4imix5agentNtB6_9ImixAgentNtCs4YvUcAiDkiF_14eldritch_agent5Agent10get_config0B8_
FNDA:0,_RNCNvXs_NtCsa7Dhx6HaxLb_4imix5agentNtB6_9ImixAgentNtCs4YvUcAiDkiF_14eldritch_agent5Agent10get_configs0_0B8_
FNDA:0,_RNCNvXs_NtCsa7Dhx6HaxLb_4imix5agentNtB6_9ImixAgentNtCs4YvUcAiDkiF_14eldritch_agent5Agent10get_configs1_0B8_
FNDA:0,_RNCNvXs_NtCsa7Dhx6HaxLb_4imix5agentNtB6_9ImixAgentNtCs4YvUcAiDkiF_14eldritch_agent5Agent10get_configs2_0B8_
FNDA:0,_RNCNvXs_NtCsa7Dhx6HaxLb_4imix5agentNtB6_9ImixAgentNtCs4YvUcAiDkiF_14eldritch_agent5Agent10get_configs3_0B8_
FNDA:0,_RNCNvXs_NtCsa7Dhx6HaxLb_4imix5agentNtB6_9ImixAgentNtCs4YvUcAiDkiF_14eldritch_agent5Agent11claim_tasks0B8_
FNDA:0,_RNCNvXs_NtCsa7Dhx6HaxLb_4imix5agentNtB6_9ImixAgentNtCs4YvUcAiDkiF_14eldritch_agent5Agent11fetch_asset0B8_
FNDA:0,_RNCNvXs_NtCsa7Dhx6HaxLb_4imix5agentNtB6_9ImixAgentNtCs4YvUcAiDkiF_14eldritch_agent5Agent11report_file0B8_
FNDA:0,_RNCNvXs_NtCsa7Dhx6HaxLb_4imix5agentNtB6_9ImixAgentNtCs4YvUcAiDkiF_14eldritch_agent5Agent13create_portal0B8_
FNDA:0,_RNCNvXs_NtCsa7Dhx6HaxLb_4imix5agentNtB6_9ImixAgentNtCs4YvUcAiDkiF_14eldritch_agent5Agent13get_transport0B8_
FNDA:0,_RNCNvXs_NtCsa7Dhx6HaxLb_4imix5agentNtB6_9ImixAgentNtCs4YvUcAiDkiF_14eldritch_agent5Agent13report_output0B8_
FNDA:0,_RNCNvXs_NtCsa7Dhx6HaxLb_4imix5agentNtB6_9ImixAgentNtCs4YvUcAiDkiF_14eldritch_agent5Agent13set_transport0B8_
FNDA:0,_RNCNvXs_NtCsa7Dhx6HaxLb_4imix5agentNtB6_9ImixAgentNtCs4YvUcAiDkiF_14eldritch_agent5Agent15list_transports0B8_
FNDA:0,_RNCNvXs_NtCsa7Dhx6HaxLb_4imix5agentNtB6_9ImixAgentNtCs4YvUcAiDkiF_14eldritch_agent5Agent16add_callback_uri0B8_
FNDA:0,_RNCNvXs_NtCsa7Dhx6HaxLb_4imix5agentNtB6_9ImixAgentNtCs4YvUcAiDkiF_14eldritch_agent5Agent16set_callback_uri0B8_
FNDA:0,_RNCNvXs_NtCsa7Dhx6HaxLb_4imix5agentNtB6_9ImixAgentNtCs4YvUcAiDkiF_14eldritch_agent5Agent17report_credential0B8_
FNDA:0,_RNCNvXs_NtCsa7Dhx6HaxLb_4imix5agentNtB6_9ImixAgentNtCs4YvUcAiDkiF_14eldritch_agent5Agent18list_callback_uris0B8_
FNDA:0,_RNCNvXs_NtCsa7Dhx6HaxLb_4imix5agentNtB6_9ImixAgentNtCs4YvUcAiDkiF_14eldritch_agent5Agent19remove_callback_uri0B8_
FNDA:0,_RNCNvXs_NtCsa7Dhx6HaxLb_4imix5agentNtB6_9ImixAgentNtCs4YvUcAiDkiF_14eldritch_agent5Agent19report_process_list0B8_
FNDA:0,_RNCNvXs_NtCsa7Dhx6HaxLb_4imix5agentNtB6_9ImixAgentNtCs4YvUcAiDkiF_14eldritch_agent5Agent19start_reverse_shell0B8_
FNDA:0,_RNCNvXs_NtCsa7Dhx6HaxLb_4imix5agentNtB6_9ImixAgentNtCs4YvUcAiDkiF_14eldritch_agent5Agent21get_callback_interval0B8_
FNDA:0,_RNCNvXs_NtCsa7Dhx6HaxLb_4imix5agentNtB6_9ImixAgentNtCs4YvUcAiDkiF_14eldritch_agent5Agent21get_next_callback_uri0B8_
FNDA:0,_RNCNvXs_NtCsa7Dhx6HaxLb_4imix5agentNtB6_9ImixAgentNtCs4YvUcAiDkiF_14eldritch_agent5Agent21set_callback_interval0B8_
FNDA:0,_RNCNvXs_NtCsa7Dhx6HaxLb_4imix5agentNtB6_9ImixAgentNtCs4YvUcAiDkiF_14eldritch_agent5Agent23get_active_callback_uri0B8_
FNDA:0,_RNCNvXs_NtCsa7Dhx6HaxLb_4imix5agentNtB6_9ImixAgentNtCs4YvUcAiDkiF_14eldritch_agent5Agent24start_repl_reverse_shell0B8_
FNDA:0,_RNCNvXs_NtCsa7Dhx6HaxLb_4imix5agentNtB6_9ImixAgentNtCs4YvUcAiDkiF_14eldritch_agent5Agent9stop_task0B8_
FNDA:0,_RINvMNtCshYyER8Nev1x_4imix5agentNtB3_9ImixAgent13spawn_subtaskNCNvXs_B3_Bu_NtCs4YvUcAiDkiF_14eldritch_agent5Agent13create_portal0NCNCB10_00EB5_
FNDA:1,_RINvMNtCshYyER8Nev1x_4imix5agentNtB3_9ImixAgent13spawn_subtaskNCNvXs_B3_Bu_NtCs4YvUcAiDkiF_14eldritch_agent5Agent19start_reverse_shell0NCNCB10_00EB5_
FNDA:0,_RINvMNtCshYyER8Nev1x_4imix5agentNtB3_9ImixAgent13spawn_subtaskNCNvXs_B3_Bu_NtCs4YvUcAiDkiF_14eldritch_agent5Agent24start_repl_reverse_shell0NCNCB10_00EB5_
FNDA:0,_RINvMNtCshYyER8Nev1x_4imix5agentNtB3_9ImixAgent14with_transportNCNvXs_B3_Bu_NtCs4YvUcAiDkiF_14eldritch_agent5Agent11claim_tasks0NCNCB11_00NtNtCs7b6pIPUuCtr_2pb2c218ClaimTasksResponseEB5_
FNDA:1,_RINvMNtCshYyER8Nev1x_4imix5agentNtB3_9ImixAgent14with_transportNCNvXs_B3_Bu_NtCs4YvUcAiDkiF_14eldritch_agent5Agent11fetch_asset0NCNCB11_00INtNtCs456UZznmu7y_5alloc3vec3VechEEB5_
FNDA:2,_RINvMNtCshYyER8Nev1x_4imix5agentNtB3_9ImixAgent14with_transportNCNvXs_B3_Bu_NtCs4YvUcAiDkiF_14eldritch_agent5Agent11report_file0NCNCB11_00NtNtCs7b6pIPUuCtr_2pb2c218ReportFileResponseEB5_
FNDA:1,_RINvMNtCshYyER8Nev1x_4imix5agentNtB3_9ImixAgent14with_transportNCNvXs_B3_Bu_NtCs4YvUcAiDkiF_14eldritch_agent5Agent17report_credential0NCNCB11_00NtNtCs7b6pIPUuCtr_2pb2c224ReportCredentialResponseEB5_
FNDA:1,_RINvMNtCshYyER8Nev1x_4imix5agentNtB3_9ImixAgent14with_transportNCNvXs_B3_Bu_NtCs4YvUcAiDkiF_14eldritch_agent5Agent19report_process_list0NCNCB11_00NtNtCs7b6pIPUuCtr_2pb2c225ReportProcessListResponseEB5_
FNDA:0,_RINvMNtCshYyER8Nev1x_4imix5agentNtB3_9ImixAgent8block_onNCINvB2_14with_transportNCNvXs_B3_Bu_NtCs4YvUcAiDkiF_14eldritch_agent5Agent11claim_tasks0NCNCB1i_00NtNtCs7b6pIPUuCtr_2pb2c218ClaimTasksResponseE0B2t_EB5_
FNDA:1,_RINvMNtCshYyER8Nev1x_4imix5agentNtB3_9ImixAgent8block_onNCINvB2_14with_transportNCNvXs_B3_Bu_NtCs4YvUcAiDkiF_14eldritch_agent5Agent11fetch_asset0NCNCB1i_00INtNtCs456UZznmu7y_5alloc3vec3VechEE0B2t_EB5_
FNDA:2,_RINvMNtCshYyER8Nev1x_4imix5agentNtB3_9ImixAgent8block_onNCINvB2_14with_transportNCNvXs_B3_Bu_NtCs4YvUcAiDkiF_14eldritch_agent5Agent11report_file0NCNCB1i_00NtNtCs7b6pIPUuCtr_2pb2c218ReportFileResponseE0B2t_EB5_
FNDA:1,_RINvMNtCshYyER8Nev1x_4imix5agentNtB3_9ImixAgent8block_onNCINvB2_14with_transportNCNvXs_B3_Bu_NtCs4YvUcAiDkiF_14eldritch_agent5Agent17report_credential0NCNCB1i_00NtNtCs7b6pIPUuCtr_2pb2c224ReportCredentialResponseE0B2z_EB5_
FNDA:1,_RINvMNtCshYyER8Nev1x_4imix5agentNtB3_9ImixAgent8block_onNCINvB2_14with_transportNCNvXs_B3_Bu_NtCs4YvUcAiDkiF_14eldritch_agent5Agent19report_process_list0NCNCB1i_00NtNtCs7b6pIPUuCtr_2pb2c225ReportProcessListResponseE0B2B_EB5_
FNDA:3,_RINvMNtCshYyER8Nev1x_4imix5agentNtB3_9ImixAgent8block_onNCNvXs_B3_Bu_NtCs4YvUcAiDkiF_14eldritch_agent5Agent10get_config0NtNtCs7b6pIPUuCtr_2pb6config6ConfigEB5_
FNDA:0,_RINvMNtCshYyER8Nev1x_4imix5agentNtB3_9ImixAgent8block_onNCNvXs_B3_Bu_NtCs4YvUcAiDkiF_14eldritch_agent5Agent13get_transport0NtNtCs456UZznmu7y_5alloc6string6StringEB5_
FNDA:0,_RINvMNtCshYyER8Nev1x_4imix5agentNtB3_9ImixAgent8block_onNCNvXs_B3_Bu_NtCs4YvUcAiDkiF_14eldritch_agent5Agent13set_transport0uEB5_
FNDA:0,_RINvMNtCshYyER8Nev1x_4imix5agentNtB3_9ImixAgent8block_onNCNvXs_B3_Bu_NtCs4YvUcAiDkiF_14eldritch_agent5Agent15list_transports0INtNtCs456UZznmu7y_5alloc3vec3VecNtNtB24_6string6StringEEB5_
FNDA:0,_RINvMNtCshYyER8Nev1x_4imix5agentNtB3_9ImixAgent8block_onNCNvXs_B3_Bu_NtCs4YvUcAiDkiF_14eldritch_agent5Agent16add_callback_uri0uEB5_
FNDA:2,_RINvMNtCshYyER8Nev1x_4imix5agentNtB3_9ImixAgent8block_onNCNvXs_B3_Bu_NtCs4YvUcAiDkiF_14eldritch_agent5Agent16set_callback_uri0uEB5_
FNDA:3,_RINvMNtCshYyER8Nev1x_4imix5agentNtB3_9ImixAgent8block_onNCNvXs_B3_Bu_NtCs4YvUcAiDkiF_14eldritch_agent5Agent18list_callback_uris0INtNtNtNtCs456UZznmu7y_5alloc11collections5btree3set8BTreeSetNtNtB2b_6string6StringEEB5_
FNDA:0,_RINvMNtCshYyER8Nev1x_4imix5agentNtB3_9ImixAgent8block_onNCNvXs_B3_Bu_NtCs4YvUcAiDkiF_14eldritch_agent5Agent19remove_callback_uri0uEB5_
FNDA:0,_RINvMNtCshYyER8Nev1x_4imix5agentNtB3_9ImixAgent8block_onNCNvXs_B3_Bu_NtCs4YvUcAiDkiF_14eldritch_agent5Agent21get_next_callback_uri0NtNtCs456UZznmu7y_5alloc6string6StringEB5_
FNDA:0,_RINvMNtCshYyER8Nev1x_4imix5agentNtB3_9ImixAgent8block_onNCNvXs_B3_Bu_NtCs4YvUcAiDkiF_14eldritch_agent5Agent21set_callback_interval0uEB5_
FNDA:7,_RINvMNtCshYyER8Nev1x_4imix5agentNtB3_9ImixAgent8block_onNCNvXs_B3_Bu_NtCs4YvUcAiDkiF_14eldritch_agent5Agent23get_active_callback_uri0NtNtCs456UZznmu7y_5alloc6string6StringEB5_
FNDA:0,_RNCINvMNtCshYyER8Nev1x_4imix5agentNtB5_9ImixAgent13spawn_subtaskNCNvXs_B5_Bw_NtCs4YvUcAiDkiF_14eldritch_agent5Agent13create_portal0NCNCB12_00E0B7_
FNDA:0,_RNCINvMNtCshYyER8Nev1x_4imix5agentNtB5_9ImixAgent13spawn_subtaskNCNvXs_B5_Bw_NtCs4YvUcAiDkiF_14eldritch_agent5Agent19start_reverse_shell0NCNCB12_00E0B7_
FNDA:0,_RNCINvMNtCshYyER8Nev1x_4imix5agentNtB5_9ImixAgent13spawn_subtaskNCNvXs_B5_Bw_NtCs4YvUcAiDkiF_14eldritch_agent5Agent24start_repl_reverse_shell0NCNCB12_00E0B7_
FNDA:0,_RNCINvMNtCshYyER8Nev1x_4imix5agentNtB5_9ImixAgent14with_transportNCNvXs_B5_Bw_NtCs4YvUcAiDkiF_14eldritch_agent5Agent11claim_tasks0NCNCB13_00NtNtCs7b6pIPUuCtr_2pb2c218ClaimTasksResponseE0B7_
FNDA:1,_RNCINvMNtCshYyER8Nev1x_4imix5agentNtB5_9ImixAgent14with_transportNCNvXs_B5_Bw_NtCs4YvUcAiDkiF_14eldritch_agent5Agent11fetch_asset0NCNCB13_00INtNtCs456UZznmu7y_5alloc3vec3VechEE0B7_
FNDA:2,_RNCINvMNtCshYyER8Nev1x_4imix5agentNtB5_9ImixAgent14with_transportNCNvXs_B5_Bw_NtCs4YvUcAiDkiF_14eldritch_agent5Agent11report_file0NCNCB13_00NtNtCs7b6pIPUuCtr_2pb2c218ReportFileResponseE0B7_
FNDA:1,_RNCINvMNtCshYyER8Nev1x_4imix5agentNtB5_9ImixAgent14with_transportNCNvXs_B5_Bw_NtCs4YvUcAiDkiF_14eldritch_agent5Agent17report_credential0NCNCB13_00NtNtCs7b6pIPUuCtr_2pb2c224ReportCredentialResponseE0B7_
FNDA:1,_RNCINvMNtCshYyER8Nev1x_4imix5agentNtB5_9ImixAgent14with_transportNCNvXs_B5_Bw_NtCs4YvUcAiDkiF_14eldritch_agent5Agent19report_process_list0NCNCB13_00NtNtCs7b6pIPUuCtr_2pb2c225ReportProcessListResponseE0B7_
FNDA:0,_RNCNCINvMNtCshYyER8Nev1x_4imix5agentNtB7_9ImixAgent14with_transportNCNvXs_B7_By_NtCs4YvUcAiDkiF_14eldritch_agent5Agent11claim_tasks0NCNCB15_00NtNtCs7b6pIPUuCtr_2pb2c218ClaimTasksResponseE00B9_
FNDA:0,_RNCNCINvMNtCshYyER8Nev1x_4imix5agentNtB7_9ImixAgent14with_transportNCNvXs_B7_By_NtCs4YvUcAiDkiF_14eldritch_agent5Agent11claim_tasks0NCNCB15_00NtNtCs7b6pIPUuCtr_2pb2c218ClaimTasksResponseE0s_0B9_
FNDA:0,_RNCNCINvMNtCshYyER8Nev1x_4imix5agentNtB7_9ImixAgent14with_transportNCNvXs_B7_By_NtCs4YvUcAiDkiF_14eldritch_agent5Agent11fetch_asset0NCNCB15_00INtNtCs456UZznmu7y_5alloc3vec3VechEE00B9_
FNDA:0,_RNCNCINvMNtCshYyER8Nev1x_4imix5agentNtB7_9ImixAgent14with_transportNCNvXs_B7_By_NtCs4YvUcAiDkiF_14eldritch_agent5Agent11fetch_asset0NCNCB15_00INtNtCs456UZznmu7y_5alloc3vec3VechEE0s_0B9_
FNDA:0,_RNCNCINvMNtCshYyER8Nev1x_4imix5agentNtB7_9ImixAgent14with_transportNCNvXs_B7_By_NtCs4YvUcAiDkiF_14eldritch_agent5Agent11report_file0NCNCB15_00NtNtCs7b6pIPUuCtr_2pb2c218ReportFileResponseE00B9_
FNDA:0,_RNCNCINvMNtCshYyER8Nev1x_4imix5agentNtB7_9ImixAgent14with_transportNCNvXs_B7_By_NtCs4YvUcAiDkiF_14eldritch_agent5Agent11report_file0NCNCB15_00NtNtCs7b6pIPUuCtr_2pb2c218ReportFileResponseE0s_0B9_
FNDA:0,_RNCNCINvMNtCshYyER8Nev1x_4imix5agentNtB7_9ImixAgent14with_transportNCNvXs_B7_By_NtCs4YvUcAiDkiF_14eldritch_agent5Agent17report_credential0NCNCB15_00NtNtCs7b6pIPUuCtr_2pb2c224ReportCredentialResponseE00B9_
FNDA:0,_RNCNCINvMNtCshYyER8Nev1x_4imix5agentNtB7_9ImixAgent14with_transportNCNvXs_B7_By_NtCs4YvUcAiDkiF_14eldritch_agent5Agent17report_credential0NCNCB15_00NtNtCs7b6pIPUuCtr_2pb2c224ReportCredentialResponseE0s_0B9_
FNDA:0,_RNCNCINvMNtCshYyER8Nev1x_4imix5agentNtB7_9ImixAgent14with_transportNCNvXs_B7_By_NtCs4YvUcAiDkiF_14eldritch_agent5Agent19report_process_list0NCNCB15_00NtNtCs7b6pIPUuCtr_2pb2c225ReportProcessListResponseE00B9_
FNDA:0,_RNCNCINvMNtCshYyER8Nev1x_4imix5agentNtB7_9ImixAgent14with_transportNCNvXs_B7_By_NtCs4YvUcAiDkiF_14eldritch_agent5Agent19report_process_list0NCNCB15_00NtNtCs7b6pIPUuCtr_2pb2c225ReportProcessListResponseE0s_0B9_
FNDA:8,_RNCNCNCNvXs_NtCshYyER8Nev1x_4imix5agentNtBa_9ImixAgentNtCs4YvUcAiDkiF_14eldritch_agent5Agent18list_callback_uris0s_00Bc_
FNDA:0,_RNCNCNCNvXs_NtCshYyER8Nev1x_4imix5agentNtBa_9ImixAgentNtCs4YvUcAiDkiF_14eldritch_agent5Agent23get_active_callback_uri0s_00Bc_
FNDA:0,_RNCNCNvXs_NtCshYyER8Nev1x_4imix5agentNtB8_9ImixAgentNtCs4YvUcAiDkiF_14eldritch_agent5Agent11claim_tasks00Ba_
FNDA:1,_RNCNCNvXs_NtCshYyER8Nev1x_4imix5agentNtB8_9ImixAgentNtCs4YvUcAiDkiF_14eldritch_agent5Agent11fetch_asset00Ba_
FNDA:2,_RNCNCNvXs_NtCshYyER8Nev1x_4imix5agentNtB8_9ImixAgentNtCs4YvUcAiDkiF_14eldritch_agent5Agent11report_file00Ba_
FNDA:0,_RNCNCNvXs_NtCshYyER8Nev1x_4imix5agentNtB8_9ImixAgentNtCs4YvUcAiDkiF_14eldritch_agent5Agent13create_portal00Ba_
FNDA:0,_RNCNCNvXs_NtCshYyER8Nev1x_4imix5agentNtB8_9ImixAgentNtCs4YvUcAiDkiF_14eldritch_agent5Agent13get_transport00Ba_
FNDA:0,_RNCNCNvXs_NtCshYyER8Nev1x_4imix5agentNtB8_9ImixAgentNtCs4YvUcAiDkiF_14eldritch_agent5Agent16add_callback_uri00Ba_
FNDA:0,_RNCNCNvXs_NtCshYyER8Nev1x_4imix5agentNtB8_9ImixAgentNtCs4YvUcAiDkiF_14eldritch_agent5Agent16add_callback_uri0s_0Ba_
FNDA:5,_RNCNCNvXs_NtCshYyER8Nev1x_4imix5agentNtB8_9ImixAgentNtCs4YvUcAiDkiF_14eldritch_agent5Agent16set_callback_uri00Ba_
FNDA:0,_RNCNCNvXs_NtCshYyER8Nev1x_4imix5agentNtB8_9ImixAgentNtCs4YvUcAiDkiF_14eldritch_agent5Agent16set_callback_uri0s_0Ba_
FNDA:1,_RNCNCNvXs_NtCshYyER8Nev1x_4imix5agentNtB8_9ImixAgentNtCs4YvUcAiDkiF_14eldritch_agent5Agent17report_credential00Ba_
FNDA:3,_RNCNCNvXs_NtCshYyER8Nev1x_4imix5agentNtB8_9ImixAgentNtCs4YvUcAiDkiF_14eldritch_agent5Agent18list_callback_uris00Ba_
FNDA:3,_RNCNCNvXs_NtCshYyER8Nev1x_4imix5agentNtB8_9ImixAgentNtCs4YvUcAiDkiF_14eldritch_agent5Agent18list_callback_uris0s_0Ba_
FNDA:0,_RNCNCNvXs_NtCshYyER8Nev1x_4imix5agentNtB8_9ImixAgentNtCs4YvUcAiDkiF_14eldritch_agent5Agent19remove_callback_uri00Ba_
FNDA:1,_RNCNCNvXs_NtCshYyER8Nev1x_4imix5agentNtB8_9ImixAgentNtCs4YvUcAiDkiF_14eldritch_agent5Agent19report_process_list00Ba_
FNDA:0,_RNCNCNvXs_NtCshYyER8Nev1x_4imix5agentNtB8_9ImixAgentNtCs4YvUcAiDkiF_14eldritch_agent5Agent19start_reverse_shell00Ba_
FNDA:0,_RNCNCNvXs_NtCshYyER8Nev1x_4imix5agentNtB8_9ImixAgentNtCs4YvUcAiDkiF_14eldritch_agent5Agent21get_next_callback_uri00Ba_
FNDA:0,_RNCNCNvXs_NtCshYyER8Nev1x_4imix5agentNtB8_9ImixAgentNtCs4YvUcAiDkiF_14eldritch_agent5Agent21get_next_callback_uri0s0_0Ba_
FNDA:0,_RNCNCNvXs_NtCshYyER8Nev1x_4imix5agentNtB8_9ImixAgentNtCs4YvUcAiDkiF_14eldritch_agent5Agent21get_next_callback_uri0s1_0Ba_
FNDA:0,_RNCNCNvXs_NtCshYyER8Nev1x_4imix5agentNtB8_9ImixAgentNtCs4YvUcAiDkiF_14eldritch_agent5Agent21get_next_callback_uri0s_0Ba_
FNDA:7,_RNCNCNvXs_NtCshYyER8Nev1x_4imix5agentNtB8_9ImixAgentNtCs4YvUcAiDkiF_14eldritch_agent5Agent23get_active_callback_uri00Ba_
FNDA:7,_RNCNCNvXs_NtCshYyER8Nev1x_4imix5agentNtB8_9ImixAgentNtCs4YvUcAiDkiF_14eldritch_agent5Agent23get_active_callback_uri0s0_0Ba_
FNDA:0,_RNCNCNvXs_NtCshYyER8Nev1x_4imix5agentNtB8_9ImixAgentNtCs4YvUcAiDkiF_14eldritch_agent5Agent23get_active_callback_uri0s1_0Ba_
FNDA:7,_RNCNCNvXs_NtCshYyER8Nev1x_4imix5agentNtB8_9ImixAgentNtCs4YvUcAiDkiF_14eldritch_agent5Agent23get_active_callback_uri0s_0Ba_
FNDA:0,_RNCNCNvXs_NtCshYyER8Nev1x_4imix5agentNtB8_9ImixAgentNtCs4YvUcAiDkiF_14eldritch_agent5Agent24start_repl_reverse_shell00Ba_
FNDA:0,_RNCNvMNtCshYyER8Nev1x_4imix5agentNtB4_9ImixAgent10refresh_ip0B6_
FNDA:1,_RNCNvMNtCshYyER8Nev1x_4imix5agentNtB4_9ImixAgent11claim_tasks0B6_
FNDA:3,_RNCNvMNtCshYyER8Nev1x_4imix5agentNtB4_9ImixAgent13flush_outputs0B6_
FNDA:0,_RNCNvMNtCshYyER8Nev1x_4imix5agentNtB4_9ImixAgent16update_transport0B6_
FNDA:0,_RNCNvMNtCshYyER8Nev1x_4imix5agentNtB4_9ImixAgent19get_callback_jitter0B6_
FNDA:0,_RNCNvMNtCshYyER8Nev1x_4imix5agentNtB4_9ImixAgent19get_callback_jitters0_0B6_
FNDA:0,_RNCNvMNtCshYyER8Nev1x_4imix5agentNtB4_9ImixAgent19get_callback_jitters1_0B6_
FNDA:0,_RNCNvMNtCshYyER8Nev1x_4imix5agentNtB4_9ImixAgent19get_callback_jitters2_0B6_
FNDA:0,_RNCNvMNtCshYyER8Nev1x_4imix5agentNtB4_9ImixAgent19get_callback_jitters_0B6_
FNDA:0,_RNCNvMNtCshYyER8Nev1x_4imix5agentNtB4_9ImixAgent19process_job_request0B6_
FNDA:0,_RNCNvMNtCshYyER8Nev1x_4imix5agentNtB4_9ImixAgent19rotate_callback_uri0B6_
FNDA:0,_RNCNvMNtCshYyER8Nev1x_4imix5agentNtB4_9ImixAgent20get_transport_config0B6_
FNDA:5,_RNCNvMNtCshYyER8Nev1x_4imix5agentNtB4_9ImixAgent20get_usable_transport0B6_
FNDA:0,_RNCNvMNtCshYyER8Nev1x_4imix5agentNtB4_9ImixAgent25get_callback_interval_u640B6_
FNDA:0,_RNCNvMNtCshYyER8Nev1x_4imix5agentNtB4_9ImixAgent25get_callback_interval_u64s0_0B6_
FNDA:0,_RNCNvMNtCshYyER8Nev1x_4imix5agentNtB4_9ImixAgent25get_callback_interval_u64s1_0B6_
FNDA:0,_RNCNvMNtCshYyER8Nev1x_4imix5agentNtB4_9ImixAgent25get_callback_interval_u64s2_0B6_
FNDA:1,_RNCNvMNtCshYyER8Nev1x_4imix5agentNtB4_9ImixAgent25get_callback_interval_u64s_0B6_
FNDA:3,_RNCNvXs_NtCshYyER8Nev1x_4imix5agentNtB6_9ImixAgentNtCs4YvUcAiDkiF_14eldritch_agent5Agent10get_config0B8_
FNDA:3,_RNCNvXs_NtCshYyER8Nev1x_4imix5agentNtB6_9ImixAgentNtCs4YvUcAiDkiF_14eldritch_agent5Agent10get_configs0_0B8_
FNDA:0,_RNCNvXs_NtCshYyER8Nev1x_4imix5agentNtB6_9ImixAgentNtCs4YvUcAiDkiF_14eldritch_agent5Agent10get_configs1_0B8_
FNDA:0,_RNCNvXs_NtCshYyER8Nev1x_4imix5agentNtB6_9ImixAgentNtCs4YvUcAiDkiF_14eldritch_agent5Agent10get_configs2_0B8_
FNDA:0,_RNCNvXs_NtCshYyER8Nev1x_4imix5agentNtB6_9ImixAgentNtCs4YvUcAiDkiF_14eldritch_agent5Agent10get_configs3_0B8_
FNDA:0,_RNCNvXs_NtCshYyER8Nev1x_4imix5agentNtB6_9ImixAgentNtCs4YvUcAiDkiF_14eldritch_agent5Agent11claim_tasks0B8_
FNDA:1,_RNCNvXs_NtCshYyER8Nev1x_4imix5agentNtB6_9ImixAgentNtCs4YvUcAiDkiF_14eldritch_agent5Agent11fetch_asset0B8_
FNDA:2,_RNCNvXs_NtCshYyER8Nev1x_4imix5agentNtB6_9ImixAgentNtCs4YvUcAiDkiF_14eldritch_agent5Agent11report_file0B8_
FNDA:0,_RNCNvXs_NtCshYyER8Nev1x_4imix5agentNtB6_9ImixAgentNtCs4YvUcAiDkiF_14eldritch_agent5Agent13create_portal0B8_
FNDA:0,_RNCNvXs_NtCshYyER8Nev1x_4imix5agentNtB6_9ImixAgentNtCs4YvUcAiDkiF_14eldritch_agent5Agent13get_transport0B8_
FNDA:0,_RNCNvXs_NtCshYyER8Nev1x_4imix5agentNtB6_9ImixAgentNtCs4YvUcAiDkiF_14eldritch_agent5Agent13report_output0B8_
FNDA:0,_RNCNvXs_NtCshYyER8Nev1x_4imix5agentNtB6_9ImixAgentNtCs4YvUcAiDkiF_14eldritch_agent5Agent13set_transport0B8_
FNDA:0,_RNCNvXs_NtCshYyER8Nev1x_4imix5agentNtB6_9ImixAgentNtCs4YvUcAiDkiF_14eldritch_agent5Agent15list_transports0B8_
FNDA:0,_RNCNvXs_NtCshYyER8Nev1x_4imix5agentNtB6_9ImixAgentNtCs4YvUcAiDkiF_14eldritch_agent5Agent16add_callback_uri0B8_
FNDA:2,_RNCNvXs_NtCshYyER8Nev1x_4imix5agentNtB6_9ImixAgentNtCs4YvUcAiDkiF_14eldritch_agent5Agent16set_callback_uri0B8_
FNDA:1,_RNCNvXs_NtCshYyER8Nev1x_4imix5agentNtB6_9ImixAgentNtCs4YvUcAiDkiF_14eldritch_agent5Agent17report_credential0B8_
FNDA:3,_RNCNvXs_NtCshYyER8Nev1x_4imix5agentNtB6_9ImixAgentNtCs4YvUcAiDkiF_14eldritch_agent5Agent18list_callback_uris0B8_
FNDA:0,_RNCNvXs_NtCshYyER8Nev1x_4imix5agentNtB6_9ImixAgentNtCs4YvUcAiDkiF_14eldritch_agent5Agent19remove_callback_uri0B8_
FNDA:1,_RNCNvXs_NtCshYyER8Nev1x_4imix5agentNtB6_9ImixAgentNtCs4YvUcAiDkiF_14eldritch_agent5Agent19report_process_list0B8_
FNDA:0,_RNCNvXs_NtCshYyER8Nev1x_4imix5agentNtB6_9ImixAgentNtCs4YvUcAiDkiF_14eldritch_agent5Agent19start_reverse_shell0B8_
FNDA:0,_RNCNvXs_NtCshYyER8Nev1x_4imix5agentNtB6_9ImixAgentNtCs4YvUcAiDkiF_14eldritch_agent5Agent21get_callback_interval0B8_
FNDA:0,_RNCNvXs_NtCshYyER8Nev1x_4imix5agentNtB6_9ImixAgentNtCs4YvUcAiDkiF_14eldritch_agent5Agent21get_next_callback_uri0B8_
FNDA:0,_RNCNvXs_NtCshYyER8Nev1x_4imix5agentNtB6_9ImixAgentNtCs4YvUcAiDkiF_14eldritch_agent5Agent21set_callback_interval0B8_
FNDA:7,_RNCNvXs_NtCshYyER8Nev1x_4imix5agentNtB6_9ImixAgentNtCs4YvUcAiDkiF_14eldritch_agent5Agent23get_active_callback_uri0B8_
FNDA:0,_RNCNvXs_NtCshYyER8Nev1x_4imix5agentNtB6_9ImixAgentNtCs4YvUcAiDkiF_14eldritch_agent5Agent24start_repl_reverse_shell0B8_
FNDA:0,_RNCNvXs_NtCshYyER8Nev1x_4imix5agentNtB6_9ImixAgentNtCs4YvUcAiDkiF_14eldritch_agent5Agent9stop_task0B8_
FNDA:0,_RNvMNtCshYyER8Nev1x_4imix5agentNtB2_9ImixAgent10refresh_ip
FNDA:1,_RNvMNtCshYyER8Nev1x_4imix5agentNtB2_9ImixAgent11claim_tasks
FNDA:3,_RNvMNtCshYyER8Nev1x_4imix5agentNtB2_9ImixAgent13flush_outputs
FNDA:0,_RNvMNtCshYyER8Nev1x_4imix5agentNtB2_9ImixAgent16update_transport
FNDA:0,_RNvMNtCshYyER8Nev1x_4imix5agentNtB2_9ImixAgent19get_callback_jitter
FNDA:0,_RNvMNtCshYyER8Nev1x_4imix5agentNtB2_9ImixAgent19process_job_request
FNDA:0,_RNvMNtCshYyER8Nev1x_4imix5agentNtB2_9ImixAgent19rotate_callback_uri
FNDA:0,_RNvMNtCshYyER8Nev1x_4imix5agentNtB2_9ImixAgent19start_shell_manager
FNDA:0,_RNvMNtCshYyER8Nev1x_4imix5agentNtB2_9ImixAgent20get_transport_config
FNDA:5,_RNvMNtCshYyER8Nev1x_4imix5agentNtB2_9ImixAgent20get_usable_transport
FNDA:2,_RNvMNtCshYyER8Nev1x_4imix5agentNtB2_9ImixAgent25get_callback_interval_u64
FNDA:17,_RNvMNtCshYyER8Nev1x_4imix5agentNtB2_9ImixAgent3new
FNDA:3,_RNvXs_NtCshYyER8Nev1x_4imix5agentNtB4_9ImixAgentNtCs4YvUcAiDkiF_14eldritch_agent5Agent10get_config
FNDA:0,_RNvXs_NtCshYyER8Nev1x_4imix5agentNtB4_9ImixAgentNtCs4YvUcAiDkiF_14eldritch_agent5Agent10list_tasks
FNDA:0,_RNvXs_NtCshYyER8Nev1x_4imix5agentNtB4_9ImixAgentNtCs4YvUcAiDkiF_14eldritch_agent5Agent11claim_tasks
FNDA:1,_RNvXs_NtCshYyER8Nev1x_4imix5agentNtB4_9ImixAgentNtCs4YvUcAiDkiF_14eldritch_agent5Agent11fetch_asset
FNDA:2,_RNvXs_NtCshYyER8Nev1x_4imix5agentNtB4_9ImixAgentNtCs4YvUcAiDkiF_14eldritch_agent5Agent11report_file
FNDA:0,_RNvXs_NtCshYyER8Nev1x_4imix5agentNtB4_9ImixAgentNtCs4YvUcAiDkiF_14eldritch_agent5Agent13create_portal
FNDA:0,_RNvXs_NtCshYyER8Nev1x_4imix5agentNtB4_9ImixAgentNtCs4YvUcAiDkiF_14eldritch_agent5Agent13get_transport
FNDA:2,_RNvXs_NtCshYyER8Nev1x_4imix5agentNtB4_9ImixAgentNtCs4YvUcAiDkiF_14eldritch_agent5Agent13report_output
FNDA:0,_RNvXs_NtCshYyER8Nev1x_4imix5agentNtB4_9ImixAgentNtCs4YvUcAiDkiF_14eldritch_agent5Agent13set_transport
FNDA:0,_RNvXs_NtCshYyER8Nev1x_4imix5agentNtB4_9ImixAgentNtCs4YvUcAiDkiF_14eldritch_agent5Agent15list_transports
FNDA:0,_RNvXs_NtCshYyER8Nev1x_4imix5agentNtB4_9ImixAgentNtCs4YvUcAiDkiF_14eldritch_agent5Agent16add_callback_uri
FNDA:2,_RNvXs_NtCshYyER8Nev1x_4imix5agentNtB4_9ImixAgentNtCs4YvUcAiDkiF_14eldritch_agent5Agent16set_callback_uri
FNDA:1,_RNvXs_NtCshYyER8Nev1x_4imix5agentNtB4_9ImixAgentNtCs4YvUcAiDkiF_14eldritch_agent5Agent17report_credential
FNDA:3,_RNvXs_NtCshYyER8Nev1x_4imix5agentNtB4_9ImixAgentNtCs4YvUcAiDkiF_14eldritch_agent5Agent18list_callback_uris
FNDA:0,_RNvXs_NtCshYyER8Nev1x_4imix5agentNtB4_9ImixAgentNtCs4YvUcAiDkiF_14eldritch_agent5Agent19remove_callback_uri
FNDA:1,_RNvXs_NtCshYyER8Nev1x_4imix5agentNtB4_9ImixAgentNtCs4YvUcAiDkiF_14eldritch_agent5Agent19report_process_list
FNDA:1,_RNvXs_NtCshYyER8Nev1x_4imix5agentNtB4_9ImixAgentNtCs4YvUcAiDkiF_14eldritch_agent5Agent19start_reverse_shell
FNDA:0,_RNvXs_NtCshYyER8Nev1x_4imix5agentNtB4_9ImixAgentNtCs4YvUcAiDkiF_14eldritch_agent5Agent21get_callback_interval
FNDA:0,_RNvXs_NtCshYyER8Nev1x_4imix5agentNtB4_9ImixAgentNtCs4YvUcAiDkiF_14eldritch_agent5Agent21get_next_callback_uri
FNDA:0,_RNvXs_NtCshYyER8Nev1x_4imix5agentNtB4_9ImixAgentNtCs4YvUcAiDkiF_14eldritch_agent5Agent21set_callback_interval
FNDA:7,_RNvXs_NtCshYyER8Nev1x_4imix5agentNtB4_9ImixAgentNtCs4YvUcAiDkiF_14eldritch_agent5Agent23get_active_callback_uri
FNDA:0,_RNvXs_NtCshYyER8Nev1x_4imix5agentNtB4_9ImixAgentNtCs4YvUcAiDkiF_14eldritch_agent5Agent24start_repl_reverse_shell
FNDA:1,_RNvXs_NtCshYyER8Nev1x_4imix5agentNtB4_9ImixAgentNtCs4YvUcAiDkiF_14eldritch_agent5Agent9stop_task
FNF:112
FNH:44
DA:38,18
DA:39,18
DA:40,18
DA:41,18
DA:42,18
DA:43,18
DA:44,18
DA:45,18
DA:47,18
DA:48,18
DA:49,18
DA:50,18
DA:51,18
DA:52,18
DA:53,18
DA:54,18
DA:55,18
DA:56,18
DA:57,18
DA:59,0
DA:60,0
DA:61,0
DA:63,2
DA:65,2
DA:66,2
DA:67,2
DA:68,2
DA:69,2
DA:70,2
DA:71,2
DA:72,2
DA:74,1
DA:75,1
DA:76,1
DA:77,1
DA:79,1
DA:80,1
DA:81,1
DA:82,1
DA:83,1
DA:84,1
DA:87,1
DA:88,2
DA:90,0
DA:92,0
DA:93,0
DA:94,0
DA:95,0
DA:96,0
DA:97,0
DA:98,0
DA:99,0
DA:101,0
DA:102,0
DA:103,0
DA:104,0
DA:106,0
DA:107,0
DA:108,0
DA:109,0
DA:110,0
DA:111,0
DA:114,0
DA:115,0
DA:118,0
DA:119,0
DA:120,0
DA:121,0
DA:124,0
DA:125,0
DA:126,0
DA:127,0
DA:130,4
DA:131,4
DA:132,4
DA:133,0
DA:136,4
DA:137,12
DA:138,8
DA:139,8
DA:142,4
DA:144,4
DA:145,0
DA:146,4
DA:148,4
DA:149,4
DA:150,4
DA:152,12
DA:153,8
DA:154,8
DA:155,3
DA:156,3
DA:157,3
DA:159,3
DA:160,1
DA:161,1
DA:162,1
DA:163,1
DA:164,0
DA:165,0
DA:166,1
DA:168,1
DA:169,0
DA:170,0
DA:171,1
DA:173,2
DA:174,2
DA:175,2
DA:177,0
DA:179,5
DA:180,5
DA:181,5
DA:183,5
DA:184,1
DA:185,1
DA:186,1
DA:187,1
DA:188,0
DA:189,0
DA:190,1
DA:192,1
DA:193,0
DA:194,0
DA:195,1
DA:197,4
DA:198,4
DA:199,4
DA:201,0
DA:204,0
DA:207,4
DA:208,6
DA:210,2
DA:212,2
DA:213,2
DA:214,2
DA:215,2
DA:216,2
DA:217,2
DA:218,2
DA:219,2
DA:221,2
DA:223,0
DA:224,2
DA:227,8
DA:229,4
DA:231,4
DA:232,4
DA:233,4
DA:234,4
DA:235,4
DA:236,4
DA:237,4
DA:238,4
DA:240,4
DA:242,0
DA:243,4
DA:245,4
DA:248,0
DA:249,0
DA:250,0
DA:251,0
DA:253,0
DA:254,0
DA:255,0
DA:256,0
DA:258,0
DA:259,0
DA:260,0
DA:261,0
DA:262,0
DA:263,0
DA:264,0
DA:269,5
DA:272,5
DA:273,5
DA:274,5
DA:275,0
DA:279,0
DA:280,0
DA:281,0
DA:284,0
DA:286,0
DA:287,5
DA:290,1
DA:291,1
DA:292,1
DA:293,1
DA:294,1
DA:295,1
DA:296,1
DA:297,1
DA:298,1
DA:299,1
DA:300,1
DA:301,1
DA:303,0
DA:304,0
DA:306,0
DA:308,0
DA:309,0
DA:310,0
DA:311,0
DA:312,0
DA:314,0
DA:316,0
DA:318,0
DA:320,0
DA:321,0
DA:322,0
DA:323,0
DA:324,0
DA:325,0
DA:326,0
DA:327,0
DA:329,0
DA:330,0
DA:331,0
DA:333,0
DA:334,0
DA:337,20
DA:338,20
DA:339,20
DA:341,20
DA:342,20
DA:345,5
DA:346,5
DA:347,5
DA:348,5
DA:350,5
DA:351,5
DA:352,5
DA:353,5
DA:354,5
DA:355,5
DA:356,5
DA:357,5
DA:360,1
DA:361,1
DA:362,1
DA:363,1
DA:365,1
DA:366,1
DA:368,1
DA:370,0
DA:371,0
DA:372,0
DA:374,0
DA:375,0
DA:377,0
DA:379,0
DA:382,0
DA:384,1
DA:385,1
DA:386,1
DA:388,1
DA:389,1
DA:394,1
DA:395,1
DA:397,1
DA:398,1
DA:400,1
DA:401,3
DA:402,2
DA:403,2
DA:404,1
DA:405,2
DA:406,1
DA:408,1
DA:409,1
DA:410,1
DA:411,1
DA:412,2
DA:413,1
DA:415,2
DA:416,2
DA:417,2
DA:418,2
DA:419,4
DA:420,2
DA:422,1
DA:423,1
DA:424,1
DA:425,1
DA:426,2
DA:427,1
DA:429,3
DA:430,3
DA:431,3
DA:432,3
DA:434,3
DA:435,3
DA:436,3
DA:437,3
DA:438,3
DA:440,1
DA:441,1
DA:442,1
DA:443,0
DA:445,1
DA:446,0
DA:447,0
DA:448,1
DA:450,0
DA:451,0
DA:452,0
DA:453,0
DA:454,0
DA:456,0
DA:457,0
DA:458,0
DA:459,0
DA:461,0
DA:462,0
DA:463,0
DA:464,0
DA:465,0
DA:467,0
DA:468,0
DA:469,0
DA:470,0
DA:472,0
DA:473,0
DA:474,0
DA:476,3
DA:477,3
DA:479,3
DA:480,3
DA:481,3
DA:483,3
DA:484,3
DA:486,3
DA:487,3
DA:488,3
DA:489,3
DA:490,3
DA:491,3
DA:493,3
DA:494,3
DA:495,3
DA:496,3
DA:497,3
DA:498,3
DA:499,3
DA:501,3
DA:502,3
DA:503,3
DA:504,3
DA:506,3
DA:508,3
DA:509,3
DA:510,3
DA:511,3
DA:512,3
DA:513,3
DA:515,3
DA:516,1
DA:517,1
DA:518,1
DA:519,1
DA:520,1
DA:521,1
DA:522,1
DA:523,1
DA:524,1
DA:525,2
DA:526,3
DA:527,3
DA:528,3
DA:529,3
DA:530,3
DA:531,3
DA:532,3
DA:533,3
DA:534,3
DA:535,3
DA:536,3
DA:537,3
DA:538,3
DA:539,3
DA:540,3
DA:541,3
DA:542,0
DA:543,3
DA:544,3
DA:546,0
DA:548,0
DA:549,0
DA:550,0
DA:551,0
DA:552,0
DA:553,0
DA:554,0
DA:555,0
DA:558,0
DA:559,0
DA:560,0
DA:561,0
DA:562,0
DA:564,0
DA:565,0
DA:566,0
DA:567,0
DA:569,0
DA:570,0
DA:571,0
DA:574,0
DA:575,0
DA:577,0
DA:581,0
DA:582,0
DA:583,0
DA:584,0
DA:585,0
DA:586,0
DA:587,0
DA:590,0
DA:591,0
DA:592,0
DA:593,0
DA:594,0
DA:595,0
DA:596,0
DA:597,0
DA:599,0
DA:600,0
DA:601,0
DA:603,0
DA:604,0
DA:605,0
DA:607,0
DA:608,0
DA:610,0
DA:611,0
DA:612,0
DA:614,0
DA:615,0
DA:616,0
DA:617,0
DA:618,0
DA:621,0
DA:622,0
DA:623,0
DA:624,0
DA:626,2
DA:627,2
DA:628,2
DA:629,2
DA:630,2
DA:633,2
DA:634,2
DA:635,2
DA:636,5
DA:637,1
DA:638,1
DA:639,1
DA:640,1
DA:642,1
DA:643,1
DA:644,1
DA:645,1
DA:646,1
DA:647,1
DA:649,1
DA:650,1
DA:651,1
DA:652,1
DA:653,1
DA:654,1
DA:655,1
DA:656,1
DA:657,1
DA:658,1
DA:659,1
DA:660,1
DA:661,1
DA:663,0
DA:664,2
DA:665,2
DA:666,2
DA:668,3
DA:669,3
DA:670,3
DA:671,3
DA:672,3
DA:673,3
DA:674,3
DA:675,8
DA:676,3
DA:677,3
DA:678,3
DA:679,3
DA:681,7
DA:682,7
DA:683,7
DA:684,7
DA:685,7
DA:686,7
DA:687,7
DA:688,7
DA:689,7
DA:690,7
DA:691,7
DA:692,7
DA:693,7
DA:694,7
DA:695,7
DA:696,7
DA:698,0
DA:699,0
DA:700,0
DA:701,0
DA:702,0
DA:703,0
DA:704,0
DA:705,0
DA:706,0
DA:707,0
DA:708,0
DA:709,0
DA:710,0
DA:711,0
DA:712,0
DA:713,0
DA:714,0
DA:715,0
DA:717,0
DA:718,0
DA:719,0
DA:720,0
DA:721,0
DA:724,0
DA:726,0
DA:727,0
DA:728,0
DA:729,0
DA:730,0
DA:731,0
DA:734,0
DA:736,0
DA:738,0
DA:739,0
DA:740,0
DA:741,0
DA:742,0
DA:743,0
DA:744,0
DA:745,0
DA:746,0
DA:747,0
DA:748,0
DA:749,0
DA:750,0
DA:752,0
DA:753,0
DA:754,0
DA:755,0
DA:756,0
DA:757,0
DA:758,0
DA:759,0
DA:760,0
DA:762,0
DA:764,0
DA:765,0
DA:766,0
DA:767,0
DA:768,0
DA:769,0
DA:770,0
DA:771,0
DA:772,0
DA:773,0
DA:775,0
DA:776,0
DA:777,0
DA:779,1
DA:780,1
DA:782,1
DA:783,1
DA:784,1
DA:785,1
DA:786,1
DA:787,1
DA:789,1
DA:790,0
DA:791,1
DA:792,1
BRF:0
BRH:0
LF:660
LH:358
end_of_record
SF:/app/implants/imix/src/assets.rs
FN:3,_RNvMNtCsa7Dhx6HaxLb_4imix6assetsNtB2_5Asset3get
FN:3,_RNvMNtCshYyER8Nev1x_4imix6assetsNtB2_5Asset3get
FNDA:0,_RNvMNtCsa7Dhx6HaxLb_4imix6assetsNtB2_5Asset3get
FNDA:0,_RNvMNtCshYyER8Nev1x_4imix6assetsNtB2_5Asset3get
FNF:1
FNH:0
DA:3,0
BRF:0
BRH:0
LF:1
LH:0
end_of_record
SF:/app/implants/imix/src/install.rs
FN:61,_RNCNvNtNtCshYyER8Nev1x_4imix7install5testss_22test_install_execution0B7_
FN:9,_RNvNtCshYyER8Nev1x_4imix7install7install
FN:9,_RNCNvNtCshYyER8Nev1x_4imix7install7install0B5_
FN:61,_RNvNtNtCshYyER8Nev1x_4imix7install5testss_22test_install_execution
FNDA:1,_RNCNvNtNtCshYyER8Nev1x_4imix7install5testss_22test_install_execution0B7_
FNDA:1,_RNvNtCshYyER8Nev1x_4imix7install7install
FNDA:1,_RNCNvNtCshYyER8Nev1x_4imix7install7install0B5_
FNDA:1,_RNvNtNtCshYyER8Nev1x_4imix7install5testss_22test_install_execution
FNF:4
FNH:4
DA:9,1
DA:11,1
DA:12,1
DA:15,2
DA:17,2
DA:19,1
DA:21,1
DA:22,1
DA:25,0
DA:26,0
DA:31,1
DA:34,1
DA:35,1
DA:36,1
DA:37,1
DA:39,1
DA:42,0
DA:44,1
DA:46,1
DA:49,1
DA:52,1
DA:53,1
DA:61,1
DA:62,1
DA:65,1
DA:66,1
BRF:0
BRH:0
LF:29
LH:26
end_of_record
SF:/app/implants/imix/src/lib.rs
FN:24,_RNCNvCsa7Dhx6HaxLb_4imix9lib_entry0B3_
FN:13,lib_entry
FNDA:0,_RNCNvCsa7Dhx6HaxLb_4imix9lib_entry0B3_
FNDA:0,lib_entry
FNF:2
FNH:0
DA:13,0
DA:15,0
DA:19,0
DA:20,0
DA:21,0
DA:22,0
DA:24,0
DA:25,0
DA:26,0
DA:27,0
BRF:0
BRH:0
LF:11
LH:0
end_of_record
SF:/app/implants/imix/src/main.rs
FN:49,_RNCNCNvCshYyER8Nev1x_4imix4main00B5_
FN:35,_RNCNvCshYyER8Nev1x_4imix4main0B3_
FN:35,_RNvCshYyER8Nev1x_4imix4main
FNDA:0,_RNCNCNvCshYyER8Nev1x_4imix4main00B5_
FNDA:0,_RNCNvCshYyER8Nev1x_4imix4main0B3_
FNDA:0,_RNvCshYyER8Nev1x_4imix4main
FNF:3
FNH:0
DA:35,0
DA:42,0
DA:44,0
DA:45,0
DA:46,0
DA:47,0
DA:48,0
DA:49,0
DA:50,0
DA:51,0
DA:52,0
DA:53,0
DA:54,0
DA:55,0
DA:56,0
DA:57,0
DA:58,0
DA:59,0
DA:60,0
DA:61,0
DA:62,0
DA:63,0
DA:64,0
DA:65,0
DA:66,0
BRF:0
BRH:0
LF:32
LH:0
end_of_record
SF:/app/implants/imix/src/portal/bytes.rs
FN:36,_RNCNCNvNtNtCsa7Dhx6HaxLb_4imix6portal5bytes17process_byte_mote00B9_
FN:11,_RNCNvNtNtCsa7Dhx6HaxLb_4imix6portal5bytes12handle_bytes0B7_
FN:27,_RNCNvNtNtCsa7Dhx6HaxLb_4imix6portal5bytes17process_byte_mote0B7_
FN:6,_RNvNtNtCsa7Dhx6HaxLb_4imix6portal5bytes12handle_bytes
FN:23,_RNvNtNtCsa7Dhx6HaxLb_4imix6portal5bytes17process_byte_mote
FN:36,_RNCNCNvNtNtCshYyER8Nev1x_4imix6portal5bytes17process_byte_mote00B9_
FN:11,_RNCNvNtNtCshYyER8Nev1x_4imix6portal5bytes12handle_bytes0B7_
FN:27,_RNCNvNtNtCshYyER8Nev1x_4imix6portal5bytes17process_byte_mote0B7_
FN:6,_RNvNtNtCshYyER8Nev1x_4imix6portal5bytes12handle_bytes
FN:23,_RNvNtNtCshYyER8Nev1x_4imix6portal5bytes17process_byte_mote
FNDA:0,_RNCNCNvNtNtCsa7Dhx6HaxLb_4imix6portal5bytes17process_byte_mote00B9_
FNDA:0,_RNCNvNtNtCsa7Dhx6HaxLb_4imix6portal5bytes12handle_bytes0B7_
FNDA:0,_RNCNvNtNtCsa7Dhx6HaxLb_4imix6portal5bytes17process_byte_mote0B7_
FNDA:0,_RNvNtNtCsa7Dhx6HaxLb_4imix6portal5bytes12handle_bytes
FNDA:0,_RNvNtNtCsa7Dhx6HaxLb_4imix6portal5bytes17process_byte_mote
FNDA:0,_RNCNCNvNtNtCshYyER8Nev1x_4imix6portal5bytes17process_byte_mote00B9_
FNDA:0,_RNCNvNtNtCshYyER8Nev1x_4imix6portal5bytes12handle_bytes0B7_
FNDA:0,_RNCNvNtNtCshYyER8Nev1x_4imix6portal5bytes17process_byte_mote0B7_
FNDA:0,_RNvNtNtCshYyER8Nev1x_4imix6portal5bytes12handle_bytes
FNDA:0,_RNvNtNtCshYyER8Nev1x_4imix6portal5bytes17process_byte_mote
FNF:5
FNH:0
DA:6,0
DA:7,0
DA:8,0
DA:9,0
DA:10,0
DA:11,0
DA:13,0
DA:16,0
DA:17,0
DA:20,0
DA:21,0
DA:23,0
DA:24,0
DA:25,0
DA:26,0
DA:27,0
DA:28,0
DA:29,0
DA:32,0
DA:33,0
DA:34,0
DA:35,0
DA:36,0
DA:38,0
DA:39,0
DA:40,0
DA:41,0
DA:42,0
DA:43,0
DA:45,0
DA:46,0
DA:47,0
BRF:0
BRH:0
LF:35
LH:0
end_of_record
SF:/app/implants/imix/src/portal/mod.rs
FN:16,_RNCNvNtCsa7Dhx6HaxLb_4imix6portal17run_create_portal0B5_
FN:12,_RNvNtCsa7Dhx6HaxLb_4imix6portal17run_create_portal
FN:12,_RNvNtCshYyER8Nev1x_4imix6portal17run_create_portal
FN:16,_RNCNvNtCshYyER8Nev1x_4imix6portal17run_create_portal0B5_
FNDA:0,_RNCNvNtCsa7Dhx6HaxLb_4imix6portal17run_create_portal0B5_
FNDA:0,_RNvNtCsa7Dhx6HaxLb_4imix6portal17run_create_portal
FNDA:0,_RNvNtCshYyER8Nev1x_4imix6portal17run_create_portal
FNDA:0,_RNCNvNtCshYyER8Nev1x_4imix6portal17run_create_portal0B5_
FNF:2
FNH:0
DA:12,0
DA:13,0
DA:14,0
DA:15,0
DA:16,0
DA:17,0
DA:18,0
BRF:0
BRH:0
LF:8
LH:0
end_of_record
SF:/app/implants/imix/src/portal/run.rs
FN:160,_RNCNCNvNtNtCsa7Dhx6HaxLb_4imix6portal3run20handle_incoming_mote00B9_
FN:200,_RNCNCNvNtNtCsa7Dhx6HaxLb_4imix6portal3run20handle_incoming_mote0s0_0B9_
FN:181,_RNCNCNvNtNtCsa7Dhx6HaxLb_4imix6portal3run20handle_incoming_mote0s_0B9_
FN:33,_RNCNCNvNtNtCsa7Dhx6HaxLb_4imix6portal3run3run00B9_
FN:257,_RNCNvNtNtCsa7Dhx6HaxLb_4imix6portal3run14stream_handler0B7_
FN:142,_RNCNvNtNtCsa7Dhx6HaxLb_4imix6portal3run20handle_incoming_mote0B7_
FN:27,_RNCNvNtNtCsa7Dhx6HaxLb_4imix6portal3run3run0B7_
FN:253,_RNvNtNtCsa7Dhx6HaxLb_4imix6portal3run14stream_handler
FN:238,_RNvNtNtCsa7Dhx6HaxLb_4imix6portal3run15add_trace_event
FN:136,_RNvNtNtCsa7Dhx6HaxLb_4imix6portal3run20handle_incoming_mote
FN:23,_RNvNtNtCsa7Dhx6HaxLb_4imix6portal3run3run
FN:253,_RNvNtNtCshYyER8Nev1x_4imix6portal3run14stream_handler
FN:238,_RNvNtNtCshYyER8Nev1x_4imix6portal3run15add_trace_event
FN:136,_RNvNtNtCshYyER8Nev1x_4imix6portal3run20handle_incoming_mote
FN:23,_RNvNtNtCshYyER8Nev1x_4imix6portal3run3run
FN:160,_RNCNCNvNtNtCshYyER8Nev1x_4imix6portal3run20handle_incoming_mote00B9_
FN:200,_RNCNCNvNtNtCshYyER8Nev1x_4imix6portal3run20handle_incoming_mote0s0_0B9_
FN:181,_RNCNCNvNtNtCshYyER8Nev1x_4imix6portal3run20handle_incoming_mote0s_0B9_
FN:33,_RNCNCNvNtNtCshYyER8Nev1x_4imix6portal3run3run00B9_
FN:257,_RNCNvNtNtCshYyER8Nev1x_4imix6portal3run14stream_handler0B7_
FN:142,_RNCNvNtNtCshYyER8Nev1x_4imix6portal3run20handle_incoming_mote0B7_
FN:27,_RNCNvNtNtCshYyER8Nev1x_4imix6portal3run3run0B7_
FNDA:0,_RNCNCNvNtNtCsa7Dhx6HaxLb_4imix6portal3run20handle_incoming_mote00B9_
FNDA:0,_RNCNCNvNtNtCsa7Dhx6HaxLb_4imix6portal3run20handle_incoming_mote0s0_0B9_
FNDA:0,_RNCNCNvNtNtCsa7Dhx6HaxLb_4imix6portal3run20handle_incoming_mote0s_0B9_
FNDA:0,_RNCNCNvNtNtCsa7Dhx6HaxLb_4imix6portal3run3run00B9_
FNDA:0,_RNCNvNtNtCsa7Dhx6HaxLb_4imix6portal3run14stream_handler0B7_
FNDA:0,_RNCNvNtNtCsa7Dhx6HaxLb_4imix6portal3run20handle_incoming_mote0B7_
FNDA:0,_RNCNvNtNtCsa7Dhx6HaxLb_4imix6portal3run3run0B7_
FNDA:0,_RNvNtNtCsa7Dhx6HaxLb_4imix6portal3run14stream_handler
FNDA:0,_RNvNtNtCsa7Dhx6HaxLb_4imix6portal3run15add_trace_event
FNDA:0,_RNvNtNtCsa7Dhx6HaxLb_4imix6portal3run20handle_incoming_mote
FNDA:0,_RNvNtNtCsa7Dhx6HaxLb_4imix6portal3run3run
FNDA:0,_RNvNtNtCshYyER8Nev1x_4imix6portal3run14stream_handler
FNDA:0,_RNvNtNtCshYyER8Nev1x_4imix6portal3run15add_trace_event
FNDA:0,_RNvNtNtCshYyER8Nev1x_4imix6portal3run20handle_incoming_mote
FNDA:0,_RNvNtNtCshYyER8Nev1x_4imix6portal3run3run
FNDA:0,_RNCNCNvNtNtCshYyER8Nev1x_4imix6portal3run20handle_incoming_mote00B9_
FNDA:0,_RNCNCNvNtNtCshYyER8Nev1x_4imix6portal3run20handle_incoming_mote0s0_0B9_
FNDA:0,_RNCNCNvNtNtCshYyER8Nev1x_4imix6portal3run20handle_incoming_mote0s_0B9_
FNDA:0,_RNCNCNvNtNtCshYyER8Nev1x_4imix6portal3run3run00B9_
FNDA:0,_RNCNvNtNtCshYyER8Nev1x_4imix6portal3run14stream_handler0B7_
FNDA:0,_RNCNvNtNtCshYyER8Nev1x_4imix6portal3run20handle_incoming_mote0B7_
FNDA:0,_RNCNvNtNtCshYyER8Nev1x_4imix6portal3run3run0B7_
FNF:11
FNH:0
DA:23,0
DA:24,0
DA:25,0
DA:26,0
DA:27,0
DA:28,0
DA:29,0
DA:33,0
DA:34,0
DA:36,0
DA:37,0
DA:39,0
DA:40,0
DA:44,0
DA:47,0
DA:50,0
DA:52,0
DA:53,0
DA:54,0
DA:55,0
DA:56,0
DA:60,0
DA:61,0
DA:62,0
DA:63,0
DA:64,0
DA:65,0
DA:68,0
DA:69,0
DA:70,0
DA:71,0
DA:72,0
DA:75,0
DA:77,0
DA:78,0
DA:79,0
DA:81,0
DA:82,0
DA:84,0
DA:85,0
DA:86,0
DA:91,0
DA:92,0
DA:98,0
DA:99,0
DA:100,0
DA:101,0
DA:102,0
DA:103,0
DA:104,0
DA:107,0
DA:108,0
DA:109,0
DA:110,0
DA:111,0
DA:113,0
DA:114,0
DA:115,0
DA:119,0
DA:120,0
DA:128,0
DA:129,0
DA:130,0
DA:131,0
DA:133,0
DA:134,0
DA:136,0
DA:137,0
DA:138,0
DA:139,0
DA:140,0
DA:141,0
DA:142,0
DA:144,0
DA:145,0
DA:148,0
DA:151,0
DA:154,0
DA:157,0
DA:158,0
DA:159,0
DA:160,0
DA:161,0
DA:162,0
DA:165,0
DA:166,0
DA:167,0
DA:168,0
DA:169,0
DA:170,0
DA:171,0
DA:172,0
DA:174,0
DA:177,0
DA:180,0
DA:181,0
DA:182,0
DA:183,0
DA:184,0
DA:185,0
DA:186,0
DA:187,0
DA:191,0
DA:192,0
DA:194,0
DA:197,0
DA:198,0
DA:200,0
DA:201,0
DA:203,0
DA:204,0
DA:206,0
DA:207,0
DA:208,0
DA:209,0
DA:211,0
DA:215,0
DA:216,0
DA:217,0
DA:218,0
DA:222,0
DA:223,0
DA:226,0
DA:227,0
DA:228,0
DA:229,0
DA:231,0
DA:235,0
DA:236,0
DA:238,0
DA:239,0
DA:240,0
DA:242,0
DA:243,0
DA:244,0
DA:245,0
DA:247,0
DA:248,0
DA:249,0
DA:250,0
DA:251,0
DA:253,0
DA:254,0
DA:255,0
DA:256,0
DA:257,0
DA:259,0
DA:260,0
DA:261,0
DA:264,0
DA:267,0
DA:268,0
DA:269,0
DA:270,0
DA:271,0
DA:274,0
DA:275,0
DA:280,0
DA:281,0
DA:283,0
BRF:0
BRH:0
LF:167
LH:0
end_of_record
SF:/app/implants/imix/src/portal/tcp.rs
FN:10,_RNvNtNtCsa7Dhx6HaxLb_4imix6portal3tcp10handle_tcp
FN:59,_RNCNCNvNtNtCsa7Dhx6HaxLb_4imix6portal3tcp10handle_tcp00B9_
FN:15,_RNCNvNtNtCsa7Dhx6HaxLb_4imix6portal3tcp10handle_tcp0B7_
FN:59,_RNCNCNvNtNtCshYyER8Nev1x_4imix6portal3tcp10handle_tcp00B9_
FN:15,_RNCNvNtNtCshYyER8Nev1x_4imix6portal3tcp10handle_tcp0B7_
FN:10,_RNvNtNtCshYyER8Nev1x_4imix6portal3tcp10handle_tcp
FNDA:0,_RNvNtNtCsa7Dhx6HaxLb_4imix6portal3tcp10handle_tcp
FNDA:0,_RNCNCNvNtNtCsa7Dhx6HaxLb_4imix6portal3tcp10handle_tcp00B9_
FNDA:0,_RNCNvNtNtCsa7Dhx6HaxLb_4imix6portal3tcp10handle_tcp0B7_
FNDA:0,_RNCNCNvNtNtCshYyER8Nev1x_4imix6portal3tcp10handle_tcp00B9_
FNDA:0,_RNCNvNtNtCshYyER8Nev1x_4imix6portal3tcp10handle_tcp0B7_
FNDA:0,_RNvNtNtCshYyER8Nev1x_4imix6portal3tcp10handle_tcp
FNF:3
FNH:0
DA:10,0
DA:11,0
DA:12,0
DA:13,0
DA:14,0
DA:15,0
DA:17,0
DA:18,0
DA:20,0
DA:23,0
DA:26,0
DA:28,0
DA:29,0
DA:30,0
DA:33,0
DA:34,0
DA:35,0
DA:38,0
DA:39,0
DA:41,0
DA:44,0
DA:47,0
DA:48,0
DA:49,0
DA:53,0
DA:54,0
DA:57,0
DA:59,0
DA:60,0
DA:62,0
DA:65,0
DA:66,0
DA:68,0
DA:70,0
DA:71,0
DA:72,0
DA:75,0
DA:76,0
DA:77,0
DA:79,0
DA:80,0
DA:83,0
DA:84,0
DA:86,0
DA:88,0
DA:89,0
DA:93,0
DA:96,0
DA:97,0
DA:98,0
DA:101,0
DA:103,0
DA:106,0
DA:108,0
DA:110,0
DA:112,0
DA:115,0
DA:119,0
DA:120,0
DA:122,0
DA:123,0
BRF:0
BRH:0
LF:63
LH:0
end_of_record
SF:/app/implants/imix/src/portal/udp.rs
FN:59,_RNCNCNvNtNtCsa7Dhx6HaxLb_4imix6portal3udp10handle_udp00B9_
FN:15,_RNCNvNtNtCsa7Dhx6HaxLb_4imix6portal3udp10handle_udp0B7_
FN:10,_RNvNtNtCsa7Dhx6HaxLb_4imix6portal3udp10handle_udp
FN:59,_RNCNCNvNtNtCshYyER8Nev1x_4imix6portal3udp10handle_udp00B9_
FN:15,_RNCNvNtNtCshYyER8Nev1x_4imix6portal3udp10handle_udp0B7_
FN:10,_RNvNtNtCshYyER8Nev1x_4imix6portal3udp10handle_udp
FNDA:0,_RNCNCNvNtNtCsa7Dhx6HaxLb_4imix6portal3udp10handle_udp00B9_
FNDA:0,_RNCNvNtNtCsa7Dhx6HaxLb_4imix6portal3udp10handle_udp0B7_
FNDA:0,_RNvNtNtCsa7Dhx6HaxLb_4imix6portal3udp10handle_udp
FNDA:0,_RNCNCNvNtNtCshYyER8Nev1x_4imix6portal3udp10handle_udp00B9_
FNDA:0,_RNCNvNtNtCshYyER8Nev1x_4imix6portal3udp10handle_udp0B7_
FNDA:0,_RNvNtNtCshYyER8Nev1x_4imix6portal3udp10handle_udp
FNF:3
FNH:0
DA:10,0
DA:11,0
DA:12,0
DA:13,0
DA:14,0
DA:15,0
DA:17,0
DA:18,0
DA:20,0
DA:23,0
DA:26,0
DA:29,0
DA:30,0
DA:31,0
DA:34,0
DA:36,0
DA:37,0
DA:38,0
DA:39,0
DA:42,0
DA:44,0
DA:47,0
DA:48,0
DA:49,0
DA:52,0
DA:53,0
DA:54,0
DA:57,0
DA:59,0
DA:60,0
DA:62,0
DA:63,0
DA:64,0
DA:65,0
DA:66,0
DA:68,0
DA:69,0
DA:72,0
DA:73,0
DA:75,0
DA:77,0
DA:81,0
DA:84,0
DA:85,0
DA:86,0
DA:88,0
DA:89,0
DA:90,0
DA:92,0
DA:94,0
DA:97,0
DA:101,0
DA:103,0
DA:104,0
BRF:0
BRH:0
LF:56
LH:0
end_of_record
SF:/app/implants/imix/src/printer.rs
FN:11,_RNvMNtCsa7Dhx6HaxLb_4imix7printerNtB2_13StreamPrinter3new
FN:22,_RNvXs_NtCsa7Dhx6HaxLb_4imix7printerNtB4_13StreamPrinterNtNtNtCsjTRrhfWa0WU_13eldritch_core11interpreter7printer7Printer9print_err
FN:17,_RNvXs_NtCsa7Dhx6HaxLb_4imix7printerNtB4_13StreamPrinterNtNtNtCsjTRrhfWa0WU_13eldritch_core11interpreter7printer7Printer9print_out
FN:11,_RNvMNtCshYyER8Nev1x_4imix7printerNtB2_13StreamPrinter3new
FN:22,_RNvXs_NtCshYyER8Nev1x_4imix7printerNtB4_13StreamPrinterNtNtNtCsjTRrhfWa0WU_13eldritch_core11interpreter7printer7Printer9print_err
FN:17,_RNvXs_NtCshYyER8Nev1x_4imix7printerNtB4_13StreamPrinterNtNtNtCsjTRrhfWa0WU_13eldritch_core11interpreter7printer7Printer9print_out
FNDA:0,_RNvMNtCsa7Dhx6HaxLb_4imix7printerNtB2_13StreamPrinter3new
FNDA:0,_RNvXs_NtCsa7Dhx6HaxLb_4imix7printerNtB4_13StreamPrinterNtNtNtCsjTRrhfWa0WU_13eldritch_core11interpreter7printer7Printer9print_err
FNDA:0,_RNvXs_NtCsa7Dhx6HaxLb_4imix7printerNtB4_13StreamPrinterNtNtNtCsjTRrhfWa0WU_13eldritch_core11interpreter7printer7Printer9print_out
FNDA:5,_RNvMNtCshYyER8Nev1x_4imix7printerNtB2_13StreamPrinter3new
FNDA:1,_RNvXs_NtCshYyER8Nev1x_4imix7printerNtB4_13StreamPrinterNtNtNtCsjTRrhfWa0WU_13eldritch_core11interpreter7printer7Printer9print_err
FNDA:5,_RNvXs_NtCshYyER8Nev1x_4imix7printerNtB4_13StreamPrinterNtNtNtCsjTRrhfWa0WU_13eldritch_core11interpreter7printer7Printer9print_out
FNF:3
FNH:3
DA:11,5
DA:12,5
DA:13,5
DA:17,5
DA:19,5
DA:20,5
DA:22,1
DA:24,1
DA:25,1
BRF:0
BRH:0
LF:9
LH:9
end_of_record
SF:/app/implants/imix/src/run.rs
FN:125,_RNCNvNtCsa7Dhx6HaxLb_4imix3run13process_tasks0B5_
FN:95,_RNCNvNtCsa7Dhx6HaxLb_4imix3run15run_agent_cycle0B5_
FN:139,_RNCNvNtCsa7Dhx6HaxLb_4imix3run22sleep_until_next_cycle0B5_
FN:15,_RNCNvNtCsa7Dhx6HaxLb_4imix3run9run_agent0B5_
FN:83,_RNvNtCsa7Dhx6HaxLb_4imix3run11init_logger
FN:125,_RNvNtCsa7Dhx6HaxLb_4imix3run13process_tasks
FN:95,_RNvNtCsa7Dhx6HaxLb_4imix3run15run_agent_cycle
FN:139,_RNvNtCsa7Dhx6HaxLb_4imix3run22sleep_until_next_cycle
FN:15,_RNvNtCsa7Dhx6HaxLb_4imix3run9run_agent
FN:83,_RNvNtCshYyER8Nev1x_4imix3run11init_logger
FN:125,_RNvNtCshYyER8Nev1x_4imix3run13process_tasks
FN:95,_RNvNtCshYyER8Nev1x_4imix3run15run_agent_cycle
FN:139,_RNvNtCshYyER8Nev1x_4imix3run22sleep_until_next_cycle
FN:15,_RNvNtCshYyER8Nev1x_4imix3run9run_agent
FN:125,_RNCNvNtCshYyER8Nev1x_4imix3run13process_tasks0B5_
FN:95,_RNCNvNtCshYyER8Nev1x_4imix3run15run_agent_cycle0B5_
FN:139,_RNCNvNtCshYyER8Nev1x_4imix3run22sleep_until_next_cycle0B5_
FN:15,_RNCNvNtCshYyER8Nev1x_4imix3run9run_agent0B5_
FNDA:0,_RNCNvNtCsa7Dhx6HaxLb_4imix3run13process_tasks0B5_
FNDA:0,_RNCNvNtCsa7Dhx6HaxLb_4imix3run15run_agent_cycle0B5_
FNDA:0,_RNCNvNtCsa7Dhx6HaxLb_4imix3run22sleep_until_next_cycle0B5_
FNDA:0,_RNCNvNtCsa7Dhx6HaxLb_4imix3run9run_agent0B5_
FNDA:0,_RNvNtCsa7Dhx6HaxLb_4imix3run11init_logger
FNDA:0,_RNvNtCsa7Dhx6HaxLb_4imix3run13process_tasks
FNDA:0,_RNvNtCsa7Dhx6HaxLb_4imix3run15run_agent_cycle
FNDA:0,_RNvNtCsa7Dhx6HaxLb_4imix3run22sleep_until_next_cycle
FNDA:0,_RNvNtCsa7Dhx6HaxLb_4imix3run9run_agent
FNDA:0,_RNvNtCshYyER8Nev1x_4imix3run11init_logger
FNDA:0,_RNvNtCshYyER8Nev1x_4imix3run13process_tasks
FNDA:0,_RNvNtCshYyER8Nev1x_4imix3run15run_agent_cycle
FNDA:0,_RNvNtCshYyER8Nev1x_4imix3run22sleep_until_next_cycle
FNDA:0,_RNvNtCshYyER8Nev1x_4imix3run9run_agent
FNDA:0,_RNCNvNtCshYyER8Nev1x_4imix3run13process_tasks0B5_
FNDA:0,_RNCNvNtCshYyER8Nev1x_4imix3run15run_agent_cycle0B5_
FNDA:0,_RNCNvNtCshYyER8Nev1x_4imix3run22sleep_until_next_cycle0B5_
FNDA:0,_RNCNvNtCshYyER8Nev1x_4imix3run9run_agent0B5_
FNF:9
FNH:0
DA:15,0
DA:16,0
DA:19,0
DA:21,0
DA:23,0
DA:26,0
DA:28,0
DA:29,0
DA:31,0
DA:33,0
DA:34,0
DA:35,0
DA:36,0
DA:37,0
DA:38,0
DA:42,0
DA:43,0
DA:46,0
DA:49,0
DA:51,0
DA:52,0
DA:53,0
DA:54,0
DA:56,0
DA:58,0
DA:59,0
DA:60,0
DA:62,0
DA:63,0
DA:64,0
DA:66,0
DA:68,0
DA:69,0
DA:73,0
DA:74,0
DA:78,0
DA:80,0
DA:81,0
DA:83,0
DA:87,0
DA:88,0
DA:89,0
DA:90,0
DA:91,0
DA:93,0
DA:95,0
DA:97,0
DA:100,0
DA:102,0
DA:103,0
DA:104,0
DA:106,0
DA:107,0
DA:108,0
DA:113,0
DA:116,0
DA:119,0
DA:122,0
DA:123,0
DA:125,0
DA:126,0
DA:129,0
DA:131,0
DA:133,0
DA:134,0
DA:137,0
DA:139,0
DA:140,0
DA:141,0
DA:144,0
DA:147,0
DA:150,0
DA:151,0
DA:153,0
DA:156,0
DA:157,0
DA:163,0
DA:164,0
DA:165,0
BRF:0
BRH:0
LF:83
LH:0
end_of_record
SF:/app/implants/imix/src/shell/manager.rs
FN:384,_RNvNtNtNtCsa7Dhx6HaxLb_4imix5shell7manager5testss_35test_shell_manager_normal_execution
FN:393,_RNCNCNCNvNtNtNtCsa7Dhx6HaxLb_4imix5shell7manager5testss_35test_shell_manager_normal_execution000Bd_
FN:402,_RNCNCNCNvNtNtNtCsa7Dhx6HaxLb_4imix5shell7manager5testss_35test_shell_manager_normal_execution00s_0Bd_
FN:390,_RNCNCNvNtNtNtCsa7Dhx6HaxLb_4imix5shell7manager5testss_35test_shell_manager_normal_execution00Bb_
FN:384,_RNCNvNtNtNtCsa7Dhx6HaxLb_4imix5shell7manager5testss_35test_shell_manager_normal_execution0B9_
FN:192,_RNvMs0_NtNtCsa7Dhx6HaxLb_4imix5shell7managerNtB5_12ShellManager11handle_task
FN:317,_RNvMs0_NtNtCsa7Dhx6HaxLb_4imix5shell7managerNtB5_12ShellManager17execute_interpret
FN:226,_RNvMs0_NtNtCsa7Dhx6HaxLb_4imix5shell7managerNtB5_12ShellManager18ensure_interpreter
FN:243,_RNvMs0_NtNtCsa7Dhx6HaxLb_4imix5shell7managerNtB5_12ShellManager20run_interpreter_loop
FN:207,_RNvMs0_NtNtCsa7Dhx6HaxLb_4imix5shell7managerNtB5_12ShellManager21handle_portal_payload
FN:357,_RNvMs0_NtNtCsa7Dhx6HaxLb_4imix5shell7managerNtB5_12ShellManager29cleanup_inactive_interpreters
FN:167,_RNvMs0_NtNtCsa7Dhx6HaxLb_4imix5shell7managerNtB5_12ShellManager3new
FN:175,_RNvMs0_NtNtCsa7Dhx6HaxLb_4imix5shell7managerNtB5_12ShellManager3run
FN:39,_RNvNtNtCsa7Dhx6HaxLb_4imix5shell7manager15dispatch_output
FN:121,_RNvXNtNtCsa7Dhx6HaxLb_4imix5shell7managerNtB2_12ShellPrinterNtNtCs4Vq2ZLagKfv_4core3fmt5Debug3fmt
FN:134,_RNvXs_NtNtCsa7Dhx6HaxLb_4imix5shell7managerNtB4_12ShellPrinterNtNtNtCsjTRrhfWa0WU_13eldritch_core11interpreter7printer7Printer9print_err
FN:129,_RNvXs_NtNtCsa7Dhx6HaxLb_4imix5shell7managerNtB4_12ShellPrinterNtNtNtCsjTRrhfWa0WU_13eldritch_core11interpreter7printer7Printer9print_out
FN:192,_RNCNvMs0_NtNtCsa7Dhx6HaxLb_4imix5shell7managerNtB7_12ShellManager11handle_task0Bb_
FN:324,_RNCNvMs0_NtNtCsa7Dhx6HaxLb_4imix5shell7managerNtB7_12ShellManager17execute_interpret0Bb_
FN:230,_RNCNvMs0_NtNtCsa7Dhx6HaxLb_4imix5shell7managerNtB7_12ShellManager18ensure_interpreter0Bb_
FN:207,_RNCNvMs0_NtNtCsa7Dhx6HaxLb_4imix5shell7managerNtB7_12ShellManager21handle_portal_payload0Bb_
FN:357,_RNCNvMs0_NtNtCsa7Dhx6HaxLb_4imix5shell7managerNtB7_12ShellManager29cleanup_inactive_interpreters0Bb_
FN:175,_RNCNvMs0_NtNtCsa7Dhx6HaxLb_4imix5shell7managerNtB7_12ShellManager3run0Bb_
FN:103,_RNCNvNtNtCsa7Dhx6HaxLb_4imix5shell7manager15dispatch_output0B7_
FN:192,_RNCNvMs0_NtNtCshYyER8Nev1x_4imix5shell7managerNtB7_12ShellManager11handle_task0Bb_
FN:324,_RNCNvMs0_NtNtCshYyER8Nev1x_4imix5shell7managerNtB7_12ShellManager17execute_interpret0Bb_
FN:230,_RNCNvMs0_NtNtCshYyER8Nev1x_4imix5shell7managerNtB7_12ShellManager18ensure_interpreter0Bb_
FN:207,_RNCNvMs0_NtNtCshYyER8Nev1x_4imix5shell7managerNtB7_12ShellManager21handle_portal_payload0Bb_
FN:357,_RNCNvMs0_NtNtCshYyER8Nev1x_4imix5shell7managerNtB7_12ShellManager29cleanup_inactive_interpreters0Bb_
FN:175,_RNCNvMs0_NtNtCshYyER8Nev1x_4imix5shell7managerNtB7_12ShellManager3run0Bb_
FN:103,_RNCNvNtNtCshYyER8Nev1x_4imix5shell7manager15dispatch_output0B7_
FN:384,_RNvNtNtNtCshYyER8Nev1x_4imix5shell7manager5testss_35test_shell_manager_normal_execution
FN:192,_RNvMs0_NtNtCshYyER8Nev1x_4imix5shell7managerNtB5_12ShellManager11handle_task
FN:317,_RNvMs0_NtNtCshYyER8Nev1x_4imix5shell7managerNtB5_12ShellManager17execute_interpret
FN:226,_RNvMs0_NtNtCshYyER8Nev1x_4imix5shell7managerNtB5_12ShellManager18ensure_interpreter
FN:243,_RNvMs0_NtNtCshYyER8Nev1x_4imix5shell7managerNtB5_12ShellManager20run_interpreter_loop
FN:207,_RNvMs0_NtNtCshYyER8Nev1x_4imix5shell7managerNtB5_12ShellManager21handle_portal_payload
FN:357,_RNvMs0_NtNtCshYyER8Nev1x_4imix5shell7managerNtB5_12ShellManager29cleanup_inactive_interpreters
FN:167,_RNvMs0_NtNtCshYyER8Nev1x_4imix5shell7managerNtB5_12ShellManager3new
FN:175,_RNvMs0_NtNtCshYyER8Nev1x_4imix5shell7managerNtB5_12ShellManager3run
FN:39,_RNvNtNtCshYyER8Nev1x_4imix5shell7manager15dispatch_output
FN:121,_RNvXNtNtCshYyER8Nev1x_4imix5shell7managerNtB2_12ShellPrinterNtNtCs4Vq2ZLagKfv_4core3fmt5Debug3fmt
FN:134,_RNvXs_NtNtCshYyER8Nev1x_4imix5shell7managerNtB4_12ShellPrinterNtNtNtCsjTRrhfWa0WU_13eldritch_core11interpreter7printer7Printer9print_err
FN:129,_RNvXs_NtNtCshYyER8Nev1x_4imix5shell7managerNtB4_12ShellPrinterNtNtNtCsjTRrhfWa0WU_13eldritch_core11interpreter7printer7Printer9print_out
FN:393,_RNCNCNCNvNtNtNtCshYyER8Nev1x_4imix5shell7manager5testss_35test_shell_manager_normal_execution000Bd_
FN:402,_RNCNCNCNvNtNtNtCshYyER8Nev1x_4imix5shell7manager5testss_35test_shell_manager_normal_execution00s_0Bd_
FN:390,_RNCNCNvNtNtNtCshYyER8Nev1x_4imix5shell7manager5testss_35test_shell_manager_normal_execution00Bb_
FN:384,_RNCNvNtNtNtCshYyER8Nev1x_4imix5shell7manager5testss_35test_shell_manager_normal_execution0B9_
FNDA:1,_RNvNtNtNtCsa7Dhx6HaxLb_4imix5shell7manager5testss_35test_shell_manager_normal_execution
FNDA:1,_RNCNCNCNvNtNtNtCsa7Dhx6HaxLb_4imix5shell7manager5testss_35test_shell_manager_normal_execution000Bd_
FNDA:1,_RNCNCNCNvNtNtNtCsa7Dhx6HaxLb_4imix5shell7manager5testss_35test_shell_manager_normal_execution00s_0Bd_
FNDA:1,_RNCNCNvNtNtNtCsa7Dhx6HaxLb_4imix5shell7manager5testss_35test_shell_manager_normal_execution00Bb_
FNDA:1,_RNCNvNtNtNtCsa7Dhx6HaxLb_4imix5shell7manager5testss_35test_shell_manager_normal_execution0B9_
FNDA:1,_RNvMs0_NtNtCsa7Dhx6HaxLb_4imix5shell7managerNtB5_12ShellManager11handle_task
FNDA:1,_RNvMs0_NtNtCsa7Dhx6HaxLb_4imix5shell7managerNtB5_12ShellManager17execute_interpret
FNDA:1,_RNvMs0_NtNtCsa7Dhx6HaxLb_4imix5shell7managerNtB5_12ShellManager18ensure_interpreter
FNDA:1,_RNvMs0_NtNtCsa7Dhx6HaxLb_4imix5shell7managerNtB5_12ShellManager20run_interpreter_loop
FNDA:0,_RNvMs0_NtNtCsa7Dhx6HaxLb_4imix5shell7managerNtB5_12ShellManager21handle_portal_payload
FNDA:1,_RNvMs0_NtNtCsa7Dhx6HaxLb_4imix5shell7managerNtB5_12ShellManager29cleanup_inactive_interpreters
FNDA:1,_RNvMs0_NtNtCsa7Dhx6HaxLb_4imix5shell7managerNtB5_12ShellManager3new
FNDA:1,_RNvMs0_NtNtCsa7Dhx6HaxLb_4imix5shell7managerNtB5_12ShellManager3run
FNDA:1,_RNvNtNtCsa7Dhx6HaxLb_4imix5shell7manager15dispatch_output
FNDA:0,_RNvXNtNtCsa7Dhx6HaxLb_4imix5shell7managerNtB2_12ShellPrinterNtNtCs4Vq2ZLagKfv_4core3fmt5Debug3fmt
FNDA:0,_RNvXs_NtNtCsa7Dhx6HaxLb_4imix5shell7managerNtB4_12ShellPrinterNtNtNtCsjTRrhfWa0WU_13eldritch_core11interpreter7printer7Printer9print_err
FNDA:0,_RNvXs_NtNtCsa7Dhx6HaxLb_4imix5shell7managerNtB4_12ShellPrinterNtNtNtCsjTRrhfWa0WU_13eldritch_core11interpreter7printer7Printer9print_out
FNDA:1,_RNCNvMs0_NtNtCsa7Dhx6HaxLb_4imix5shell7managerNtB7_12ShellManager11handle_task0Bb_
FNDA:1,_RNCNvMs0_NtNtCsa7Dhx6HaxLb_4imix5shell7managerNtB7_12ShellManager17execute_interpret0Bb_
FNDA:1,_RNCNvMs0_NtNtCsa7Dhx6HaxLb_4imix5shell7managerNtB7_12ShellManager18ensure_interpreter0Bb_
FNDA:0,_RNCNvMs0_NtNtCsa7Dhx6HaxLb_4imix5shell7managerNtB7_12ShellManager21handle_portal_payload0Bb_
FNDA:1,_RNCNvMs0_NtNtCsa7Dhx6HaxLb_4imix5shell7managerNtB7_12ShellManager29cleanup_inactive_interpreters0Bb_
FNDA:1,_RNCNvMs0_NtNtCsa7Dhx6HaxLb_4imix5shell7managerNtB7_12ShellManager3run0Bb_
FNDA:0,_RNCNvNtNtCsa7Dhx6HaxLb_4imix5shell7manager15dispatch_output0B7_
FNDA:1,_RNCNvMs0_NtNtCshYyER8Nev1x_4imix5shell7managerNtB7_12ShellManager11handle_task0Bb_
FNDA:1,_RNCNvMs0_NtNtCshYyER8Nev1x_4imix5shell7managerNtB7_12ShellManager17execute_interpret0Bb_
FNDA:1,_RNCNvMs0_NtNtCshYyER8Nev1x_4imix5shell7managerNtB7_12ShellManager18ensure_interpreter0Bb_
FNDA:0,_RNCNvMs0_NtNtCshYyER8Nev1x_4imix5shell7managerNtB7_12ShellManager21handle_portal_payload0Bb_
FNDA:1,_RNCNvMs0_NtNtCshYyER8Nev1x_4imix5shell7managerNtB7_12ShellManager29cleanup_inactive_interpreters0Bb_
FNDA:1,_RNCNvMs0_NtNtCshYyER8Nev1x_4imix5shell7managerNtB7_12ShellManager3run0Bb_
FNDA:0,_RNCNvNtNtCshYyER8Nev1x_4imix5shell7manager15dispatch_output0B7_
FNDA:1,_RNvNtNtNtCshYyER8Nev1x_4imix5shell7manager5testss_35test_shell_manager_normal_execution
FNDA:1,_RNvMs0_NtNtCshYyER8Nev1x_4imix5shell7managerNtB5_12ShellManager11handle_task
FNDA:1,_RNvMs0_NtNtCshYyER8Nev1x_4imix5shell7managerNtB5_12ShellManager17execute_interpret
FNDA:1,_RNvMs0_NtNtCshYyER8Nev1x_4imix5shell7managerNtB5_12ShellManager18ensure_interpreter
FNDA:1,_RNvMs0_NtNtCshYyER8Nev1x_4imix5shell7managerNtB5_12ShellManager20run_interpreter_loop
FNDA:0,_RNvMs0_NtNtCshYyER8Nev1x_4imix5shell7managerNtB5_12ShellManager21handle_portal_payload
FNDA:1,_RNvMs0_NtNtCshYyER8Nev1x_4imix5shell7managerNtB5_12ShellManager29cleanup_inactive_interpreters
FNDA:1,_RNvMs0_NtNtCshYyER8Nev1x_4imix5shell7managerNtB5_12ShellManager3new
FNDA:1,_RNvMs0_NtNtCshYyER8Nev1x_4imix5shell7managerNtB5_12ShellManager3run
FNDA:1,_RNvNtNtCshYyER8Nev1x_4imix5shell7manager15dispatch_output
FNDA:0,_RNvXNtNtCshYyER8Nev1x_4imix5shell7managerNtB2_12ShellPrinterNtNtCs4Vq2ZLagKfv_4core3fmt5Debug3fmt
FNDA:0,_RNvXs_NtNtCshYyER8Nev1x_4imix5shell7managerNtB4_12ShellPrinterNtNtNtCsjTRrhfWa0WU_13eldritch_core11interpreter7printer7Printer9print_err
FNDA:0,_RNvXs_NtNtCshYyER8Nev1x_4imix5shell7managerNtB4_12ShellPrinterNtNtNtCsjTRrhfWa0WU_13eldritch_core11interpreter7printer7Printer9print_out
FNDA:1,_RNCNCNCNvNtNtNtCshYyER8Nev1x_4imix5shell7manager5testss_35test_shell_manager_normal_execution000Bd_
FNDA:1,_RNCNCNCNvNtNtNtCshYyER8Nev1x_4imix5shell7manager5testss_35test_shell_manager_normal_execution00s_0Bd_
FNDA:1,_RNCNCNvNtNtNtCshYyER8Nev1x_4imix5shell7manager5testss_35test_shell_manager_normal_execution00Bb_
FNDA:1,_RNCNvNtNtNtCshYyER8Nev1x_4imix5shell7manager5testss_35test_shell_manager_normal_execution0B9_
FNF:24
FNH:18
DA:39,2
DA:40,2
DA:41,2
DA:42,2
DA:43,2
DA:44,2
DA:45,2
DA:46,2
DA:47,2
DA:48,2
DA:49,0
DA:50,0
DA:51,0
DA:53,2
DA:56,2
DA:57,2
DA:58,2
DA:59,2
DA:60,2
DA:61,2
DA:64,2
DA:65,2
DA:66,2
DA:67,2
DA:68,2
DA:69,2
DA:70,2
DA:71,2
DA:73,2
DA:75,0
DA:76,0
DA:80,2
DA:83,0
DA:84,0
DA:85,0
DA:87,0
DA:88,0
DA:89,0
DA:90,0
DA:91,0
DA:93,0
DA:95,0
DA:97,0
DA:98,0
DA:99,0
DA:100,0
DA:101,0
DA:102,0
DA:103,0
DA:104,0
DA:106,0
DA:107,0
DA:108,0
DA:110,0
DA:112,2
DA:121,0
DA:122,0
DA:123,0
DA:124,0
DA:125,0
DA:129,0
DA:130,0
DA:131,0
DA:132,0
DA:134,0
DA:135,0
DA:136,0
DA:137,0
DA:167,2
DA:168,2
DA:169,2
DA:170,2
DA:171,2
DA:172,2
DA:173,2
DA:175,2
DA:176,2
DA:179,6
DA:180,6
DA:181,2
DA:182,2
DA:183,0
DA:184,0
DA:187,6
DA:190,0
DA:192,2
DA:193,2
DA:194,2
DA:195,2
DA:196,2
DA:197,2
DA:198,2
DA:199,2
DA:200,2
DA:201,2
DA:202,2
DA:203,2
DA:204,0
DA:205,2
DA:207,0
DA:208,0
DA:209,0
DA:210,0
DA:211,0
DA:212,0
DA:213,0
DA:214,0
DA:215,0
DA:216,0
DA:217,0
DA:218,0
DA:219,0
DA:220,0
DA:221,0
DA:222,0
DA:223,0
DA:224,0
DA:226,2
DA:227,2
DA:228,2
DA:229,2
DA:230,2
DA:231,2
DA:232,2
DA:233,2
DA:234,2
DA:235,2
DA:236,2
DA:237,2
DA:238,2
DA:240,0
DA:241,2
DA:243,2
DA:244,2
DA:245,2
DA:246,2
DA:247,2
DA:248,2
DA:249,2
DA:250,2
DA:251,2
DA:252,2
DA:253,2
DA:255,2
DA:256,2
DA:257,2
DA:258,2
DA:259,2
DA:261,2
DA:262,2
DA:263,2
DA:264,2
DA:265,2
DA:266,2
DA:267,2
DA:270,4
DA:271,2
DA:273,2
DA:274,2
DA:275,2
DA:276,2
DA:277,2
DA:278,2
DA:279,2
DA:280,2
DA:281,2
DA:282,2
DA:283,2
DA:284,2
DA:285,2
DA:286,2
DA:287,2
DA:288,2
DA:289,2
DA:291,0
DA:292,0
DA:293,0
DA:294,0
DA:295,0
DA:296,0
DA:297,0
DA:298,0
DA:299,0
DA:300,0
DA:301,0
DA:302,0
DA:303,0
DA:304,0
DA:305,0
DA:306,0
DA:307,0
DA:308,0
DA:309,0
DA:310,0
DA:311,0
DA:312,0
DA:315,2
DA:317,2
DA:318,2
DA:319,2
DA:320,2
DA:321,2
DA:322,2
DA:323,2
DA:324,2
DA:326,2
DA:327,2
DA:328,2
DA:329,2
DA:330,2
DA:331,2
DA:333,0
DA:334,0
DA:335,0
DA:336,0
DA:337,0
DA:338,0
DA:339,0
DA:340,0
DA:343,0
DA:344,0
DA:345,0
DA:349,0
DA:351,0
DA:352,0
DA:355,2
DA:357,2
DA:358,2
DA:359,2
DA:360,2
DA:362,2
DA:363,2
DA:364,0
DA:365,2
DA:368,2
DA:369,0
DA:370,0
DA:371,0
DA:373,2
DA:384,2
DA:385,2
DA:386,2
DA:388,2
DA:389,2
DA:390,2
DA:391,2
DA:392,2
DA:393,2
DA:394,2
DA:395,2
DA:396,2
DA:397,0
DA:398,0
DA:399,0
DA:400,2
DA:401,2
DA:402,2
DA:403,2
DA:404,2
DA:406,2
DA:408,2
DA:409,2
DA:410,2
DA:411,2
DA:412,2
DA:413,2
DA:414,2
DA:417,2
DA:419,2
DA:420,2
DA:421,2
DA:422,2
DA:423,2
DA:424,2
DA:425,2
DA:426,2
DA:429,2
DA:430,2
DA:431,2
DA:435,2
DA:436,2
DA:437,2
DA:438,2
DA:439,2
DA:440,2
DA:441,2
DA:442,2
BRF:0
BRH:0
LF:302
LH:194
end_of_record
SF:/app/implants/imix/src/shell/parser.rs
FN:9,_RNvXNtNtCsa7Dhx6HaxLb_4imix5shell6parserNtB2_11InputParserNtNtCs4Vq2ZLagKfv_4core7default7Default7default
FN:247,_RNvNtNtNtCsa7Dhx6HaxLb_4imix5shell6parser5testss_24test_input_parser_delete
FN:193,_RNvNtNtNtCsa7Dhx6HaxLb_4imix5shell6parser5testss_24test_input_parser_simple
FN:201,_RNvNtNtNtCsa7Dhx6HaxLb_4imix5shell6parser5testss_27test_input_parser_csi_arrow
FN:209,_RNvNtNtNtCsa7Dhx6HaxLb_4imix5shell6parser5testss_27test_input_parser_ss3_arrow
FN:217,_RNvNtNtNtCsa7Dhx6HaxLb_4imix5shell6parser5testss_30test_input_parser_split_packet
FN:255,_RNvNtNtNtCsa7Dhx6HaxLb_4imix5shell6parser5testss_37test_input_parser_home_end_ctrl_chars
FN:230,_RNvNtNtNtCsa7Dhx6HaxLb_4imix5shell6parser5testss_39test_input_parser_unknown_csi_swallowed
FN:15,_RNvMs_NtNtCsa7Dhx6HaxLb_4imix5shell6parserNtB4_11InputParser3new
FN:19,_RNvMs_NtNtCsa7Dhx6HaxLb_4imix5shell6parserNtB4_11InputParser5parse
FN:135,_RNvMs_NtNtCsa7Dhx6HaxLb_4imix5shell6parserNtB4_11InputParser9parse_csi
FN:175,_RNvMs_NtNtCsa7Dhx6HaxLb_4imix5shell6parserNtB4_11InputParser9parse_ss3
FN:247,_RNvNtNtNtCshYyER8Nev1x_4imix5shell6parser5testss_24test_input_parser_delete
FN:193,_RNvNtNtNtCshYyER8Nev1x_4imix5shell6parser5testss_24test_input_parser_simple
FN:201,_RNvNtNtNtCshYyER8Nev1x_4imix5shell6parser5testss_27test_input_parser_csi_arrow
FN:209,_RNvNtNtNtCshYyER8Nev1x_4imix5shell6parser5testss_27test_input_parser_ss3_arrow
FN:217,_RNvNtNtNtCshYyER8Nev1x_4imix5shell6parser5testss_30test_input_parser_split_packet
FN:255,_RNvNtNtNtCshYyER8Nev1x_4imix5shell6parser5testss_37test_input_parser_home_end_ctrl_chars
FN:230,_RNvNtNtNtCshYyER8Nev1x_4imix5shell6parser5testss_39test_input_parser_unknown_csi_swallowed
FN:9,_RNvXNtNtCshYyER8Nev1x_4imix5shell6parserNtB2_11InputParserNtNtCs4Vq2ZLagKfv_4core7default7Default7default
FN:15,_RNvMs_NtNtCshYyER8Nev1x_4imix5shell6parserNtB4_11InputParser3new
FN:19,_RNvMs_NtNtCshYyER8Nev1x_4imix5shell6parserNtB4_11InputParser5parse
FN:135,_RNvMs_NtNtCshYyER8Nev1x_4imix5shell6parserNtB4_11InputParser9parse_csi
FN:175,_RNvMs_NtNtCshYyER8Nev1x_4imix5shell6parserNtB4_11InputParser9parse_ss3
FNDA:0,_RNvXNtNtCsa7Dhx6HaxLb_4imix5shell6parserNtB2_11InputParserNtNtCs4Vq2ZLagKfv_4core7default7Default7default
FNDA:1,_RNvNtNtNtCsa7Dhx6HaxLb_4imix5shell6parser5testss_24test_input_parser_delete
FNDA:1,_RNvNtNtNtCsa7Dhx6HaxLb_4imix5shell6parser5testss_24test_input_parser_simple
FNDA:1,_RNvNtNtNtCsa7Dhx6HaxLb_4imix5shell6parser5testss_27test_input_parser_csi_arrow
FNDA:1,_RNvNtNtNtCsa7Dhx6HaxLb_4imix5shell6parser5testss_27test_input_parser_ss3_arrow
FNDA:1,_RNvNtNtNtCsa7Dhx6HaxLb_4imix5shell6parser5testss_30test_input_parser_split_packet
FNDA:1,_RNvNtNtNtCsa7Dhx6HaxLb_4imix5shell6parser5testss_37test_input_parser_home_end_ctrl_chars
FNDA:1,_RNvNtNtNtCsa7Dhx6HaxLb_4imix5shell6parser5testss_39test_input_parser_unknown_csi_swallowed
FNDA:7,_RNvMs_NtNtCsa7Dhx6HaxLb_4imix5shell6parserNtB4_11InputParser3new
FNDA:10,_RNvMs_NtNtCsa7Dhx6HaxLb_4imix5shell6parserNtB4_11InputParser5parse
FNDA:4,_RNvMs_NtNtCsa7Dhx6HaxLb_4imix5shell6parserNtB4_11InputParser9parse_csi
FNDA:1,_RNvMs_NtNtCsa7Dhx6HaxLb_4imix5shell6parserNtB4_11InputParser9parse_ss3
FNDA:1,_RNvNtNtNtCshYyER8Nev1x_4imix5shell6parser5testss_24test_input_parser_delete
FNDA:1,_RNvNtNtNtCshYyER8Nev1x_4imix5shell6parser5testss_24test_input_parser_simple
FNDA:1,_RNvNtNtNtCshYyER8Nev1x_4imix5shell6parser5testss_27test_input_parser_csi_arrow
FNDA:1,_RNvNtNtNtCshYyER8Nev1x_4imix5shell6parser5testss_27test_input_parser_ss3_arrow
FNDA:1,_RNvNtNtNtCshYyER8Nev1x_4imix5shell6parser5testss_30test_input_parser_split_packet
FNDA:1,_RNvNtNtNtCshYyER8Nev1x_4imix5shell6parser5testss_37test_input_parser_home_end_ctrl_chars
FNDA:1,_RNvNtNtNtCshYyER8Nev1x_4imix5shell6parser5testss_39test_input_parser_unknown_csi_swallowed
FNDA:0,_RNvXNtNtCshYyER8Nev1x_4imix5shell6parserNtB2_11InputParserNtNtCs4Vq2ZLagKfv_4core7default7Default7default
FNDA:7,_RNvMs_NtNtCshYyER8Nev1x_4imix5shell6parserNtB4_11InputParser3new
FNDA:10,_RNvMs_NtNtCshYyER8Nev1x_4imix5shell6parserNtB4_11InputParser5parse
FNDA:4,_RNvMs_NtNtCshYyER8Nev1x_4imix5shell6parserNtB4_11InputParser9parse_csi
FNDA:1,_RNvMs_NtNtCshYyER8Nev1x_4imix5shell6parserNtB4_11InputParser9parse_ss3
FNF:12
FNH:11
DA:9,0
DA:10,0
DA:11,0
DA:15,14
DA:16,14
DA:17,14
DA:19,20
DA:21,20
DA:23,20
DA:24,20
DA:28,46
DA:29,18
DA:30,28
DA:32,28
DA:34,28
DA:38,12
DA:40,0
DA:41,12
DA:43,12
DA:44,12
DA:48,10
DA:49,20
DA:50,20
DA:51,8
DA:52,8
DA:53,12
DA:56,10
DA:58,8
DA:59,8
DA:60,6
DA:61,6
DA:63,2
DA:66,8
DA:69,2
DA:72,0
DA:73,0
DA:74,0
DA:76,0
DA:79,2
DA:85,2
DA:86,0
DA:87,2
DA:88,2
DA:89,2
DA:90,2
DA:91,2
DA:92,2
DA:94,0
DA:96,2
DA:102,0
DA:103,0
DA:108,12
DA:109,0
DA:110,0
DA:111,0
DA:112,0
DA:113,0
DA:114,0
DA:115,0
DA:116,0
DA:117,0
DA:118,0
DA:119,0
DA:120,2
DA:121,2
DA:122,12
DA:126,0
DA:129,16
DA:132,20
DA:133,20
DA:135,8
DA:138,8
DA:139,0
DA:140,8
DA:142,8
DA:145,8
DA:146,4
DA:147,4
DA:148,0
DA:149,0
DA:150,0
DA:151,0
DA:152,0
DA:153,0
DA:155,4
DA:159,4
DA:161,2
DA:162,2
DA:163,2
DA:164,2
DA:165,2
DA:166,2
DA:167,0
DA:169,0
DA:170,2
DA:172,2
DA:173,8
DA:175,2
DA:176,2
DA:177,2
DA:178,0
DA:179,0
DA:180,0
DA:181,0
DA:182,0
DA:183,0
DA:185,2
DA:193,2
DA:194,2
DA:195,2
DA:196,2
DA:197,2
DA:198,2
DA:201,2
DA:202,2
DA:203,2
DA:204,2
DA:205,2
DA:206,2
DA:209,2
DA:210,2
DA:211,2
DA:212,2
DA:213,2
DA:214,2
DA:217,2
DA:218,2
DA:220,2
DA:221,2
DA:224,2
DA:225,2
DA:226,2
DA:227,2
DA:230,2
DA:231,2
DA:234,2
DA:235,2
DA:238,2
DA:241,2
DA:242,2
DA:243,2
DA:244,2
DA:247,2
DA:248,2
DA:249,2
DA:250,2
DA:251,2
DA:252,2
DA:255,2
DA:256,2
DA:258,2
DA:259,2
DA:260,2
DA:263,2
DA:264,2
DA:265,2
DA:266,2
BRF:0
BRH:0
LF:157
LH:118
end_of_record
SF:/app/implants/imix/src/shell/pty.rs
FN:11,_RNvNtNtCsa7Dhx6HaxLb_4imix5shell3pty21run_reverse_shell_pty
FN:102,_RNCNCNvNtNtCsa7Dhx6HaxLb_4imix5shell3pty21run_reverse_shell_pty00B9_
FN:15,_RNCNvNtNtCsa7Dhx6HaxLb_4imix5shell3pty21run_reverse_shell_pty0B7_
FN:11,_RNvNtNtCshYyER8Nev1x_4imix5shell3pty21run_reverse_shell_pty
FN:102,_RNCNCNvNtNtCshYyER8Nev1x_4imix5shell3pty21run_reverse_shell_pty00B9_
FN:15,_RNCNvNtNtCshYyER8Nev1x_4imix5shell3pty21run_reverse_shell_pty0B7_
FNDA:0,_RNvNtNtCsa7Dhx6HaxLb_4imix5shell3pty21run_reverse_shell_pty
FNDA:0,_RNCNCNvNtNtCsa7Dhx6HaxLb_4imix5shell3pty21run_reverse_shell_pty00B9_
FNDA:0,_RNCNvNtNtCsa7Dhx6HaxLb_4imix5shell3pty21run_reverse_shell_pty0B7_
FNDA:0,_RNvNtNtCshYyER8Nev1x_4imix5shell3pty21run_reverse_shell_pty
FNDA:0,_RNCNCNvNtNtCshYyER8Nev1x_4imix5shell3pty21run_reverse_shell_pty00B9_
FNDA:0,_RNCNvNtNtCshYyER8Nev1x_4imix5shell3pty21run_reverse_shell_pty0B7_
FNF:3
FNH:0
DA:11,0
DA:12,0
DA:13,0
DA:14,0
DA:15,0
DA:17,0
DA:18,0
DA:20,0
DA:23,0
DA:25,0
DA:26,0
DA:27,0
DA:28,0
DA:29,0
DA:33,0
DA:34,0
DA:35,0
DA:36,0
DA:37,0
DA:38,0
DA:39,0
DA:42,0
DA:43,0
DA:46,0
DA:49,0
DA:50,0
DA:51,0
DA:52,0
DA:53,0
DA:54,0
DA:55,0
DA:56,0
DA:57,0
DA:62,0
DA:63,0
DA:67,0
DA:68,0
DA:70,0
DA:78,0
DA:79,0
DA:80,0
DA:81,0
DA:85,0
DA:86,0
DA:87,0
DA:88,0
DA:91,0
DA:92,0
DA:93,0
DA:94,0
DA:100,0
DA:101,0
DA:102,0
DA:104,0
DA:105,0
DA:106,0
DA:107,0
DA:109,0
DA:110,0
DA:114,0
DA:115,0
DA:116,0
DA:117,0
DA:119,0
DA:120,0
DA:124,0
DA:127,0
DA:128,0
DA:130,0
DA:131,0
DA:132,0
DA:133,0
DA:134,0
DA:135,0
DA:136,0
DA:139,0
DA:140,0
DA:141,0
DA:144,0
DA:145,0
DA:146,0
DA:147,0
DA:148,0
DA:149,0
DA:150,0
DA:153,0
DA:154,0
DA:155,0
DA:157,0
DA:160,0
DA:161,0
DA:162,0
DA:163,0
DA:167,0
DA:169,0
DA:170,0
DA:171,0
DA:173,0
DA:174,0
DA:175,0
DA:176,0
DA:177,0
DA:178,0
DA:179,0
DA:180,0
DA:181,0
DA:182,0
DA:185,0
DA:186,0
DA:187,0
DA:188,0
DA:189,0
DA:191,0
DA:192,0
DA:194,0
DA:195,0
DA:199,0
DA:200,0
DA:201,0
DA:202,0
DA:205,0
DA:206,0
DA:207,0
BRF:0
BRH:0
LF:125
LH:0
end_of_record
SF:/app/implants/imix/src/shell/repl.rs
FN:56,_RNvMs_NtNtCsa7Dhx6HaxLb_4imix5shell4replNtB4_13StreamPrinter3new
FN:101,_RNvNtNtCsa7Dhx6HaxLb_4imix5shell4repl22run_repl_reverse_shell
FN:43,_RNvXNtNtCsa7Dhx6HaxLb_4imix5shell4replNtB2_8VtWriterNtNtCsbybZoRqqfIL_3std2io5Write5flush
FN:27,_RNvXNtNtCsa7Dhx6HaxLb_4imix5shell4replNtB2_8VtWriterNtNtCsbybZoRqqfIL_3std2io5Write5write
FN:69,_RNvXs0_NtNtCsa7Dhx6HaxLb_4imix5shell4replNtB5_13StreamPrinterNtNtNtCsjTRrhfWa0WU_13eldritch_core11interpreter7printer7Printer9print_err
FN:65,_RNvXs0_NtNtCsa7Dhx6HaxLb_4imix5shell4replNtB5_13StreamPrinterNtNtNtCsjTRrhfWa0WU_13eldritch_core11interpreter7printer7Printer9print_out
FN:74,_RINvNtNtCsa7Dhx6HaxLb_4imix5shell4repl6renderINtNtNtNtCsbybZoRqqfIL_3std2io8buffered9bufwriter9BufWriterNtB2_8VtWriterEEB6_
FN:148,_RNCNCNCNvNtNtCsa7Dhx6HaxLb_4imix5shell4repl22run_repl_reverse_shell000Bb_
FN:139,_RNCNCNvNtNtCsa7Dhx6HaxLb_4imix5shell4repl22run_repl_reverse_shell00B9_
FN:105,_RNCNvNtNtCsa7Dhx6HaxLb_4imix5shell4repl22run_repl_reverse_shell0B7_
FN:74,_RINvNtNtCshYyER8Nev1x_4imix5shell4repl6renderINtNtNtNtCsbybZoRqqfIL_3std2io8buffered9bufwriter9BufWriterNtB2_8VtWriterEEB6_
FN:148,_RNCNCNCNvNtNtCshYyER8Nev1x_4imix5shell4repl22run_repl_reverse_shell000Bb_
FN:139,_RNCNCNvNtNtCshYyER8Nev1x_4imix5shell4repl22run_repl_reverse_shell00B9_
FN:105,_RNCNvNtNtCshYyER8Nev1x_4imix5shell4repl22run_repl_reverse_shell0B7_
FN:56,_RNvMs_NtNtCshYyER8Nev1x_4imix5shell4replNtB4_13StreamPrinter3new
FN:101,_RNvNtNtCshYyER8Nev1x_4imix5shell4repl22run_repl_reverse_shell
FN:43,_RNvXNtNtCshYyER8Nev1x_4imix5shell4replNtB2_8VtWriterNtNtCsbybZoRqqfIL_3std2io5Write5flush
FN:27,_RNvXNtNtCshYyER8Nev1x_4imix5shell4replNtB2_8VtWriterNtNtCsbybZoRqqfIL_3std2io5Write5write
FN:69,_RNvXs0_NtNtCshYyER8Nev1x_4imix5shell4replNtB5_13StreamPrinterNtNtNtCsjTRrhfWa0WU_13eldritch_core11interpreter7printer7Printer9print_err
FN:65,_RNvXs0_NtNtCshYyER8Nev1x_4imix5shell4replNtB5_13StreamPrinterNtNtNtCsjTRrhfWa0WU_13eldritch_core11interpreter7printer7Printer9print_out
FNDA:0,_RNvMs_NtNtCsa7Dhx6HaxLb_4imix5shell4replNtB4_13StreamPrinter3new
FNDA:0,_RNvNtNtCsa7Dhx6HaxLb_4imix5shell4repl22run_repl_reverse_shell
FNDA:0,_RNvXNtNtCsa7Dhx6HaxLb_4imix5shell4replNtB2_8VtWriterNtNtCsbybZoRqqfIL_3std2io5Write5flush
FNDA:0,_RNvXNtNtCsa7Dhx6HaxLb_4imix5shell4replNtB2_8VtWriterNtNtCsbybZoRqqfIL_3std2io5Write5write
FNDA:0,_RNvXs0_NtNtCsa7Dhx6HaxLb_4imix5shell4replNtB5_13StreamPrinterNtNtNtCsjTRrhfWa0WU_13eldritch_core11interpreter7printer7Printer9print_err
FNDA:0,_RNvXs0_NtNtCsa7Dhx6HaxLb_4imix5shell4replNtB5_13StreamPrinterNtNtNtCsjTRrhfWa0WU_13eldritch_core11interpreter7printer7Printer9print_out
FNDA:0,_RINvNtNtCsa7Dhx6HaxLb_4imix5shell4repl6renderINtNtNtNtCsbybZoRqqfIL_3std2io8buffered9bufwriter9BufWriterNtB2_8VtWriterEEB6_
FNDA:0,_RNCNCNCNvNtNtCsa7Dhx6HaxLb_4imix5shell4repl22run_repl_reverse_shell000Bb_
FNDA:0,_RNCNCNvNtNtCsa7Dhx6HaxLb_4imix5shell4repl22run_repl_reverse_shell00B9_
FNDA:0,_RNCNvNtNtCsa7Dhx6HaxLb_4imix5shell4repl22run_repl_reverse_shell0B7_
FNDA:0,_RINvNtNtCshYyER8Nev1x_4imix5shell4repl6renderINtNtNtNtCsbybZoRqqfIL_3std2io8buffered9bufwriter9BufWriterNtB2_8VtWriterEEB6_
FNDA:0,_RNCNCNCNvNtNtCshYyER8Nev1x_4imix5shell4repl22run_repl_reverse_shell000Bb_
FNDA:0,_RNCNCNvNtNtCshYyER8Nev1x_4imix5shell4repl22run_repl_reverse_shell00B9_
FNDA:0,_RNCNvNtNtCshYyER8Nev1x_4imix5shell4repl22run_repl_reverse_shell0B7_
FNDA:0,_RNvMs_NtNtCshYyER8Nev1x_4imix5shell4replNtB4_13StreamPrinter3new
FNDA:0,_RNvNtNtCshYyER8Nev1x_4imix5shell4repl22run_repl_reverse_shell
FNDA:0,_RNvXNtNtCshYyER8Nev1x_4imix5shell4replNtB2_8VtWriterNtNtCsbybZoRqqfIL_3std2io5Write5flush
FNDA:0,_RNvXNtNtCshYyER8Nev1x_4imix5shell4replNtB2_8VtWriterNtNtCsbybZoRqqfIL_3std2io5Write5write
FNDA:0,_RNvXs0_NtNtCshYyER8Nev1x_4imix5shell4replNtB5_13StreamPrinterNtNtNtCsjTRrhfWa0WU_13eldritch_core11interpreter7printer7Printer9print_err
FNDA:0,_RNvXs0_NtNtCshYyER8Nev1x_4imix5shell4replNtB5_13StreamPrinterNtNtNtCsjTRrhfWa0WU_13eldritch_core11interpreter7printer7Printer9print_out
FNF:10
FNH:0
DA:27,0
DA:28,0
DA:29,0
DA:30,0
DA:31,0
DA:32,0
DA:35,0
DA:36,0
DA:37,0
DA:38,0
DA:39,0
DA:40,0
DA:41,0
DA:43,0
DA:44,0
DA:45,0
DA:56,0
DA:57,0
DA:58,0
DA:59,0
DA:60,0
DA:61,0
DA:65,0
DA:66,0
DA:67,0
DA:69,0
DA:70,0
DA:71,0
DA:74,0
DA:75,0
DA:76,0
DA:77,0
DA:78,0
DA:83,0
DA:84,0
DA:85,0
DA:86,0
DA:88,0
DA:89,0
DA:90,0
DA:91,0
DA:94,0
DA:95,0
DA:97,0
DA:98,0
DA:99,0
DA:101,0
DA:102,0
DA:103,0
DA:104,0
DA:105,0
DA:107,0
DA:108,0
DA:111,0
DA:113,0
DA:114,0
DA:115,0
DA:116,0
DA:117,0
DA:121,0
DA:122,0
DA:123,0
DA:124,0
DA:125,0
DA:126,0
DA:127,0
DA:130,0
DA:131,0
DA:134,0
DA:135,0
DA:136,0
DA:138,0
DA:139,0
DA:140,0
DA:141,0
DA:142,0
DA:144,0
DA:145,0
DA:146,0
DA:148,0
DA:149,0
DA:150,0
DA:153,0
DA:154,0
DA:155,0
DA:156,0
DA:158,0
DA:159,0
DA:160,0
DA:161,0
DA:163,0
DA:164,0
DA:165,0
DA:166,0
DA:167,0
DA:168,0
DA:169,0
DA:172,0
DA:173,0
DA:174,0
DA:175,0
DA:176,0
DA:177,0
DA:178,0
DA:179,0
DA:180,0
DA:181,0
DA:182,0
DA:183,0
DA:184,0
DA:185,0
DA:187,0
DA:188,0
DA:189,0
DA:190,0
DA:191,0
DA:192,0
DA:193,0
DA:194,0
DA:195,0
DA:196,0
DA:197,0
DA:198,0
DA:202,0
DA:203,0
DA:204,0
DA:206,0
DA:207,0
DA:208,0
DA:211,0
DA:212,0
DA:213,0
DA:215,0
DA:216,0
DA:217,0
DA:218,0
DA:220,0
DA:221,0
DA:222,0
DA:223,0
DA:224,0
DA:225,0
DA:226,0
DA:229,0
DA:230,0
DA:231,0
DA:232,0
DA:233,0
DA:234,0
DA:235,0
DA:236,0
DA:237,0
DA:238,0
DA:239,0
DA:240,0
DA:241,0
DA:242,0
DA:244,0
DA:245,0
DA:246,0
DA:247,0
DA:248,0
DA:249,0
DA:250,0
DA:251,0
DA:252,0
DA:253,0
DA:254,0
DA:255,0
DA:259,0
DA:260,0
DA:261,0
DA:263,0
DA:264,0
DA:265,0
DA:270,0
DA:271,0
DA:272,0
DA:274,0
DA:276,0
DA:277,0
DA:278,0
DA:279,0
DA:281,0
DA:282,0
DA:283,0
DA:284,0
DA:285,0
DA:286,0
DA:288,0
DA:291,0
DA:292,0
DA:294,0
DA:295,0
DA:296,0
DA:297,0
DA:298,0
DA:300,0
DA:301,0
DA:302,0
DA:303,0
DA:304,0
DA:305,0
DA:306,0
DA:307,0
DA:308,0
DA:309,0
DA:312,0
DA:313,0
DA:315,0
DA:317,0
DA:318,0
DA:319,0
DA:320,0
DA:321,0
DA:322,0
DA:323,0
DA:326,0
DA:327,0
DA:328,0
DA:329,0
DA:330,0
DA:331,0
DA:333,0
DA:334,0
DA:335,0
DA:337,0
DA:338,0
DA:341,0
DA:342,0
DA:343,0
DA:344,0
DA:345,0
DA:346,0
DA:348,0
DA:349,0
DA:350,0
DA:351,0
DA:352,0
DA:353,0
DA:355,0
DA:356,0
DA:358,0
DA:359,0
DA:360,0
DA:361,0
DA:362,0
DA:363,0
DA:364,0
DA:365,0
DA:366,0
DA:367,0
DA:368,0
DA:369,0
DA:370,0
DA:371,0
DA:372,0
DA:373,0
DA:374,0
DA:375,0
DA:376,0
DA:377,0
DA:378,0
DA:384,0
DA:385,0
DA:386,0
DA:387,0
DA:388,0
DA:391,0
DA:392,0
DA:393,0
DA:394,0
BRF:0
BRH:0
LF:275
LH:0
end_of_record
SF:/app/implants/imix/src/shell/terminal.rs
FN:272,_RNvNtNtNtCsa7Dhx6HaxLb_4imix5shell8terminal5testss_28test_render_backspace_at_end
FN:233,_RNvNtNtNtCsa7Dhx6HaxLb_4imix5shell8terminal5testss_29test_render_append_multi_char
FN:208,_RNvNtNtNtCsa7Dhx6HaxLb_4imix5shell8terminal5testss_30test_render_multi_line_history
FN:36,_RNvXNtNtCsa7Dhx6HaxLb_4imix5shell8terminalNtB2_8VtWriterNtNtCsbybZoRqqfIL_3std2io5Write5flush
FN:16,_RNvXNtNtCsa7Dhx6HaxLb_4imix5shell8terminalNtB2_8VtWriterNtNtCsbybZoRqqfIL_3std2io5Write5write
FN:55,_RINvNtNtCsa7Dhx6HaxLb_4imix5shell8terminal6renderINtNtCs456UZznmu7y_5alloc3vec3VechEEB6_
FN:36,_RNvXNtNtCshYyER8Nev1x_4imix5shell8terminalNtB2_8VtWriterNtNtCsbybZoRqqfIL_3std2io5Write5flush
FN:16,_RNvXNtNtCshYyER8Nev1x_4imix5shell8terminalNtB2_8VtWriterNtNtCsbybZoRqqfIL_3std2io5Write5write
FN:55,_RINvNtNtCshYyER8Nev1x_4imix5shell8terminal6renderINtNtCs456UZznmu7y_5alloc3vec3VechEEB6_
FN:272,_RNvNtNtNtCshYyER8Nev1x_4imix5shell8terminal5testss_28test_render_backspace_at_end
FN:233,_RNvNtNtNtCshYyER8Nev1x_4imix5shell8terminal5testss_29test_render_append_multi_char
FN:208,_RNvNtNtNtCshYyER8Nev1x_4imix5shell8terminal5testss_30test_render_multi_line_history
FNDA:1,_RNvNtNtNtCsa7Dhx6HaxLb_4imix5shell8terminal5testss_28test_render_backspace_at_end
FNDA:1,_RNvNtNtNtCsa7Dhx6HaxLb_4imix5shell8terminal5testss_29test_render_append_multi_char
FNDA:1,_RNvNtNtNtCsa7Dhx6HaxLb_4imix5shell8terminal5testss_30test_render_multi_line_history
FNDA:0,_RNvXNtNtCsa7Dhx6HaxLb_4imix5shell8terminalNtB2_8VtWriterNtNtCsbybZoRqqfIL_3std2io5Write5flush
FNDA:0,_RNvXNtNtCsa7Dhx6HaxLb_4imix5shell8terminalNtB2_8VtWriterNtNtCsbybZoRqqfIL_3std2io5Write5write
FNDA:3,_RINvNtNtCsa7Dhx6HaxLb_4imix5shell8terminal6renderINtNtCs456UZznmu7y_5alloc3vec3VechEEB6_
FNDA:0,_RNvXNtNtCshYyER8Nev1x_4imix5shell8terminalNtB2_8VtWriterNtNtCsbybZoRqqfIL_3std2io5Write5flush
FNDA:0,_RNvXNtNtCshYyER8Nev1x_4imix5shell8terminalNtB2_8VtWriterNtNtCsbybZoRqqfIL_3std2io5Write5write
FNDA:3,_RINvNtNtCshYyER8Nev1x_4imix5shell8terminal6renderINtNtCs456UZznmu7y_5alloc3vec3VechEEB6_
FNDA:1,_RNvNtNtNtCshYyER8Nev1x_4imix5shell8terminal5testss_28test_render_backspace_at_end
FNDA:1,_RNvNtNtNtCshYyER8Nev1x_4imix5shell8terminal5testss_29test_render_append_multi_char
FNDA:1,_RNvNtNtNtCshYyER8Nev1x_4imix5shell8terminal5testss_30test_render_multi_line_history
FNF:6
FNH:4
DA:16,0
DA:17,0
DA:19,0
DA:20,0
DA:21,0
DA:22,0
DA:23,0
DA:26,0
DA:27,0
DA:28,0
DA:29,0
DA:30,0
DA:31,0
DA:32,0
DA:34,0
DA:36,0
DA:37,0
DA:38,0
DA:39,0
DA:40,0
DA:41,0
DA:44,0
DA:45,0
DA:46,0
DA:47,0
DA:48,0
DA:49,0
DA:50,0
DA:52,0
DA:55,6
DA:56,6
DA:57,6
DA:58,6
DA:59,6
DA:60,6
DA:67,6
DA:69,4
DA:70,2
DA:71,2
DA:72,2
DA:74,2
DA:75,2
DA:76,2
DA:77,2
DA:78,2
DA:80,2
DA:81,2
DA:82,2
DA:83,0
DA:86,0
DA:87,0
DA:88,0
DA:89,0
DA:90,0
DA:91,0
DA:92,2
DA:99,2
DA:100,2
DA:101,2
DA:102,2
DA:104,2
DA:106,2
DA:107,2
DA:109,2
DA:112,2
DA:113,2
DA:114,2
DA:115,0
DA:116,0
DA:117,2
DA:120,2
DA:122,2
DA:123,2
DA:126,2
DA:127,2
DA:128,2
DA:131,2
DA:132,2
DA:135,2
DA:137,0
DA:138,0
DA:139,0
DA:141,0
DA:142,0
DA:143,0
DA:144,0
DA:146,0
DA:147,0
DA:149,0
DA:150,0
DA:151,0
DA:153,0
DA:157,0
DA:159,0
DA:160,0
DA:161,0
DA:163,0
DA:164,0
DA:165,0
DA:166,0
DA:167,0
DA:169,0
DA:170,0
DA:171,0
DA:172,0
DA:174,0
DA:175,0
DA:176,0
DA:177,0
DA:178,0
DA:180,0
DA:183,0
DA:184,0
DA:185,0
DA:186,0
DA:189,0
DA:190,2
DA:192,2
DA:193,2
DA:194,2
DA:195,2
DA:196,0
DA:198,2
DA:199,2
DA:200,6
DA:208,2
DA:210,2
DA:212,2
DA:213,2
DA:216,2
DA:219,2
DA:220,2
DA:222,2
DA:229,2
DA:230,2
DA:233,2
DA:234,2
DA:236,2
DA:237,2
DA:238,2
DA:241,2
DA:244,2
DA:245,2
DA:246,2
DA:250,2
DA:251,2
DA:253,2
DA:255,2
DA:258,2
DA:261,2
DA:262,2
DA:263,0
DA:268,2
DA:269,2
DA:272,2
DA:273,2
DA:275,2
DA:276,2
DA:277,2
DA:280,2
DA:283,2
DA:287,2
DA:288,2
DA:290,2
DA:292,2
DA:295,2
DA:298,2
DA:299,2
DA:300,0
DA:306,2
DA:307,2
DA:308,0
DA:311,2
BRF:0
BRH:0
LF:173
LH:94
end_of_record
SF:/app/implants/imix/src/task.rs
FN:99,_RNvMs_NtCsa7Dhx6HaxLb_4imix4taskNtB4_12TaskRegistry16register_subtask
FN:35,_RNvXNtCsa7Dhx6HaxLb_4imix4taskNtB2_12TaskRegistryNtNtCs4Vq2ZLagKfv_4core7default7Default7default
FN:84,_RNvMs_NtCsa7Dhx6HaxLb_4imix4taskNtB4_12TaskRegistry13register_task
FN:41,_RNvMs_NtCsa7Dhx6HaxLb_4imix4taskNtB4_12TaskRegistry3new
FN:120,_RNvMs_NtCsa7Dhx6HaxLb_4imix4taskNtB4_12TaskRegistry4list
FN:133,_RNvMs_NtCsa7Dhx6HaxLb_4imix4taskNtB4_12TaskRegistry4stop
FN:47,_RNvMs_NtCsa7Dhx6HaxLb_4imix4taskNtB4_12TaskRegistry5spawn
FN:147,_RNvNtCsa7Dhx6HaxLb_4imix4task12execute_task
FN:351,_RNvNtCsa7Dhx6HaxLb_4imix4task12report_panic
FN:233,_RNvNtCsa7Dhx6HaxLb_4imix4task12report_start
FN:379,_RNvNtCsa7Dhx6HaxLb_4imix4task13report_result
FN:206,_RNvNtCsa7Dhx6HaxLb_4imix4task17setup_interpreter
FN:264,_RNvNtCsa7Dhx6HaxLb_4imix4task21spawn_output_consumer
FN:125,_RNCNvMs_NtCsa7Dhx6HaxLb_4imix4taskNtB6_12TaskRegistry4list0B8_
FN:68,_RNCNvMs_NtCsa7Dhx6HaxLb_4imix4taskNtB6_12TaskRegistry5spawn0B8_
FN:177,_RNCNvNtCsa7Dhx6HaxLb_4imix4task12execute_task0B5_
FN:225,_RNCNvNtCsa7Dhx6HaxLb_4imix4task17setup_interpreter0B5_
FN:271,_RNCNvNtCsa7Dhx6HaxLb_4imix4task21spawn_output_consumer0B5_
FN:99,_RNvMs_NtCshYyER8Nev1x_4imix4taskNtB4_12TaskRegistry16register_subtask
FN:35,_RNvXNtCshYyER8Nev1x_4imix4taskNtB2_12TaskRegistryNtNtCs4Vq2ZLagKfv_4core7default7Default7default
FN:125,_RNCNvMs_NtCshYyER8Nev1x_4imix4taskNtB6_12TaskRegistry4list0B8_
FN:68,_RNCNvMs_NtCshYyER8Nev1x_4imix4taskNtB6_12TaskRegistry5spawn0B8_
FN:177,_RNCNvNtCshYyER8Nev1x_4imix4task12execute_task0B5_
FN:225,_RNCNvNtCshYyER8Nev1x_4imix4task17setup_interpreter0B5_
FN:271,_RNCNvNtCshYyER8Nev1x_4imix4task21spawn_output_consumer0B5_
FN:84,_RNvMs_NtCshYyER8Nev1x_4imix4taskNtB4_12TaskRegistry13register_task
FN:41,_RNvMs_NtCshYyER8Nev1x_4imix4taskNtB4_12TaskRegistry3new
FN:120,_RNvMs_NtCshYyER8Nev1x_4imix4taskNtB4_12TaskRegistry4list
FN:133,_RNvMs_NtCshYyER8Nev1x_4imix4taskNtB4_12TaskRegistry4stop
FN:47,_RNvMs_NtCshYyER8Nev1x_4imix4taskNtB4_12TaskRegistry5spawn
FN:147,_RNvNtCshYyER8Nev1x_4imix4task12execute_task
FN:351,_RNvNtCshYyER8Nev1x_4imix4task12report_panic
FN:233,_RNvNtCshYyER8Nev1x_4imix4task12report_start
FN:379,_RNvNtCshYyER8Nev1x_4imix4task13report_result
FN:206,_RNvNtCshYyER8Nev1x_4imix4task17setup_interpreter
FN:264,_RNvNtCshYyER8Nev1x_4imix4task21spawn_output_consumer
FNDA:0,_RNvMs_NtCsa7Dhx6HaxLb_4imix4taskNtB4_12TaskRegistry16register_subtask
FNDA:0,_RNvXNtCsa7Dhx6HaxLb_4imix4taskNtB2_12TaskRegistryNtNtCs4Vq2ZLagKfv_4core7default7Default7default
FNDA:0,_RNvMs_NtCsa7Dhx6HaxLb_4imix4taskNtB4_12TaskRegistry13register_task
FNDA:1,_RNvMs_NtCsa7Dhx6HaxLb_4imix4taskNtB4_12TaskRegistry3new
FNDA:0,_RNvMs_NtCsa7Dhx6HaxLb_4imix4taskNtB4_12TaskRegistry4list
FNDA:0,_RNvMs_NtCsa7Dhx6HaxLb_4imix4taskNtB4_12TaskRegistry4stop
FNDA:0,_RNvMs_NtCsa7Dhx6HaxLb_4imix4taskNtB4_12TaskRegistry5spawn
FNDA:0,_RNvNtCsa7Dhx6HaxLb_4imix4task12execute_task
FNDA:0,_RNvNtCsa7Dhx6HaxLb_4imix4task12report_panic
FNDA:0,_RNvNtCsa7Dhx6HaxLb_4imix4task12report_start
FNDA:0,_RNvNtCsa7Dhx6HaxLb_4imix4task13report_result
FNDA:0,_RNvNtCsa7Dhx6HaxLb_4imix4task17setup_interpreter
FNDA:0,_RNvNtCsa7Dhx6HaxLb_4imix4task21spawn_output_consumer
FNDA:0,_RNCNvMs_NtCsa7Dhx6HaxLb_4imix4taskNtB6_12TaskRegistry4list0B8_
FNDA:0,_RNCNvMs_NtCsa7Dhx6HaxLb_4imix4taskNtB6_12TaskRegistry5spawn0B8_
FNDA:0,_RNCNvNtCsa7Dhx6HaxLb_4imix4task12execute_task0B5_
FNDA:0,_RNCNvNtCsa7Dhx6HaxLb_4imix4task17setup_interpreter0B5_
FNDA:0,_RNCNvNtCsa7Dhx6HaxLb_4imix4task21spawn_output_consumer0B5_
FNDA:0,_RNvMs_NtCshYyER8Nev1x_4imix4taskNtB4_12TaskRegistry16register_subtask
FNDA:0,_RNvXNtCshYyER8Nev1x_4imix4taskNtB2_12TaskRegistryNtNtCs4Vq2ZLagKfv_4core7default7Default7default
FNDA:1,_RNCNvMs_NtCshYyER8Nev1x_4imix4taskNtB6_12TaskRegistry4list0B8_
FNDA:5,_RNCNvMs_NtCshYyER8Nev1x_4imix4taskNtB6_12TaskRegistry5spawn0B8_
FNDA:4,_RNCNvNtCshYyER8Nev1x_4imix4task12execute_task0B5_
FNDA:0,_RNCNvNtCshYyER8Nev1x_4imix4task17setup_interpreter0B5_
FNDA:4,_RNCNvNtCshYyER8Nev1x_4imix4task21spawn_output_consumer0B5_
FNDA:5,_RNvMs_NtCshYyER8Nev1x_4imix4taskNtB4_12TaskRegistry13register_task
FNDA:22,_RNvMs_NtCshYyER8Nev1x_4imix4taskNtB4_12TaskRegistry3new
FNDA:2,_RNvMs_NtCshYyER8Nev1x_4imix4taskNtB4_12TaskRegistry4list
FNDA:2,_RNvMs_NtCshYyER8Nev1x_4imix4taskNtB4_12TaskRegistry4stop
FNDA:5,_RNvMs_NtCshYyER8Nev1x_4imix4taskNtB4_12TaskRegistry5spawn
FNDA:5,_RNvNtCshYyER8Nev1x_4imix4task12execute_task
FNDA:0,_RNvNtCshYyER8Nev1x_4imix4task12report_panic
FNDA:4,_RNvNtCshYyER8Nev1x_4imix4task12report_start
FNDA:4,_RNvNtCshYyER8Nev1x_4imix4task13report_result
FNDA:5,_RNvNtCshYyER8Nev1x_4imix4task17setup_interpreter
FNDA:4,_RNvNtCshYyER8Nev1x_4imix4task21spawn_output_consumer
FNF:18
FNH:14
DA:35,0
DA:36,0
DA:37,0
DA:41,23
DA:42,23
DA:43,23
DA:44,23
DA:45,23
DA:47,5
DA:48,5
DA:49,5
DA:50,5
DA:51,5
DA:52,5
DA:56,5
DA:57,0
DA:58,5
DA:60,5
DA:62,5
DA:66,5
DA:68,5
DA:69,5
DA:70,5
DA:71,5
DA:73,0
DA:78,5
DA:79,5
DA:80,5
DA:81,5
DA:82,5
DA:84,5
DA:85,5
DA:86,5
DA:87,0
DA:88,5
DA:89,5
DA:90,5
DA:91,5
DA:92,5
DA:93,5
DA:94,5
DA:95,5
DA:96,5
DA:97,5
DA:99,0
DA:100,0
DA:101,0
DA:102,0
DA:103,0
DA:104,0
DA:105,0
DA:106,0
DA:107,0
DA:108,0
DA:109,0
DA:110,0
DA:111,0
DA:112,0
DA:116,0
DA:118,0
DA:120,2
DA:121,2
DA:122,2
DA:123,2
DA:124,2
DA:125,1
DA:126,1
DA:127,1
DA:128,1
DA:129,1
DA:130,2
DA:131,2
DA:133,2
DA:134,2
DA:135,2
DA:137,1
DA:139,1
DA:140,1
DA:141,0
DA:142,0
DA:143,1
DA:144,2
DA:147,5
DA:148,5
DA:149,5
DA:150,5
DA:151,5
DA:152,5
DA:154,5
DA:155,5
DA:156,5
DA:157,5
DA:159,5
DA:160,5
DA:161,0
DA:165,5
DA:168,5
DA:169,5
DA:170,5
DA:171,5
DA:172,5
DA:173,5
DA:177,5
DA:178,4
DA:179,4
DA:182,5
DA:183,5
DA:186,5
DA:187,5
DA:188,0
DA:190,0
DA:191,0
DA:198,5
DA:199,5
DA:200,0
DA:201,0
DA:202,0
DA:204,5
DA:206,5
DA:207,5
DA:208,5
DA:209,5
DA:210,5
DA:211,5
DA:212,5
DA:215,5
DA:217,5
DA:219,5
DA:222,5
DA:223,5
DA:224,5
DA:225,5
DA:226,5
DA:227,5
DA:228,5
DA:230,5
DA:231,5
DA:233,4
DA:234,4
DA:235,4
DA:236,0
DA:240,4
DA:242,4
DA:243,4
DA:244,4
DA:245,4
DA:246,4
DA:247,4
DA:248,4
DA:249,4
DA:250,4
DA:251,4
DA:252,4
DA:253,4
DA:254,4
DA:255,4
DA:256,4
DA:257,0
DA:259,0
DA:262,4
DA:264,4
DA:265,4
DA:266,4
DA:267,4
DA:268,4
DA:269,4
DA:270,4
DA:271,4
DA:272,4
DA:273,4
DA:274,0
DA:278,4
DA:279,4
DA:280,4
DA:283,14
DA:284,14
DA:285,9
DA:286,5
DA:287,5
DA:288,5
DA:289,5
DA:290,5
DA:291,5
DA:292,5
DA:293,5
DA:294,5
DA:295,5
DA:296,5
DA:297,5
DA:298,5
DA:299,5
DA:300,5
DA:301,5
DA:302,0
DA:304,0
DA:308,4
DA:309,4
DA:310,4
DA:313,14
DA:314,5
DA:315,1
DA:316,1
DA:317,1
DA:318,1
DA:319,1
DA:320,1
DA:321,1
DA:322,1
DA:323,1
DA:324,1
DA:325,1
DA:326,1
DA:327,1
DA:328,1
DA:329,1
DA:330,1
DA:331,0
DA:333,0
DA:337,4
DA:338,4
DA:339,4
DA:344,14
DA:345,4
DA:346,10
DA:348,4
DA:349,4
DA:351,0
DA:352,0
DA:353,0
DA:354,0
DA:357,0
DA:358,0
DA:359,0
DA:360,0
DA:361,0
DA:362,0
DA:363,0
DA:364,0
DA:365,0
DA:366,0
DA:367,0
DA:368,0
DA:369,0
DA:370,0
DA:371,0
DA:372,0
DA:374,0
DA:377,0
DA:379,4
DA:380,4
DA:381,4
DA:382,0
DA:385,4
DA:386,3
DA:388,3
DA:390,3
DA:391,3
DA:392,3
DA:393,3
DA:394,3
DA:395,3
DA:396,3
DA:397,3
DA:398,3
DA:399,3
DA:400,3
DA:401,3
DA:402,3
DA:403,3
DA:405,1
DA:407,1
DA:409,1
DA:410,1
DA:411,1
DA:412,1
DA:413,1
DA:414,1
DA:415,1
DA:416,1
DA:417,1
DA:418,1
DA:419,1
DA:420,1
DA:421,1
DA:422,1
DA:423,1
DA:424,0
DA:426,0
DA:431,4
BRF:0
BRH:0
LF:293
LH:228
end_of_record
SF:/app/implants/lib/eldritch/eldritch-core/src/analysis.rs
FN:11,_RNvMNtCsjTRrhfWa0WU_13eldritch_core8analysisNtB2_4Node4span
FN:111,_RNvNtCsjTRrhfWa0WU_13eldritch_core8analysis12find_in_expr
FN:31,_RNvNtCsjTRrhfWa0WU_13eldritch_core8analysis12find_in_stmt
FN:19,_RNvNtCsjTRrhfWa0WU_13eldritch_core8analysis19find_node_at_offset
FN:159,_RNCNCNvNtCsjTRrhfWa0WU_13eldritch_core8analysis12find_in_exprs1_00B7_
FN:160,_RNCNCNvNtCsjTRrhfWa0WU_13eldritch_core8analysis12find_in_exprs2_00B7_
FN:161,_RNCNCNvNtCsjTRrhfWa0WU_13eldritch_core8analysis12find_in_exprs3_00B7_
FN:185,_RNCNCNvNtCsjTRrhfWa0WU_13eldritch_core8analysis12find_in_exprs5_00B7_
FN:195,_RNCNCNvNtCsjTRrhfWa0WU_13eldritch_core8analysis12find_in_exprs8_00B7_
FN:118,_RNCNvNtCsjTRrhfWa0WU_13eldritch_core8analysis12find_in_expr0B5_
FN:155,_RNCNvNtCsjTRrhfWa0WU_13eldritch_core8analysis12find_in_exprs0_0B5_
FN:159,_RNCNvNtCsjTRrhfWa0WU_13eldritch_core8analysis12find_in_exprs1_0B5_
FN:160,_RNCNvNtCsjTRrhfWa0WU_13eldritch_core8analysis12find_in_exprs2_0B5_
FN:161,_RNCNvNtCsjTRrhfWa0WU_13eldritch_core8analysis12find_in_exprs3_0B5_
FN:184,_RNCNvNtCsjTRrhfWa0WU_13eldritch_core8analysis12find_in_exprs4_0B5_
FN:185,_RNCNvNtCsjTRrhfWa0WU_13eldritch_core8analysis12find_in_exprs5_0B5_
FN:193,_RNCNvNtCsjTRrhfWa0WU_13eldritch_core8analysis12find_in_exprs6_0B5_
FN:194,_RNCNvNtCsjTRrhfWa0WU_13eldritch_core8analysis12find_in_exprs7_0B5_
FN:195,_RNCNvNtCsjTRrhfWa0WU_13eldritch_core8analysis12find_in_exprs8_0B5_
FN:225,_RNCNvNtCsjTRrhfWa0WU_13eldritch_core8analysis12find_in_exprs9_0B5_
FN:121,_RNCNvNtCsjTRrhfWa0WU_13eldritch_core8analysis12find_in_exprs_0B5_
FN:226,_RNCNvNtCsjTRrhfWa0WU_13eldritch_core8analysis12find_in_exprsa_0B5_
FN:159,_RNCNCNvNtCs3OupGlkSanV_13eldritch_core8analysis12find_in_exprs1_00B7_
FN:160,_RNCNCNvNtCs3OupGlkSanV_13eldritch_core8analysis12find_in_exprs2_00B7_
FN:161,_RNCNCNvNtCs3OupGlkSanV_13eldritch_core8analysis12find_in_exprs3_00B7_
FN:185,_RNCNCNvNtCs3OupGlkSanV_13eldritch_core8analysis12find_in_exprs5_00B7_
FN:195,_RNCNCNvNtCs3OupGlkSanV_13eldritch_core8analysis12find_in_exprs8_00B7_
FN:118,_RNCNvNtCs3OupGlkSanV_13eldritch_core8analysis12find_in_expr0B5_
FN:155,_RNCNvNtCs3OupGlkSanV_13eldritch_core8analysis12find_in_exprs0_0B5_
FN:159,_RNCNvNtCs3OupGlkSanV_13eldritch_core8analysis12find_in_exprs1_0B5_
FN:160,_RNCNvNtCs3OupGlkSanV_13eldritch_core8analysis12find_in_exprs2_0B5_
FN:161,_RNCNvNtCs3OupGlkSanV_13eldritch_core8analysis12find_in_exprs3_0B5_
FN:184,_RNCNvNtCs3OupGlkSanV_13eldritch_core8analysis12find_in_exprs4_0B5_
FN:185,_RNCNvNtCs3OupGlkSanV_13eldritch_core8analysis12find_in_exprs5_0B5_
FN:193,_RNCNvNtCs3OupGlkSanV_13eldritch_core8analysis12find_in_exprs6_0B5_
FN:194,_RNCNvNtCs3OupGlkSanV_13eldritch_core8analysis12find_in_exprs7_0B5_
FN:195,_RNCNvNtCs3OupGlkSanV_13eldritch_core8analysis12find_in_exprs8_0B5_
FN:225,_RNCNvNtCs3OupGlkSanV_13eldritch_core8analysis12find_in_exprs9_0B5_
FN:121,_RNCNvNtCs3OupGlkSanV_13eldritch_core8analysis12find_in_exprs_0B5_
FN:226,_RNCNvNtCs3OupGlkSanV_13eldritch_core8analysis12find_in_exprsa_0B5_
FN:11,_RNvMNtCs3OupGlkSanV_13eldritch_core8analysisNtB2_4Node4span
FN:111,_RNvNtCs3OupGlkSanV_13eldritch_core8analysis12find_in_expr
FN:31,_RNvNtCs3OupGlkSanV_13eldritch_core8analysis12find_in_stmt
FN:19,_RNvNtCs3OupGlkSanV_13eldritch_core8analysis19find_node_at_offset
FNDA:0,_RNvMNtCsjTRrhfWa0WU_13eldritch_core8analysisNtB2_4Node4span
FNDA:6,_RNvNtCsjTRrhfWa0WU_13eldritch_core8analysis12find_in_expr
FNDA:5,_RNvNtCsjTRrhfWa0WU_13eldritch_core8analysis12find_in_stmt
FNDA:5,_RNvNtCsjTRrhfWa0WU_13eldritch_core8analysis19find_node_at_offset
FNDA:0,_RNCNCNvNtCsjTRrhfWa0WU_13eldritch_core8analysis12find_in_exprs1_00B7_
FNDA:0,_RNCNCNvNtCsjTRrhfWa0WU_13eldritch_core8analysis12find_in_exprs2_00B7_
FNDA:0,_RNCNCNvNtCsjTRrhfWa0WU_13eldritch_core8analysis12find_in_exprs3_00B7_
FNDA:0,_RNCNCNvNtCsjTRrhfWa0WU_13eldritch_core8analysis12find_in_exprs5_00B7_
FNDA:0,_RNCNCNvNtCsjTRrhfWa0WU_13eldritch_core8analysis12find_in_exprs8_00B7_
FNDA:0,_RNCNvNtCsjTRrhfWa0WU_13eldritch_core8analysis12find_in_expr0B5_
FNDA:0,_RNCNvNtCsjTRrhfWa0WU_13eldritch_core8analysis12find_in_exprs0_0B5_
FNDA:0,_RNCNvNtCsjTRrhfWa0WU_13eldritch_core8analysis12find_in_exprs1_0B5_
FNDA:0,_RNCNvNtCsjTRrhfWa0WU_13eldritch_core8analysis12find_in_exprs2_0B5_
FNDA:0,_RNCNvNtCsjTRrhfWa0WU_13eldritch_core8analysis12find_in_exprs3_0B5_
FNDA:0,_RNCNvNtCsjTRrhfWa0WU_13eldritch_core8analysis12find_in_exprs4_0B5_
FNDA:0,_RNCNvNtCsjTRrhfWa0WU_13eldritch_core8analysis12find_in_exprs5_0B5_
FNDA:0,_RNCNvNtCsjTRrhfWa0WU_13eldritch_core8analysis12find_in_exprs6_0B5_
FNDA:0,_RNCNvNtCsjTRrhfWa0WU_13eldritch_core8analysis12find_in_exprs7_0B5_
FNDA:0,_RNCNvNtCsjTRrhfWa0WU_13eldritch_core8analysis12find_in_exprs8_0B5_
FNDA:0,_RNCNvNtCsjTRrhfWa0WU_13eldritch_core8analysis12find_in_exprs9_0B5_
FNDA:0,_RNCNvNtCsjTRrhfWa0WU_13eldritch_core8analysis12find_in_exprs_0B5_
FNDA:0,_RNCNvNtCsjTRrhfWa0WU_13eldritch_core8analysis12find_in_exprsa_0B5_
FNDA:0,_RNCNCNvNtCs3OupGlkSanV_13eldritch_core8analysis12find_in_exprs1_00B7_
FNDA:0,_RNCNCNvNtCs3OupGlkSanV_13eldritch_core8analysis12find_in_exprs2_00B7_
FNDA:0,_RNCNCNvNtCs3OupGlkSanV_13eldritch_core8analysis12find_in_exprs3_00B7_
FNDA:0,_RNCNCNvNtCs3OupGlkSanV_13eldritch_core8analysis12find_in_exprs5_00B7_
FNDA:0,_RNCNCNvNtCs3OupGlkSanV_13eldritch_core8analysis12find_in_exprs8_00B7_
FNDA:0,_RNCNvNtCs3OupGlkSanV_13eldritch_core8analysis12find_in_expr0B5_
FNDA:0,_RNCNvNtCs3OupGlkSanV_13eldritch_core8analysis12find_in_exprs0_0B5_
FNDA:0,_RNCNvNtCs3OupGlkSanV_13eldritch_core8analysis12find_in_exprs1_0B5_
FNDA:0,_RNCNvNtCs3OupGlkSanV_13eldritch_core8analysis12find_in_exprs2_0B5_
FNDA:0,_RNCNvNtCs3OupGlkSanV_13eldritch_core8analysis12find_in_exprs3_0B5_
FNDA:0,_RNCNvNtCs3OupGlkSanV_13eldritch_core8analysis12find_in_exprs4_0B5_
FNDA:0,_RNCNvNtCs3OupGlkSanV_13eldritch_core8analysis12find_in_exprs5_0B5_
FNDA:0,_RNCNvNtCs3OupGlkSanV_13eldritch_core8analysis12find_in_exprs6_0B5_
FNDA:0,_RNCNvNtCs3OupGlkSanV_13eldritch_core8analysis12find_in_exprs7_0B5_
FNDA:0,_RNCNvNtCs3OupGlkSanV_13eldritch_core8analysis12find_in_exprs8_0B5_
FNDA:0,_RNCNvNtCs3OupGlkSanV_13eldritch_core8analysis12find_in_exprs9_0B5_
FNDA:0,_RNCNvNtCs3OupGlkSanV_13eldritch_core8analysis12find_in_exprs_0B5_
FNDA:0,_RNCNvNtCs3OupGlkSanV_13eldritch_core8analysis12find_in_exprsa_0B5_
FNDA:0,_RNvMNtCs3OupGlkSanV_13eldritch_core8analysisNtB2_4Node4span
FNDA:0,_RNvNtCs3OupGlkSanV_13eldritch_core8analysis12find_in_expr
FNDA:0,_RNvNtCs3OupGlkSanV_13eldritch_core8analysis12find_in_stmt
FNDA:0,_RNvNtCs3OupGlkSanV_13eldritch_core8analysis19find_node_at_offset
FNF:22
FNH:3
DA:11,0
DA:12,0
DA:13,0
DA:14,0
DA:16,0
DA:19,5
DA:20,5
DA:21,5
DA:22,5
DA:23,5
DA:24,0
DA:25,0
DA:26,0
DA:28,0
DA:29,5
DA:31,5
DA:32,0
DA:33,2
DA:34,2
DA:35,2
DA:36,2
DA:37,0
DA:38,0
DA:39,0
DA:40,0
DA:41,0
DA:42,0
DA:43,0
DA:44,0
DA:45,0
DA:46,0
DA:48,0
DA:49,0
DA:50,0
DA:51,0
DA:52,0
DA:53,0
DA:54,0
DA:55,0
DA:57,0
DA:58,0
DA:59,0
DA:60,0
DA:61,0
DA:62,0
DA:63,0
DA:64,0
DA:65,0
DA:66,0
DA:67,0
DA:68,0
DA:69,0
DA:71,0
DA:72,1
DA:73,1
DA:74,0
DA:75,0
DA:76,0
DA:77,0
DA:78,0
DA:79,0
DA:80,0
DA:82,0
DA:83,0
DA:84,0
DA:85,0
DA:86,0
DA:87,0
DA:88,0
DA:89,0
DA:90,0
DA:94,1
DA:95,0
DA:96,0
DA:97,0
DA:98,1
DA:99,1
DA:101,0
DA:102,0
DA:103,0
DA:104,0
DA:105,0
DA:107,0
DA:109,5
DA:111,6
DA:112,6
DA:113,2
DA:114,4
DA:116,4
DA:117,0
DA:118,0
DA:120,0
DA:121,0
DA:122,0
DA:123,0
DA:124,0
DA:125,0
DA:127,0
DA:129,0
DA:130,0
DA:131,0
DA:133,0
DA:134,0
DA:135,0
DA:136,0
DA:137,0
DA:138,0
DA:139,0
DA:141,0
DA:143,0
DA:144,0
DA:145,0
DA:146,0
DA:147,0
DA:148,0
DA:149,0
DA:150,0
DA:152,0
DA:154,0
DA:155,0
DA:157,2
DA:158,0
DA:159,0
DA:160,0
DA:161,0
DA:162,0
DA:163,0
DA:164,0
DA:165,0
DA:166,0
DA:167,0
DA:168,0
DA:170,0
DA:173,0
DA:174,0
DA:175,0
DA:179,0
DA:180,0
DA:181,0
DA:183,0
DA:184,0
DA:185,0
DA:187,0
DA:188,0
DA:189,0
DA:190,0
DA:192,0
DA:193,0
DA:194,0
DA:195,0
DA:196,0
DA:197,0
DA:198,0
DA:199,0
DA:200,0
DA:201,0
DA:202,0
DA:203,0
DA:204,0
DA:206,0
DA:207,0
DA:208,0
DA:209,0
DA:210,0
DA:211,0
DA:212,0
DA:213,0
DA:214,0
DA:218,0
DA:221,0
DA:222,0
DA:223,0
DA:224,0
DA:225,0
DA:226,0
DA:227,2
DA:230,4
DA:231,0
DA:233,4
DA:235,6
BRF:0
BRH:0
LF:198
LH:27
end_of_record
SF:/app/implants/lib/eldritch/eldritch-core/src/ast.rs
FN:146,_RNCNvMs0_NtCsjTRrhfWa0WU_13eldritch_core3astNtB7_5Value9eq_helper0B9_
FN:176,_RNCNvMs0_NtCsjTRrhfWa0WU_13eldritch_core3astNtB7_5Value9eq_helpers0_0B9_
FN:186,_RNCNvMs0_NtCsjTRrhfWa0WU_13eldritch_core3astNtB7_5Value9eq_helpers1_0B9_
FN:159,_RNCNvMs0_NtCsjTRrhfWa0WU_13eldritch_core3astNtB7_5Value9eq_helpers_0B9_
FN:106,_RNvMs0_NtCsjTRrhfWa0WU_13eldritch_core3astNtB5_5Value9eq_helper
FN:224,_RNvMs4_NtCsjTRrhfWa0WU_13eldritch_core3astNtB5_5Value10cmp_helper
FN:433,_RNvMs5_NtCsjTRrhfWa0WU_13eldritch_core3astNtB5_5Value10fmt_helper
FN:413,_RNvMs5_NtCsjTRrhfWa0WU_13eldritch_core3astNtB5_5Value18discriminant_value
FN:92,_RNvXNtCsjTRrhfWa0WU_13eldritch_core3astNtB2_5ValueNtNtCs4Vq2ZLagKfv_4core3fmt5Debug3fmt
FN:211,_RNvXs2_NtCsjTRrhfWa0WU_13eldritch_core3astNtB5_5ValueNtNtCs4Vq2ZLagKfv_4core3cmp10PartialOrd11partial_cmp
FN:217,_RNvXs3_NtCsjTRrhfWa0WU_13eldritch_core3astNtB5_5ValueNtNtCs4Vq2ZLagKfv_4core3cmp3Ord3cmp
FN:547,_RNvXs6_NtCsjTRrhfWa0WU_13eldritch_core3astNtB5_5ValueNtNtCs4Vq2ZLagKfv_4core3fmt7Display3fmt
FN:99,_RNvXs_NtCsjTRrhfWa0WU_13eldritch_core3astNtB4_5ValueNtNtCs4Vq2ZLagKfv_4core3cmp9PartialEq2eq
FN:106,_RNvMs0_NtCs3OupGlkSanV_13eldritch_core3astNtB5_5Value9eq_helper
FN:224,_RNvMs4_NtCs3OupGlkSanV_13eldritch_core3astNtB5_5Value10cmp_helper
FN:433,_RNvMs5_NtCs3OupGlkSanV_13eldritch_core3astNtB5_5Value10fmt_helper
FN:413,_RNvMs5_NtCs3OupGlkSanV_13eldritch_core3astNtB5_5Value18discriminant_value
FN:92,_RNvXNtCs3OupGlkSanV_13eldritch_core3astNtB2_5ValueNtNtCs4Vq2ZLagKfv_4core3fmt5Debug3fmt
FN:211,_RNvXs2_NtCs3OupGlkSanV_13eldritch_core3astNtB5_5ValueNtNtCs4Vq2ZLagKfv_4core3cmp10PartialOrd11partial_cmp
FN:217,_RNvXs3_NtCs3OupGlkSanV_13eldritch_core3astNtB5_5ValueNtNtCs4Vq2ZLagKfv_4core3cmp3Ord3cmp
FN:547,_RNvXs6_NtCs3OupGlkSanV_13eldritch_core3astNtB5_5ValueNtNtCs4Vq2ZLagKfv_4core3fmt7Display3fmt
FN:99,_RNvXs_NtCs3OupGlkSanV_13eldritch_core3astNtB4_5ValueNtNtCs4Vq2ZLagKfv_4core3cmp9PartialEq2eq
FN:146,_RNCNvMs0_NtCs3OupGlkSanV_13eldritch_core3astNtB7_5Value9eq_helper0B9_
FN:176,_RNCNvMs0_NtCs3OupGlkSanV_13eldritch_core3astNtB7_5Value9eq_helpers0_0B9_
FN:186,_RNCNvMs0_NtCs3OupGlkSanV_13eldritch_core3astNtB7_5Value9eq_helpers1_0B9_
FN:159,_RNCNvMs0_NtCs3OupGlkSanV_13eldritch_core3astNtB7_5Value9eq_helpers_0B9_
FNDA:313,_RNCNvMs0_NtCsjTRrhfWa0WU_13eldritch_core3astNtB7_5Value9eq_helper0B9_
FNDA:80,_RNCNvMs0_NtCsjTRrhfWa0WU_13eldritch_core3astNtB7_5Value9eq_helpers0_0B9_
FNDA:120,_RNCNvMs0_NtCsjTRrhfWa0WU_13eldritch_core3astNtB7_5Value9eq_helpers1_0B9_
FNDA:6,_RNCNvMs0_NtCsjTRrhfWa0WU_13eldritch_core3astNtB7_5Value9eq_helpers_0B9_
FNDA:1867,_RNvMs0_NtCsjTRrhfWa0WU_13eldritch_core3astNtB5_5Value9eq_helper
FNDA:6638,_RNvMs4_NtCsjTRrhfWa0WU_13eldritch_core3astNtB5_5Value10cmp_helper
FNDA:133,_RNvMs5_NtCsjTRrhfWa0WU_13eldritch_core3astNtB5_5Value10fmt_helper
FNDA:13236,_RNvMs5_NtCsjTRrhfWa0WU_13eldritch_core3astNtB5_5Value18discriminant_value
FNDA:26,_RNvXNtCsjTRrhfWa0WU_13eldritch_core3astNtB2_5ValueNtNtCs4Vq2ZLagKfv_4core3fmt5Debug3fmt
FNDA:122,_RNvXs2_NtCsjTRrhfWa0WU_13eldritch_core3astNtB5_5ValueNtNtCs4Vq2ZLagKfv_4core3cmp10PartialOrd11partial_cmp
FNDA:6622,_RNvXs3_NtCsjTRrhfWa0WU_13eldritch_core3astNtB5_5ValueNtNtCs4Vq2ZLagKfv_4core3cmp3Ord3cmp
FNDA:634,_RNvXs6_NtCsjTRrhfWa0WU_13eldritch_core3astNtB5_5ValueNtNtCs4Vq2ZLagKfv_4core3fmt7Display3fmt
FNDA:1342,_RNvXs_NtCsjTRrhfWa0WU_13eldritch_core3astNtB4_5ValueNtNtCs4Vq2ZLagKfv_4core3cmp9PartialEq2eq
FNDA:10,_RNvMs0_NtCs3OupGlkSanV_13eldritch_core3astNtB5_5Value9eq_helper
FNDA:0,_RNvMs4_NtCs3OupGlkSanV_13eldritch_core3astNtB5_5Value10cmp_helper
FNDA:0,_RNvMs5_NtCs3OupGlkSanV_13eldritch_core3astNtB5_5Value10fmt_helper
FNDA:0,_RNvMs5_NtCs3OupGlkSanV_13eldritch_core3astNtB5_5Value18discriminant_value
FNDA:0,_RNvXNtCs3OupGlkSanV_13eldritch_core3astNtB2_5ValueNtNtCs4Vq2ZLagKfv_4core3fmt5Debug3fmt
FNDA:0,_RNvXs2_NtCs3OupGlkSanV_13eldritch_core3astNtB5_5ValueNtNtCs4Vq2ZLagKfv_4core3cmp10PartialOrd11partial_cmp
FNDA:0,_RNvXs3_NtCs3OupGlkSanV_13eldritch_core3astNtB5_5ValueNtNtCs4Vq2ZLagKfv_4core3cmp3Ord3cmp
FNDA:0,_RNvXs6_NtCs3OupGlkSanV_13eldritch_core3astNtB5_5ValueNtNtCs4Vq2ZLagKfv_4core3fmt7Display3fmt
FNDA:10,_RNvXs_NtCs3OupGlkSanV_13eldritch_core3astNtB4_5ValueNtNtCs4Vq2ZLagKfv_4core3cmp9PartialEq2eq
FNDA:0,_RNCNvMs0_NtCs3OupGlkSanV_13eldritch_core3astNtB7_5Value9eq_helper0B9_
FNDA:0,_RNCNvMs0_NtCs3OupGlkSanV_13eldritch_core3astNtB7_5Value9eq_helpers0_0B9_
FNDA:0,_RNCNvMs0_NtCs3OupGlkSanV_13eldritch_core3astNtB7_5Value9eq_helpers1_0B9_
FNDA:0,_RNCNvMs0_NtCs3OupGlkSanV_13eldritch_core3astNtB7_5Value9eq_helpers_0B9_
FNF:13
FNH:13
DA:92,26
DA:93,26
DA:94,26
DA:95,26
DA:99,1352
DA:100,1352
DA:101,1352
DA:102,1352
DA:106,1877
DA:107,1877
DA:108,132
DA:109,6
DA:110,41
DA:111,1698
DA:113,1877
DA:114,133
DA:115,6
DA:116,41
DA:117,1697
DA:120,1877
DA:121,179
DA:122,179
DA:123,1
DA:124,178
DA:125,178
DA:126,1698
DA:128,1876
DA:129,8
DA:130,72
DA:131,908
DA:132,47
DA:133,578
DA:134,20
DA:135,131
DA:136,131
DA:137,0
DA:139,131
DA:140,131
DA:141,131
DA:142,0
DA:144,131
DA:145,131
DA:146,313
DA:150,6
DA:151,6
DA:152,0
DA:154,6
DA:155,6
DA:156,6
DA:157,0
DA:159,6
DA:160,6
DA:161,6
DA:165,41
DA:166,41
DA:167,0
DA:169,41
DA:170,41
DA:171,41
DA:172,0
DA:174,41
DA:175,41
DA:176,80
DA:180,49
DA:181,49
DA:182,0
DA:184,49
DA:185,49
DA:186,120
DA:189,0
DA:190,0
DA:191,0
DA:192,0
DA:194,0
DA:195,0
DA:196,16
DA:199,1876
DA:200,178
DA:201,178
DA:202,1698
DA:204,1876
DA:205,1877
DA:211,122
DA:212,122
DA:213,122
DA:217,6622
DA:218,6622
DA:219,6622
DA:220,6622
DA:224,6638
DA:225,6638
DA:226,7
DA:227,0
DA:228,0
DA:229,6631
DA:231,6638
DA:232,7
DA:233,0
DA:234,0
DA:235,6631
DA:238,6638
DA:239,7
DA:240,7
DA:241,0
DA:242,7
DA:243,7
DA:244,6631
DA:249,6638
DA:250,6
DA:251,6
DA:252,0
DA:253,0
DA:254,6
DA:255,6
DA:257,14
DA:258,14
DA:259,0
DA:260,0
DA:261,14
DA:262,14
DA:264,6618
DA:269,6618
DA:270,6618
DA:272,6618
DA:273,20
DA:274,0
DA:275,0
DA:276,20
DA:277,20
DA:278,6598
DA:280,6598
DA:281,1
DA:282,2
DA:283,537
DA:284,3
DA:285,6044
DA:286,0
DA:287,7
DA:288,7
DA:289,1
DA:291,6
DA:292,6
DA:294,6
DA:295,6
DA:296,9
DA:297,9
DA:298,9
DA:299,5
DA:300,4
DA:302,6
DA:303,1
DA:305,5
DA:309,4
DA:310,4
DA:311,4
DA:312,7
DA:313,7
DA:314,7
DA:315,2
DA:316,5
DA:318,4
DA:319,2
DA:321,2
DA:324,0
DA:325,0
DA:326,0
DA:328,0
DA:329,0
DA:331,0
DA:332,0
DA:334,0
DA:335,0
DA:336,0
DA:337,0
DA:338,0
DA:339,0
DA:340,0
DA:341,0
DA:342,0
DA:345,0
DA:348,0
DA:351,0
DA:357,0
DA:358,0
DA:359,0
DA:361,0
DA:362,0
DA:363,0
DA:364,0
DA:366,0
DA:367,0
DA:368,0
DA:369,0
DA:370,0
DA:371,0
DA:374,0
DA:377,0
DA:380,0
DA:386,0
DA:387,0
DA:388,0
DA:389,0
DA:391,0
DA:392,0
DA:393,0
DA:395,0
DA:396,0
DA:397,0
DA:398,0
DA:400,0
DA:403,6598
DA:404,7
DA:405,7
DA:406,6591
DA:408,6598
DA:409,6638
DA:413,13236
DA:414,13236
DA:415,6
DA:416,11
DA:417,1088
DA:418,8
DA:419,12101
DA:420,0
DA:421,14
DA:422,8
DA:423,0
DA:424,0
DA:425,0
DA:426,0
DA:427,0
DA:428,0
DA:429,0
DA:431,13236
DA:433,133
DA:434,133
DA:435,0
DA:436,1
DA:437,16
DA:438,0
DA:439,95
DA:440,0
DA:441,0
DA:442,0
DA:443,0
DA:444,0
DA:445,0
DA:446,0
DA:447,0
DA:448,0
DA:449,0
DA:450,0
DA:453,0
DA:455,16
DA:456,16
DA:457,16
DA:458,9
DA:459,7
DA:460,7
DA:462,7
DA:463,7
DA:464,90
DA:465,90
DA:466,83
DA:467,7
DA:468,90
DA:470,7
DA:472,7
DA:473,7
DA:475,2
DA:476,2
DA:477,3
DA:478,3
DA:479,1
DA:480,2
DA:481,3
DA:483,2
DA:484,1
DA:485,1
DA:486,2
DA:488,3
DA:489,3
DA:490,3
DA:491,0
DA:492,3
DA:493,3
DA:495,3
DA:496,3
DA:497,7
DA:498,7
DA:499,4
DA:500,3
DA:501,7
DA:502,7
DA:503,7
DA:505,3
DA:507,3
DA:508,3
DA:510,0
DA:511,0
DA:512,0
DA:515,0
DA:516,0
DA:517,0
DA:519,0
DA:520,0
DA:521,0
DA:523,0
DA:524,0
DA:525,0
DA:526,0
DA:527,0
DA:528,0
DA:530,0
DA:533,0
DA:534,0
DA:536,0
DA:537,0
DA:538,0
DA:539,0
DA:540,0
DA:542,133
DA:547,634
DA:548,634
DA:549,3
DA:550,5
DA:551,37
DA:552,1
DA:553,575
DA:554,0
DA:555,7
DA:557,7
DA:559,2
DA:560,2
DA:562,3
DA:563,3
DA:565,0
DA:566,0
DA:568,1
DA:569,0
DA:570,0
DA:571,0
DA:572,0
DA:574,634
BRF:0
BRH:0
LF:348
LH:223
end_of_record
SF:/app/implants/lib/eldritch/eldritch-core/src/conversion.rs
FN:38,_RNvXs0_NtCsjTRrhfWa0WU_13eldritch_core10conversionNtNtCs456UZznmu7y_5alloc6string6StringNtB5_9FromValue10from_value
FN:138,_RNvXs9_NtCsjTRrhfWa0WU_13eldritch_core10conversionNtNtCs456UZznmu7y_5alloc6string6StringNtB5_7ToValue8to_value
FN:110,_RNvXs5_NtCsjTRrhfWa0WU_13eldritch_core10conversionNtNtB7_3ast5ValueNtB5_9FromValue10from_value
FN:188,_RNvXsg_NtCsjTRrhfWa0WU_13eldritch_core10conversionNtNtB7_3ast5ValueNtB5_7ToValue8to_value
FN:56,_RNvXs2_NtCsjTRrhfWa0WU_13eldritch_core10conversionINtNtCs456UZznmu7y_5alloc3vec3VechENtB5_9FromValue10from_value
FN:156,_RNvXsc_NtCsjTRrhfWa0WU_13eldritch_core10conversionINtNtCs456UZznmu7y_5alloc3vec3VechENtB5_7ToValue8to_value
FN:209,_RNvNtCsjTRrhfWa0WU_13eldritch_core10conversion13get_type_name
FN:19,_RNvXNtCsjTRrhfWa0WU_13eldritch_core10conversionxNtB2_9FromValue10from_value
FN:47,_RNvXs1_NtCsjTRrhfWa0WU_13eldritch_core10conversionbNtB5_9FromValue10from_value
FN:126,_RNvXs7_NtCsjTRrhfWa0WU_13eldritch_core10conversionxNtB5_7ToValue8to_value
FN:132,_RNvXs8_NtCsjTRrhfWa0WU_13eldritch_core10conversiondNtB5_7ToValue8to_value
FN:28,_RNvXs_NtCsjTRrhfWa0WU_13eldritch_core10conversiondNtB4_9FromValue10from_value
FN:144,_RNvXsa_NtCsjTRrhfWa0WU_13eldritch_core10conversionuNtB5_7ToValue8to_value
FN:150,_RNvXsb_NtCsjTRrhfWa0WU_13eldritch_core10conversionbNtB5_7ToValue8to_value
FN:203,_RNvXsh_NtCsjTRrhfWa0WU_13eldritch_core10conversionINtNtCs4Vq2ZLagKfv_4core6result6ResultNtNtCs456UZznmu7y_5alloc6string6StringB1o_ENtB5_18IntoEldritchResult20into_eldritch_resultCsglWS1Ns20KR_16eldritch_libtime
FN:203,_RNvXsh_NtCsjTRrhfWa0WU_13eldritch_core10conversionINtNtCs4Vq2ZLagKfv_4core6result6ResultuNtNtCs456UZznmu7y_5alloc6string6StringENtB5_18IntoEldritchResult20into_eldritch_resultCsglWS1Ns20KR_16eldritch_libtime
FN:203,_RNvXsh_NtCsjTRrhfWa0WU_13eldritch_core10conversionINtNtCs4Vq2ZLagKfv_4core6result6ResultxNtNtCs456UZznmu7y_5alloc6string6StringENtB5_18IntoEldritchResult20into_eldritch_resultCsglWS1Ns20KR_16eldritch_libtime
FN:204,_RNCNvXsh_NtCsjTRrhfWa0WU_13eldritch_core10conversionINtNtCs4Vq2ZLagKfv_4core6result6ResultNtNtCs456UZznmu7y_5alloc6string6StringB1q_ENtB7_18IntoEldritchResult20into_eldritch_result0CsglWS1Ns20KR_16eldritch_libtime
FN:204,_RNCNvXsh_NtCsjTRrhfWa0WU_13eldritch_core10conversionINtNtCs4Vq2ZLagKfv_4core6result6ResultNtNtCs456UZznmu7y_5alloc6string6StringB1q_ENtB7_18IntoEldritchResult20into_eldritch_results_0CsglWS1Ns20KR_16eldritch_libtime
FN:204,_RNCNvXsh_NtCsjTRrhfWa0WU_13eldritch_core10conversionINtNtCs4Vq2ZLagKfv_4core6result6ResultuNtNtCs456UZznmu7y_5alloc6string6StringENtB7_18IntoEldritchResult20into_eldritch_result0CsglWS1Ns20KR_16eldritch_libtime
FN:204,_RNCNvXsh_NtCsjTRrhfWa0WU_13eldritch_core10conversionINtNtCs4Vq2ZLagKfv_4core6result6ResultuNtNtCs456UZznmu7y_5alloc6string6StringENtB7_18IntoEldritchResult20into_eldritch_results_0CsglWS1Ns20KR_16eldritch_libtime
FN:204,_RNCNvXsh_NtCsjTRrhfWa0WU_13eldritch_core10conversionINtNtCs4Vq2ZLagKfv_4core6result6ResultxNtNtCs456UZznmu7y_5alloc6string6StringENtB7_18IntoEldritchResult20into_eldritch_result0CsglWS1Ns20KR_16eldritch_libtime
FN:204,_RNCNvXsh_NtCsjTRrhfWa0WU_13eldritch_core10conversionINtNtCs4Vq2ZLagKfv_4core6result6ResultxNtNtCs456UZznmu7y_5alloc6string6StringENtB7_18IntoEldritchResult20into_eldritch_results_0CsglWS1Ns20KR_16eldritch_libtime
FN:203,_RNvXsh_NtCsjTRrhfWa0WU_13eldritch_core10conversionINtNtCs4Vq2ZLagKfv_4core6result6ResultINtNtCs456UZznmu7y_5alloc3vec3VecINtNtNtNtB1t_11collections5btree3map8BTreeMapNtNtB1t_6string6StringB2E_EEB2E_ENtB5_18IntoEldritchResult20into_eldritch_resultCs6MQ2kXofuUf_15eldritch_libsys
FN:203,_RNvXsh_NtCsjTRrhfWa0WU_13eldritch_core10conversionINtNtCs4Vq2ZLagKfv_4core6result6ResultINtNtCs456UZznmu7y_5alloc3vec3VecINtNtNtNtB1t_11collections5btree3map8BTreeMapNtNtB1t_6string6StringNtNtB7_3ast5ValueEEB2E_ENtB5_18IntoEldritchResult20into_eldritch_resultCs6MQ2kXofuUf_15eldritch_libsys
FN:203,_RNvXsh_NtCsjTRrhfWa0WU_13eldritch_core10conversionINtNtCs4Vq2ZLagKfv_4core6result6ResultINtNtNtNtCs456UZznmu7y_5alloc11collections5btree3map8BTreeMapNtNtB1x_6string6StringB2n_EB2n_ENtB5_18IntoEldritchResult20into_eldritch_resultCs6MQ2kXofuUf_15eldritch_libsys
FN:203,_RNvXsh_NtCsjTRrhfWa0WU_13eldritch_core10conversionINtNtCs4Vq2ZLagKfv_4core6result6ResultINtNtNtNtCs456UZznmu7y_5alloc11collections5btree3map8BTreeMapNtNtB1x_6string6StringNtNtB7_3ast5ValueEB2n_ENtB5_18IntoEldritchResult20into_eldritch_resultCs6MQ2kXofuUf_15eldritch_libsys
FN:203,_RNvXsh_NtCsjTRrhfWa0WU_13eldritch_core10conversionINtNtCs4Vq2ZLagKfv_4core6result6ResultNtNtCs456UZznmu7y_5alloc6string6StringB1o_ENtB5_18IntoEldritchResult20into_eldritch_resultCs6MQ2kXofuUf_15eldritch_libsys
FN:203,_RNvXsh_NtCsjTRrhfWa0WU_13eldritch_core10conversionINtNtCs4Vq2ZLagKfv_4core6result6ResultbNtNtCs456UZznmu7y_5alloc6string6StringENtB5_18IntoEldritchResult20into_eldritch_resultCs6MQ2kXofuUf_15eldritch_libsys
FN:203,_RNvXsh_NtCsjTRrhfWa0WU_13eldritch_core10conversionINtNtCs4Vq2ZLagKfv_4core6result6ResultuNtNtCs456UZznmu7y_5alloc6string6StringENtB5_18IntoEldritchResult20into_eldritch_resultCs6MQ2kXofuUf_15eldritch_libsys
FN:203,_RNvXsh_NtCsjTRrhfWa0WU_13eldritch_core10conversionINtNtCs4Vq2ZLagKfv_4core6result6ResultxNtNtCs456UZznmu7y_5alloc6string6StringENtB5_18IntoEldritchResult20into_eldritch_resultCs6MQ2kXofuUf_15eldritch_libsys
FN:163,_RNCNvXsd_NtCsjTRrhfWa0WU_13eldritch_core10conversionINtNtCs456UZznmu7y_5alloc3vec3VecINtNtNtNtBT_11collections5btree3map8BTreeMapNtNtBT_6string6StringB23_EENtB7_7ToValue8to_value0Cs6MQ2kXofuUf_15eldritch_libsys
FN:163,_RNCNvXsd_NtCsjTRrhfWa0WU_13eldritch_core10conversionINtNtCs456UZznmu7y_5alloc3vec3VecINtNtNtNtBT_11collections5btree3map8BTreeMapNtNtBT_6string6StringNtNtB9_3ast5ValueEENtB7_7ToValue8to_value0Cs6MQ2kXofuUf_15eldritch_libsys
FN:204,_RNCNvXsh_NtCsjTRrhfWa0WU_13eldritch_core10conversionINtNtCs4Vq2ZLagKfv_4core6result6ResultINtNtCs456UZznmu7y_5alloc3vec3VecINtNtNtNtB1v_11collections5btree3map8BTreeMapNtNtB1v_6string6StringB2G_EEB2G_ENtB7_18IntoEldritchResult20into_eldritch_result0Cs6MQ2kXofuUf_15eldritch_libsys
FN:204,_RNCNvXsh_NtCsjTRrhfWa0WU_13eldritch_core10conversionINtNtCs4Vq2ZLagKfv_4core6result6ResultINtNtCs456UZznmu7y_5alloc3vec3VecINtNtNtNtB1v_11collections5btree3map8BTreeMapNtNtB1v_6string6StringB2G_EEB2G_ENtB7_18IntoEldritchResult20into_eldritch_results_0Cs6MQ2kXofuUf_15eldritch_libsys
FN:204,_RNCNvXsh_NtCsjTRrhfWa0WU_13eldritch_core10conversionINtNtCs4Vq2ZLagKfv_4core6result6ResultINtNtCs456UZznmu7y_5alloc3vec3VecINtNtNtNtB1v_11collections5btree3map8BTreeMapNtNtB1v_6string6StringNtNtB9_3ast5ValueEEB2G_ENtB7_18IntoEldritchResult20into_eldritch_result0Cs6MQ2kXofuUf_15eldritch_libsys
FN:204,_RNCNvXsh_NtCsjTRrhfWa0WU_13eldritch_core10conversionINtNtCs4Vq2ZLagKfv_4core6result6ResultINtNtCs456UZznmu7y_5alloc3vec3VecINtNtNtNtB1v_11collections5btree3map8BTreeMapNtNtB1v_6string6StringNtNtB9_3ast5ValueEEB2G_ENtB7_18IntoEldritchResult20into_eldritch_results_0Cs6MQ2kXofuUf_15eldritch_libsys
FN:204,_RNCNvXsh_NtCsjTRrhfWa0WU_13eldritch_core10conversionINtNtCs4Vq2ZLagKfv_4core6result6ResultINtNtNtNtCs456UZznmu7y_5alloc11collections5btree3map8BTreeMapNtNtB1z_6string6StringB2p_EB2p_ENtB7_18IntoEldritchResult20into_eldritch_result0Cs6MQ2kXofuUf_15eldritch_libsys
FN:204,_RNCNvXsh_NtCsjTRrhfWa0WU_13eldritch_core10conversionINtNtCs4Vq2ZLagKfv_4core6result6ResultINtNtNtNtCs456UZznmu7y_5alloc11collections5btree3map8BTreeMapNtNtB1z_6string6StringB2p_EB2p_ENtB7_18IntoEldritchResult20into_eldritch_results_0Cs6MQ2kXofuUf_15eldritch_libsys
FN:204,_RNCNvXsh_NtCsjTRrhfWa0WU_13eldritch_core10conversionINtNtCs4Vq2ZLagKfv_4core6result6ResultINtNtNtNtCs456UZznmu7y_5alloc11collections5btree3map8BTreeMapNtNtB1z_6string6StringNtNtB9_3ast5ValueEB2p_ENtB7_18IntoEldritchResult20into_eldritch_result0Cs6MQ2kXofuUf_15eldritch_libsys
FN:204,_RNCNvXsh_NtCsjTRrhfWa0WU_13eldritch_core10conversionINtNtCs4Vq2ZLagKfv_4core6result6ResultINtNtNtNtCs456UZznmu7y_5alloc11collections5btree3map8BTreeMapNtNtB1z_6string6StringNtNtB9_3ast5ValueEB2p_ENtB7_18IntoEldritchResult20into_eldritch_results_0Cs6MQ2kXofuUf_15eldritch_libsys
FN:204,_RNCNvXsh_NtCsjTRrhfWa0WU_13eldritch_core10conversionINtNtCs4Vq2ZLagKfv_4core6result6ResultNtNtCs456UZznmu7y_5alloc6string6StringB1q_ENtB7_18IntoEldritchResult20into_eldritch_result0Cs6MQ2kXofuUf_15eldritch_libsys
FN:204,_RNCNvXsh_NtCsjTRrhfWa0WU_13eldritch_core10conversionINtNtCs4Vq2ZLagKfv_4core6result6ResultNtNtCs456UZznmu7y_5alloc6string6StringB1q_ENtB7_18IntoEldritchResult20into_eldritch_results_0Cs6MQ2kXofuUf_15eldritch_libsys
FN:204,_RNCNvXsh_NtCsjTRrhfWa0WU_13eldritch_core10conversionINtNtCs4Vq2ZLagKfv_4core6result6ResultbNtNtCs456UZznmu7y_5alloc6string6StringENtB7_18IntoEldritchResult20into_eldritch_result0Cs6MQ2kXofuUf_15eldritch_libsys
FN:204,_RNCNvXsh_NtCsjTRrhfWa0WU_13eldritch_core10conversionINtNtCs4Vq2ZLagKfv_4core6result6ResultbNtNtCs456UZznmu7y_5alloc6string6StringENtB7_18IntoEldritchResult20into_eldritch_results_0Cs6MQ2kXofuUf_15eldritch_libsys
FN:204,_RNCNvXsh_NtCsjTRrhfWa0WU_13eldritch_core10conversionINtNtCs4Vq2ZLagKfv_4core6result6ResultuNtNtCs456UZznmu7y_5alloc6string6StringENtB7_18IntoEldritchResult20into_eldritch_result0Cs6MQ2kXofuUf_15eldritch_libsys
FN:204,_RNCNvXsh_NtCsjTRrhfWa0WU_13eldritch_core10conversionINtNtCs4Vq2ZLagKfv_4core6result6ResultuNtNtCs456UZznmu7y_5alloc6string6StringENtB7_18IntoEldritchResult20into_eldritch_results_0Cs6MQ2kXofuUf_15eldritch_libsys
FN:204,_RNCNvXsh_NtCsjTRrhfWa0WU_13eldritch_core10conversionINtNtCs4Vq2ZLagKfv_4core6result6ResultxNtNtCs456UZznmu7y_5alloc6string6StringENtB7_18IntoEldritchResult20into_eldritch_result0Cs6MQ2kXofuUf_15eldritch_libsys
FN:204,_RNCNvXsh_NtCsjTRrhfWa0WU_13eldritch_core10conversionINtNtCs4Vq2ZLagKfv_4core6result6ResultxNtNtCs456UZznmu7y_5alloc6string6StringENtB7_18IntoEldritchResult20into_eldritch_results_0Cs6MQ2kXofuUf_15eldritch_libsys
FN:92,_RNvXs4_NtCsjTRrhfWa0WU_13eldritch_core10conversionINtNtNtNtCs456UZznmu7y_5alloc11collections5btree3map8BTreeMapNtNtBV_6string6StringB1L_ENtB5_9FromValue10from_valueCs6MQ2kXofuUf_15eldritch_libsys
FN:169,_RNvXse_NtCsjTRrhfWa0WU_13eldritch_core10conversionINtNtNtNtCs456UZznmu7y_5alloc11collections5btree3map8BTreeMapNtNtBV_6string6StringB1L_ENtB5_7ToValue8to_valueCs6MQ2kXofuUf_15eldritch_libsys
FN:169,_RNvXse_NtCsjTRrhfWa0WU_13eldritch_core10conversionINtNtNtNtCs456UZznmu7y_5alloc11collections5btree3map8BTreeMapNtNtBV_6string6StringNtNtB7_3ast5ValueENtB5_7ToValue8to_valueCs6MQ2kXofuUf_15eldritch_libsys
FN:116,_RNvXs6_NtCsjTRrhfWa0WU_13eldritch_core10conversionINtNtCs4Vq2ZLagKfv_4core6option6OptionINtNtNtNtCs456UZznmu7y_5alloc11collections5btree3map8BTreeMapNtNtB1x_6string6StringB2n_EENtB5_9FromValue10from_valueCs6MQ2kXofuUf_15eldritch_libsys
FN:116,_RNvXs6_NtCsjTRrhfWa0WU_13eldritch_core10conversionINtNtCs4Vq2ZLagKfv_4core6option6OptionNtNtCs456UZznmu7y_5alloc6string6StringENtB5_9FromValue10from_valueCs6MQ2kXofuUf_15eldritch_libsys
FN:116,_RNvXs6_NtCsjTRrhfWa0WU_13eldritch_core10conversionINtNtCs4Vq2ZLagKfv_4core6option6OptionbENtB5_9FromValue10from_valueCs6MQ2kXofuUf_15eldritch_libsys
FN:65,_RNvXs3_NtCsjTRrhfWa0WU_13eldritch_core10conversionINtNtCs456UZznmu7y_5alloc3vec3VecNtNtBR_6string6StringENtB5_9FromValue10from_valueCs6MQ2kXofuUf_15eldritch_libsys
FN:162,_RNvXsd_NtCsjTRrhfWa0WU_13eldritch_core10conversionINtNtCs456UZznmu7y_5alloc3vec3VecINtNtNtNtBR_11collections5btree3map8BTreeMapNtNtBR_6string6StringB21_EENtB5_7ToValue8to_valueCs6MQ2kXofuUf_15eldritch_libsys
FN:162,_RNvXsd_NtCsjTRrhfWa0WU_13eldritch_core10conversionINtNtCs456UZznmu7y_5alloc3vec3VecINtNtNtNtBR_11collections5btree3map8BTreeMapNtNtBR_6string6StringNtNtB7_3ast5ValueEENtB5_7ToValue8to_valueCs6MQ2kXofuUf_15eldritch_libsys
FN:65,_RNvXs3_NtCsjTRrhfWa0WU_13eldritch_core10conversionINtNtCs456UZznmu7y_5alloc3vec3VecINtNtNtNtBR_11collections5btree3map8BTreeMapNtNtBR_6string6StringNtNtB7_3ast5ValueEENtB5_9FromValue10from_valueCs9GOD6RQvQkx_18eldritch_libreport
FN:203,_RNvXsh_NtCsjTRrhfWa0WU_13eldritch_core10conversionINtNtCs4Vq2ZLagKfv_4core6result6ResultuNtNtCs456UZznmu7y_5alloc6string6StringENtB5_18IntoEldritchResult20into_eldritch_resultCs9GOD6RQvQkx_18eldritch_libreport
FN:204,_RNCNvXsh_NtCsjTRrhfWa0WU_13eldritch_core10conversionINtNtCs4Vq2ZLagKfv_4core6result6ResultuNtNtCs456UZznmu7y_5alloc6string6StringENtB7_18IntoEldritchResult20into_eldritch_result0Cs9GOD6RQvQkx_18eldritch_libreport
FN:204,_RNCNvXsh_NtCsjTRrhfWa0WU_13eldritch_core10conversionINtNtCs4Vq2ZLagKfv_4core6result6ResultuNtNtCs456UZznmu7y_5alloc6string6StringENtB7_18IntoEldritchResult20into_eldritch_results_0Cs9GOD6RQvQkx_18eldritch_libreport
FN:92,_RNvXs4_NtCsjTRrhfWa0WU_13eldritch_core10conversionINtNtNtNtCs456UZznmu7y_5alloc11collections5btree3map8BTreeMapNtNtBV_6string6StringNtNtB7_3ast5ValueENtB5_9FromValue10from_valueCs9GOD6RQvQkx_18eldritch_libreport
FN:203,_RNvXsh_NtCsjTRrhfWa0WU_13eldritch_core10conversionINtNtCs4Vq2ZLagKfv_4core6result6ResultINtNtCs456UZznmu7y_5alloc3vec3VecNtNtB1t_6string6StringEB1V_ENtB5_18IntoEldritchResult20into_eldritch_resultCsgxcjP7EOVl6_17eldritch_libregex
FN:203,_RNvXsh_NtCsjTRrhfWa0WU_13eldritch_core10conversionINtNtCs4Vq2ZLagKfv_4core6result6ResultNtNtCs456UZznmu7y_5alloc6string6StringB1o_ENtB5_18IntoEldritchResult20into_eldritch_resultCsgxcjP7EOVl6_17eldritch_libregex
FN:163,_RNCNvXsd_NtCsjTRrhfWa0WU_13eldritch_core10conversionINtNtCs456UZznmu7y_5alloc3vec3VecNtNtBT_6string6StringENtB7_7ToValue8to_value0CsgxcjP7EOVl6_17eldritch_libregex
FN:204,_RNCNvXsh_NtCsjTRrhfWa0WU_13eldritch_core10conversionINtNtCs4Vq2ZLagKfv_4core6result6ResultINtNtCs456UZznmu7y_5alloc3vec3VecNtNtB1v_6string6StringEB1X_ENtB7_18IntoEldritchResult20into_eldritch_result0CsgxcjP7EOVl6_17eldritch_libregex
FN:204,_RNCNvXsh_NtCsjTRrhfWa0WU_13eldritch_core10conversionINtNtCs4Vq2ZLagKfv_4core6result6ResultINtNtCs456UZznmu7y_5alloc3vec3VecNtNtB1v_6string6StringEB1X_ENtB7_18IntoEldritchResult20into_eldritch_results_0CsgxcjP7EOVl6_17eldritch_libregex
FN:204,_RNCNvXsh_NtCsjTRrhfWa0WU_13eldritch_core10conversionINtNtCs4Vq2ZLagKfv_4core6result6ResultNtNtCs456UZznmu7y_5alloc6string6StringB1q_ENtB7_18IntoEldritchResult20into_eldritch_result0CsgxcjP7EOVl6_17eldritch_libregex
FN:204,_RNCNvXsh_NtCsjTRrhfWa0WU_13eldritch_core10conversionINtNtCs4Vq2ZLagKfv_4core6result6ResultNtNtCs456UZznmu7y_5alloc6string6StringB1q_ENtB7_18IntoEldritchResult20into_eldritch_results_0CsgxcjP7EOVl6_17eldritch_libregex
FN:162,_RNvXsd_NtCsjTRrhfWa0WU_13eldritch_core10conversionINtNtCs456UZznmu7y_5alloc3vec3VecNtNtBR_6string6StringENtB5_7ToValue8to_valueCsgxcjP7EOVl6_17eldritch_libregex
FN:203,_RNvXsh_NtCsjTRrhfWa0WU_13eldritch_core10conversionINtNtCs4Vq2ZLagKfv_4core6result6ResultINtNtCs456UZznmu7y_5alloc3vec3VechENtNtB1t_6string6StringENtB5_18IntoEldritchResult20into_eldritch_resultCslhS9MHJwbdK_18eldritch_librandom
FN:203,_RNvXsh_NtCsjTRrhfWa0WU_13eldritch_core10conversionINtNtCs4Vq2ZLagKfv_4core6result6ResultNtNtCs456UZznmu7y_5alloc6string6StringB1o_ENtB5_18IntoEldritchResult20into_eldritch_resultCslhS9MHJwbdK_18eldritch_librandom
FN:203,_RNvXsh_NtCsjTRrhfWa0WU_13eldritch_core10conversionINtNtCs4Vq2ZLagKfv_4core6result6ResultbNtNtCs456UZznmu7y_5alloc6string6StringENtB5_18IntoEldritchResult20into_eldritch_resultCslhS9MHJwbdK_18eldritch_librandom
FN:203,_RNvXsh_NtCsjTRrhfWa0WU_13eldritch_core10conversionINtNtCs4Vq2ZLagKfv_4core6result6ResultxNtNtCs456UZznmu7y_5alloc6string6StringENtB5_18IntoEldritchResult20into_eldritch_resultCslhS9MHJwbdK_18eldritch_librandom
FN:204,_RNCNvXsh_NtCsjTRrhfWa0WU_13eldritch_core10conversionINtNtCs4Vq2ZLagKfv_4core6result6ResultINtNtCs456UZznmu7y_5alloc3vec3VechENtNtB1v_6string6StringENtB7_18IntoEldritchResult20into_eldritch_result0CslhS9MHJwbdK_18eldritch_librandom
FN:204,_RNCNvXsh_NtCsjTRrhfWa0WU_13eldritch_core10conversionINtNtCs4Vq2ZLagKfv_4core6result6ResultINtNtCs456UZznmu7y_5alloc3vec3VechENtNtB1v_6string6StringENtB7_18IntoEldritchResult20into_eldritch_results_0CslhS9MHJwbdK_18eldritch_librandom
FN:204,_RNCNvXsh_NtCsjTRrhfWa0WU_13eldritch_core10conversionINtNtCs4Vq2ZLagKfv_4core6result6ResultNtNtCs456UZznmu7y_5alloc6string6StringB1q_ENtB7_18IntoEldritchResult20into_eldritch_result0CslhS9MHJwbdK_18eldritch_librandom
FN:204,_RNCNvXsh_NtCsjTRrhfWa0WU_13eldritch_core10conversionINtNtCs4Vq2ZLagKfv_4core6result6ResultNtNtCs456UZznmu7y_5alloc6string6StringB1q_ENtB7_18IntoEldritchResult20into_eldritch_results_0CslhS9MHJwbdK_18eldritch_librandom
FN:204,_RNCNvXsh_NtCsjTRrhfWa0WU_13eldritch_core10conversionINtNtCs4Vq2ZLagKfv_4core6result6ResultbNtNtCs456UZznmu7y_5alloc6string6StringENtB7_18IntoEldritchResult20into_eldritch_result0CslhS9MHJwbdK_18eldritch_librandom
FN:204,_RNCNvXsh_NtCsjTRrhfWa0WU_13eldritch_core10conversionINtNtCs4Vq2ZLagKfv_4core6result6ResultbNtNtCs456UZznmu7y_5alloc6string6StringENtB7_18IntoEldritchResult20into_eldritch_results_0CslhS9MHJwbdK_18eldritch_librandom
FN:204,_RNCNvXsh_NtCsjTRrhfWa0WU_13eldritch_core10conversionINtNtCs4Vq2ZLagKfv_4core6result6ResultxNtNtCs456UZznmu7y_5alloc6string6StringENtB7_18IntoEldritchResult20into_eldritch_result0CslhS9MHJwbdK_18eldritch_librandom
FN:204,_RNCNvXsh_NtCsjTRrhfWa0WU_13eldritch_core10conversionINtNtCs4Vq2ZLagKfv_4core6result6ResultxNtNtCs456UZznmu7y_5alloc6string6StringENtB7_18IntoEldritchResult20into_eldritch_results_0CslhS9MHJwbdK_18eldritch_librandom
FN:116,_RNvXs6_NtCsjTRrhfWa0WU_13eldritch_core10conversionINtNtCs4Vq2ZLagKfv_4core6option6OptionNtNtCs456UZznmu7y_5alloc6string6StringENtB5_9FromValue10from_valueCslhS9MHJwbdK_18eldritch_librandom
FN:203,_RNvXsh_NtCsjTRrhfWa0WU_13eldritch_core10conversionINtNtCs4Vq2ZLagKfv_4core6result6ResultINtNtCs456UZznmu7y_5alloc3vec3VecINtNtNtNtB1t_11collections5btree3map8BTreeMapNtNtB1t_6string6StringNtNtB7_3ast5ValueEEB2E_ENtB5_18IntoEldritchResult20into_eldritch_resultCs4z0FbkCdo4s_19eldritch_libprocess
FN:203,_RNvXsh_NtCsjTRrhfWa0WU_13eldritch_core10conversionINtNtCs4Vq2ZLagKfv_4core6result6ResultINtNtNtNtCs456UZznmu7y_5alloc11collections5btree3map8BTreeMapNtNtB1x_6string6StringNtNtB7_3ast5ValueEB2n_ENtB5_18IntoEldritchResult20into_eldritch_resultCs4z0FbkCdo4s_19eldritch_libprocess
FN:203,_RNvXsh_NtCsjTRrhfWa0WU_13eldritch_core10conversionINtNtCs4Vq2ZLagKfv_4core6result6ResultNtNtCs456UZznmu7y_5alloc6string6StringB1o_ENtB5_18IntoEldritchResult20into_eldritch_resultCs4z0FbkCdo4s_19eldritch_libprocess
FN:203,_RNvXsh_NtCsjTRrhfWa0WU_13eldritch_core10conversionINtNtCs4Vq2ZLagKfv_4core6result6ResultuNtNtCs456UZznmu7y_5alloc6string6StringENtB5_18IntoEldritchResult20into_eldritch_resultCs4z0FbkCdo4s_19eldritch_libprocess
FN:162,_RNvXsd_NtCsjTRrhfWa0WU_13eldritch_core10conversionINtNtCs456UZznmu7y_5alloc3vec3VecINtNtNtNtBR_11collections5btree3map8BTreeMapNtNtBR_6string6StringNtNtB7_3ast5ValueEENtB5_7ToValue8to_valueCs4z0FbkCdo4s_19eldritch_libprocess
FN:163,_RNCNvXsd_NtCsjTRrhfWa0WU_13eldritch_core10conversionINtNtCs456UZznmu7y_5alloc3vec3VecINtNtNtNtBT_11collections5btree3map8BTreeMapNtNtBT_6string6StringNtNtB9_3ast5ValueEENtB7_7ToValue8to_value0Cs4z0FbkCdo4s_19eldritch_libprocess
FN:204,_RNCNvXsh_NtCsjTRrhfWa0WU_13eldritch_core10conversionINtNtCs4Vq2ZLagKfv_4core6result6ResultINtNtCs456UZznmu7y_5alloc3vec3VecINtNtNtNtB1v_11collections5btree3map8BTreeMapNtNtB1v_6string6StringNtNtB9_3ast5ValueEEB2G_ENtB7_18IntoEldritchResult20into_eldritch_result0Cs4z0FbkCdo4s_19eldritch_libprocess
FN:204,_RNCNvXsh_NtCsjTRrhfWa0WU_13eldritch_core10conversionINtNtCs4Vq2ZLagKfv_4core6result6ResultINtNtCs456UZznmu7y_5alloc3vec3VecINtNtNtNtB1v_11collections5btree3map8BTreeMapNtNtB1v_6string6StringNtNtB9_3ast5ValueEEB2G_ENtB7_18IntoEldritchResult20into_eldritch_results_0Cs4z0FbkCdo4s_19eldritch_libprocess
FN:204,_RNCNvXsh_NtCsjTRrhfWa0WU_13eldritch_core10conversionINtNtCs4Vq2ZLagKfv_4core6result6ResultINtNtNtNtCs456UZznmu7y_5alloc11collections5btree3map8BTreeMapNtNtB1z_6string6StringNtNtB9_3ast5ValueEB2p_ENtB7_18IntoEldritchResult20into_eldritch_result0Cs4z0FbkCdo4s_19eldritch_libprocess
FN:204,_RNCNvXsh_NtCsjTRrhfWa0WU_13eldritch_core10conversionINtNtCs4Vq2ZLagKfv_4core6result6ResultINtNtNtNtCs456UZznmu7y_5alloc11collections5btree3map8BTreeMapNtNtB1z_6string6StringNtNtB9_3ast5ValueEB2p_ENtB7_18IntoEldritchResult20into_eldritch_results_0Cs4z0FbkCdo4s_19eldritch_libprocess
FN:204,_RNCNvXsh_NtCsjTRrhfWa0WU_13eldritch_core10conversionINtNtCs4Vq2ZLagKfv_4core6result6ResultNtNtCs456UZznmu7y_5alloc6string6StringB1q_ENtB7_18IntoEldritchResult20into_eldritch_result0Cs4z0FbkCdo4s_19eldritch_libprocess
FN:204,_RNCNvXsh_NtCsjTRrhfWa0WU_13eldritch_core10conversionINtNtCs4Vq2ZLagKfv_4core6result6ResultNtNtCs456UZznmu7y_5alloc6string6StringB1q_ENtB7_18IntoEldritchResult20into_eldritch_results_0Cs4z0FbkCdo4s_19eldritch_libprocess
FN:204,_RNCNvXsh_NtCsjTRrhfWa0WU_13eldritch_core10conversionINtNtCs4Vq2ZLagKfv_4core6result6ResultuNtNtCs456UZznmu7y_5alloc6string6StringENtB7_18IntoEldritchResult20into_eldritch_result0Cs4z0FbkCdo4s_19eldritch_libprocess
FN:204,_RNCNvXsh_NtCsjTRrhfWa0WU_13eldritch_core10conversionINtNtCs4Vq2ZLagKfv_4core6result6ResultuNtNtCs456UZznmu7y_5alloc6string6StringENtB7_18IntoEldritchResult20into_eldritch_results_0Cs4z0FbkCdo4s_19eldritch_libprocess
FN:169,_RNvXse_NtCsjTRrhfWa0WU_13eldritch_core10conversionINtNtNtNtCs456UZznmu7y_5alloc11collections5btree3map8BTreeMapNtNtBV_6string6StringNtNtB7_3ast5ValueENtB5_7ToValue8to_valueCs4z0FbkCdo4s_19eldritch_libprocess
FN:116,_RNvXs6_NtCsjTRrhfWa0WU_13eldritch_core10conversionINtNtCs4Vq2ZLagKfv_4core6option6OptionxENtB5_9FromValue10from_valueCs4z0FbkCdo4s_19eldritch_libprocess
FN:65,_RNvXs3_NtCsjTRrhfWa0WU_13eldritch_core10conversionINtNtCs456UZznmu7y_5alloc3vec3VecNtNtBR_6string6StringENtB5_9FromValue10from_valueCs4WzB0igzGNX_17eldritch_libpivot
FN:65,_RNvXs3_NtCsjTRrhfWa0WU_13eldritch_core10conversionINtNtCs456UZznmu7y_5alloc3vec3VecxENtB5_9FromValue10from_valueCs4WzB0igzGNX_17eldritch_libpivot
FN:162,_RNvXsd_NtCsjTRrhfWa0WU_13eldritch_core10conversionINtNtCs456UZznmu7y_5alloc3vec3VecINtNtNtNtBR_11collections5btree3map8BTreeMapNtNtBR_6string6StringNtNtB7_3ast5ValueEENtB5_7ToValue8to_valueCs4WzB0igzGNX_17eldritch_libpivot
FN:203,_RNvXsh_NtCsjTRrhfWa0WU_13eldritch_core10conversionINtNtCs4Vq2ZLagKfv_4core6result6ResultINtNtCs456UZznmu7y_5alloc3vec3VecINtNtNtNtB1t_11collections5btree3map8BTreeMapNtNtB1t_6string6StringNtNtB7_3ast5ValueEEB2E_ENtB5_18IntoEldritchResult20into_eldritch_resultCs4WzB0igzGNX_17eldritch_libpivot
FN:203,_RNvXsh_NtCsjTRrhfWa0WU_13eldritch_core10conversionINtNtCs4Vq2ZLagKfv_4core6result6ResultINtNtNtNtCs456UZznmu7y_5alloc11collections5btree3map8BTreeMapNtNtB1x_6string6StringNtNtB7_3ast5ValueEB2n_ENtB5_18IntoEldritchResult20into_eldritch_resultCs4WzB0igzGNX_17eldritch_libpivot
FN:203,_RNvXsh_NtCsjTRrhfWa0WU_13eldritch_core10conversionINtNtCs4Vq2ZLagKfv_4core6result6ResultNtNtCs456UZznmu7y_5alloc6string6StringB1o_ENtB5_18IntoEldritchResult20into_eldritch_resultCs4WzB0igzGNX_17eldritch_libpivot
FN:203,_RNvXsh_NtCsjTRrhfWa0WU_13eldritch_core10conversionINtNtCs4Vq2ZLagKfv_4core6result6ResultuNtNtCs456UZznmu7y_5alloc6string6StringENtB5_18IntoEldritchResult20into_eldritch_resultCs4WzB0igzGNX_17eldritch_libpivot
FN:116,_RNvXs6_NtCsjTRrhfWa0WU_13eldritch_core10conversionINtNtCs4Vq2ZLagKfv_4core6option6OptionNtNtCs456UZznmu7y_5alloc6string6StringENtB5_9FromValue10from_valueCs4WzB0igzGNX_17eldritch_libpivot
FN:116,_RNvXs6_NtCsjTRrhfWa0WU_13eldritch_core10conversionINtNtCs4Vq2ZLagKfv_4core6option6OptionxENtB5_9FromValue10from_valueCs4WzB0igzGNX_17eldritch_libpivot
FN:163,_RNCNvXsd_NtCsjTRrhfWa0WU_13eldritch_core10conversionINtNtCs456UZznmu7y_5alloc3vec3VecINtNtNtNtBT_11collections5btree3map8BTreeMapNtNtBT_6string6StringNtNtB9_3ast5ValueEENtB7_7ToValue8to_value0Cs4WzB0igzGNX_17eldritch_libpivot
FN:204,_RNCNvXsh_NtCsjTRrhfWa0WU_13eldritch_core10conversionINtNtCs4Vq2ZLagKfv_4core6result6ResultINtNtCs456UZznmu7y_5alloc3vec3VecINtNtNtNtB1v_11collections5btree3map8BTreeMapNtNtB1v_6string6StringNtNtB9_3ast5ValueEEB2G_ENtB7_18IntoEldritchResult20into_eldritch_result0Cs4WzB0igzGNX_17eldritch_libpivot
FN:204,_RNCNvXsh_NtCsjTRrhfWa0WU_13eldritch_core10conversionINtNtCs4Vq2ZLagKfv_4core6result6ResultINtNtCs456UZznmu7y_5alloc3vec3VecINtNtNtNtB1v_11collections5btree3map8BTreeMapNtNtB1v_6string6StringNtNtB9_3ast5ValueEEB2G_ENtB7_18IntoEldritchResult20into_eldritch_results_0Cs4WzB0igzGNX_17eldritch_libpivot
FN:204,_RNCNvXsh_NtCsjTRrhfWa0WU_13eldritch_core10conversionINtNtCs4Vq2ZLagKfv_4core6result6ResultINtNtNtNtCs456UZznmu7y_5alloc11collections5btree3map8BTreeMapNtNtB1z_6string6StringNtNtB9_3ast5ValueEB2p_ENtB7_18IntoEldritchResult20into_eldritch_result0Cs4WzB0igzGNX_17eldritch_libpivot
FN:204,_RNCNvXsh_NtCsjTRrhfWa0WU_13eldritch_core10conversionINtNtCs4Vq2ZLagKfv_4core6result6ResultINtNtNtNtCs456UZznmu7y_5alloc11collections5btree3map8BTreeMapNtNtB1z_6string6StringNtNtB9_3ast5ValueEB2p_ENtB7_18IntoEldritchResult20into_eldritch_results_0Cs4WzB0igzGNX_17eldritch_libpivot
FN:204,_RNCNvXsh_NtCsjTRrhfWa0WU_13eldritch_core10conversionINtNtCs4Vq2ZLagKfv_4core6result6ResultNtNtCs456UZznmu7y_5alloc6string6StringB1q_ENtB7_18IntoEldritchResult20into_eldritch_result0Cs4WzB0igzGNX_17eldritch_libpivot
FN:204,_RNCNvXsh_NtCsjTRrhfWa0WU_13eldritch_core10conversionINtNtCs4Vq2ZLagKfv_4core6result6ResultNtNtCs456UZznmu7y_5alloc6string6StringB1q_ENtB7_18IntoEldritchResult20into_eldritch_results_0Cs4WzB0igzGNX_17eldritch_libpivot
FN:204,_RNCNvXsh_NtCsjTRrhfWa0WU_13eldritch_core10conversionINtNtCs4Vq2ZLagKfv_4core6result6ResultuNtNtCs456UZznmu7y_5alloc6string6StringENtB7_18IntoEldritchResult20into_eldritch_result0Cs4WzB0igzGNX_17eldritch_libpivot
FN:204,_RNCNvXsh_NtCsjTRrhfWa0WU_13eldritch_core10conversionINtNtCs4Vq2ZLagKfv_4core6result6ResultuNtNtCs456UZznmu7y_5alloc6string6StringENtB7_18IntoEldritchResult20into_eldritch_results_0Cs4WzB0igzGNX_17eldritch_libpivot
FN:169,_RNvXse_NtCsjTRrhfWa0WU_13eldritch_core10conversionINtNtNtNtCs456UZznmu7y_5alloc11collections5btree3map8BTreeMapNtNtBV_6string6StringNtNtB7_3ast5ValueENtB5_7ToValue8to_valueCs4WzB0igzGNX_17eldritch_libpivot
FN:203,_RNvXsh_NtCsjTRrhfWa0WU_13eldritch_core10conversionINtNtCs4Vq2ZLagKfv_4core6result6ResultINtNtNtNtCs456UZznmu7y_5alloc11collections5btree3map8BTreeMapNtNtB1x_6string6StringNtNtB7_3ast5ValueEB2n_ENtB5_18IntoEldritchResult20into_eldritch_resultCscWovyrnwTku_16eldritch_libhttp
FN:203,_RNvXsh_NtCsjTRrhfWa0WU_13eldritch_core10conversionINtNtCs4Vq2ZLagKfv_4core6result6ResultuNtNtCs456UZznmu7y_5alloc6string6StringENtB5_18IntoEldritchResult20into_eldritch_resultCscWovyrnwTku_16eldritch_libhttp
FN:116,_RNvXs6_NtCsjTRrhfWa0WU_13eldritch_core10conversionINtNtCs4Vq2ZLagKfv_4core6option6OptionINtNtNtNtCs456UZznmu7y_5alloc11collections5btree3map8BTreeMapNtNtB1x_6string6StringB2n_EENtB5_9FromValue10from_valueCscWovyrnwTku_16eldritch_libhttp
FN:116,_RNvXs6_NtCsjTRrhfWa0WU_13eldritch_core10conversionINtNtCs4Vq2ZLagKfv_4core6option6OptionNtNtCs456UZznmu7y_5alloc6string6StringENtB5_9FromValue10from_valueCscWovyrnwTku_16eldritch_libhttp
FN:116,_RNvXs6_NtCsjTRrhfWa0WU_13eldritch_core10conversionINtNtCs4Vq2ZLagKfv_4core6option6OptionbENtB5_9FromValue10from_valueCscWovyrnwTku_16eldritch_libhttp
FN:92,_RNvXs4_NtCsjTRrhfWa0WU_13eldritch_core10conversionINtNtNtNtCs456UZznmu7y_5alloc11collections5btree3map8BTreeMapNtNtBV_6string6StringB1L_ENtB5_9FromValue10from_valueCscWovyrnwTku_16eldritch_libhttp
FN:169,_RNvXse_NtCsjTRrhfWa0WU_13eldritch_core10conversionINtNtNtNtCs456UZznmu7y_5alloc11collections5btree3map8BTreeMapNtNtBV_6string6StringNtNtB7_3ast5ValueENtB5_7ToValue8to_valueCscWovyrnwTku_16eldritch_libhttp
FN:204,_RNCNvXsh_NtCsjTRrhfWa0WU_13eldritch_core10conversionINtNtCs4Vq2ZLagKfv_4core6result6ResultINtNtNtNtCs456UZznmu7y_5alloc11collections5btree3map8BTreeMapNtNtB1z_6string6StringNtNtB9_3ast5ValueEB2p_ENtB7_18IntoEldritchResult20into_eldritch_result0CscWovyrnwTku_16eldritch_libhttp
FN:204,_RNCNvXsh_NtCsjTRrhfWa0WU_13eldritch_core10conversionINtNtCs4Vq2ZLagKfv_4core6result6ResultINtNtNtNtCs456UZznmu7y_5alloc11collections5btree3map8BTreeMapNtNtB1z_6string6StringNtNtB9_3ast5ValueEB2p_ENtB7_18IntoEldritchResult20into_eldritch_results_0CscWovyrnwTku_16eldritch_libhttp
FN:204,_RNCNvXsh_NtCsjTRrhfWa0WU_13eldritch_core10conversionINtNtCs4Vq2ZLagKfv_4core6result6ResultuNtNtCs456UZznmu7y_5alloc6string6StringENtB7_18IntoEldritchResult20into_eldritch_result0CscWovyrnwTku_16eldritch_libhttp
FN:204,_RNCNvXsh_NtCsjTRrhfWa0WU_13eldritch_core10conversionINtNtCs4Vq2ZLagKfv_4core6result6ResultuNtNtCs456UZznmu7y_5alloc6string6StringENtB7_18IntoEldritchResult20into_eldritch_results_0CscWovyrnwTku_16eldritch_libhttp
FN:203,_RNvXsh_NtCsjTRrhfWa0WU_13eldritch_core10conversionINtNtCs4Vq2ZLagKfv_4core6result6ResultINtNtBR_6option6OptionNtNtCs456UZznmu7y_5alloc6string6StringEB1K_ENtB5_18IntoEldritchResult20into_eldritch_resultCsfq8ZNcGqxOs_16eldritch_libfile
FN:203,_RNvXsh_NtCsjTRrhfWa0WU_13eldritch_core10conversionINtNtCs4Vq2ZLagKfv_4core6result6ResultINtNtCs456UZznmu7y_5alloc3vec3VecINtNtNtNtB1t_11collections5btree3map8BTreeMapNtNtB1t_6string6StringNtNtB7_3ast5ValueEEB2E_ENtB5_18IntoEldritchResult20into_eldritch_resultCsfq8ZNcGqxOs_16eldritch_libfile
FN:203,_RNvXsh_NtCsjTRrhfWa0WU_13eldritch_core10conversionINtNtCs4Vq2ZLagKfv_4core6result6ResultINtNtCs456UZznmu7y_5alloc3vec3VecNtNtB1t_6string6StringEB1V_ENtB5_18IntoEldritchResult20into_eldritch_resultCsfq8ZNcGqxOs_16eldritch_libfile
FN:203,_RNvXsh_NtCsjTRrhfWa0WU_13eldritch_core10conversionINtNtCs4Vq2ZLagKfv_4core6result6ResultNtNtB7_3ast5ValueNtNtCs456UZznmu7y_5alloc6string6StringENtB5_18IntoEldritchResult20into_eldritch_resultCsfq8ZNcGqxOs_16eldritch_libfile
FN:203,_RNvXsh_NtCsjTRrhfWa0WU_13eldritch_core10conversionINtNtCs4Vq2ZLagKfv_4core6result6ResultNtNtCs456UZznmu7y_5alloc6string6StringB1o_ENtB5_18IntoEldritchResult20into_eldritch_resultCsfq8ZNcGqxOs_16eldritch_libfile
FN:203,_RNvXsh_NtCsjTRrhfWa0WU_13eldritch_core10conversionINtNtCs4Vq2ZLagKfv_4core6result6ResultbNtNtCs456UZznmu7y_5alloc6string6StringENtB5_18IntoEldritchResult20into_eldritch_resultCsfq8ZNcGqxOs_16eldritch_libfile
FN:203,_RNvXsh_NtCsjTRrhfWa0WU_13eldritch_core10conversionINtNtCs4Vq2ZLagKfv_4core6result6ResultuNtNtCs456UZznmu7y_5alloc6string6StringENtB5_18IntoEldritchResult20into_eldritch_resultCsfq8ZNcGqxOs_16eldritch_libfile
FN:92,_RNvXs4_NtCsjTRrhfWa0WU_13eldritch_core10conversionINtNtNtNtCs456UZznmu7y_5alloc11collections5btree3map8BTreeMapNtNtBV_6string6StringNtNtB7_3ast5ValueENtB5_9FromValue10from_valueCsfq8ZNcGqxOs_16eldritch_libfile
FN:169,_RNvXse_NtCsjTRrhfWa0WU_13eldritch_core10conversionINtNtNtNtCs456UZznmu7y_5alloc11collections5btree3map8BTreeMapNtNtBV_6string6StringNtNtB7_3ast5ValueENtB5_7ToValue8to_valueCsfq8ZNcGqxOs_16eldritch_libfile
FN:163,_RNCNvXsd_NtCsjTRrhfWa0WU_13eldritch_core10conversionINtNtCs456UZznmu7y_5alloc3vec3VecINtNtNtNtBT_11collections5btree3map8BTreeMapNtNtBT_6string6StringNtNtB9_3ast5ValueEENtB7_7ToValue8to_value0Csfq8ZNcGqxOs_16eldritch_libfile
FN:163,_RNCNvXsd_NtCsjTRrhfWa0WU_13eldritch_core10conversionINtNtCs456UZznmu7y_5alloc3vec3VecNtNtBT_6string6StringENtB7_7ToValue8to_value0Csfq8ZNcGqxOs_16eldritch_libfile
FN:204,_RNCNvXsh_NtCsjTRrhfWa0WU_13eldritch_core10conversionINtNtCs4Vq2ZLagKfv_4core6result6ResultINtNtBT_6option6OptionNtNtCs456UZznmu7y_5alloc6string6StringEB1M_ENtB7_18IntoEldritchResult20into_eldritch_result0Csfq8ZNcGqxOs_16eldritch_libfile
FN:204,_RNCNvXsh_NtCsjTRrhfWa0WU_13eldritch_core10conversionINtNtCs4Vq2ZLagKfv_4core6result6ResultINtNtBT_6option6OptionNtNtCs456UZznmu7y_5alloc6string6StringEB1M_ENtB7_18IntoEldritchResult20into_eldritch_results_0Csfq8ZNcGqxOs_16eldritch_libfile
FN:204,_RNCNvXsh_NtCsjTRrhfWa0WU_13eldritch_core10conversionINtNtCs4Vq2ZLagKfv_4core6result6ResultINtNtCs456UZznmu7y_5alloc3vec3VecINtNtNtNtB1v_11collections5btree3map8BTreeMapNtNtB1v_6string6StringNtNtB9_3ast5ValueEEB2G_ENtB7_18IntoEldritchResult20into_eldritch_result0Csfq8ZNcGqxOs_16eldritch_libfile
FN:204,_RNCNvXsh_NtCsjTRrhfWa0WU_13eldritch_core10conversionINtNtCs4Vq2ZLagKfv_4core6result6ResultINtNtCs456UZznmu7y_5alloc3vec3VecINtNtNtNtB1v_11collections5btree3map8BTreeMapNtNtB1v_6string6StringNtNtB9_3ast5ValueEEB2G_ENtB7_18IntoEldritchResult20into_eldritch_results_0Csfq8ZNcGqxOs_16eldritch_libfile
FN:204,_RNCNvXsh_NtCsjTRrhfWa0WU_13eldritch_core10conversionINtNtCs4Vq2ZLagKfv_4core6result6ResultINtNtCs456UZznmu7y_5alloc3vec3VecNtNtB1v_6string6StringEB1X_ENtB7_18IntoEldritchResult20into_eldritch_result0Csfq8ZNcGqxOs_16eldritch_libfile
FN:204,_RNCNvXsh_NtCsjTRrhfWa0WU_13eldritch_core10conversionINtNtCs4Vq2ZLagKfv_4core6result6ResultINtNtCs456UZznmu7y_5alloc3vec3VecNtNtB1v_6string6StringEB1X_ENtB7_18IntoEldritchResult20into_eldritch_results_0Csfq8ZNcGqxOs_16eldritch_libfile
FN:204,_RNCNvXsh_NtCsjTRrhfWa0WU_13eldritch_core10conversionINtNtCs4Vq2ZLagKfv_4core6result6ResultNtNtB9_3ast5ValueNtNtCs456UZznmu7y_5alloc6string6StringENtB7_18IntoEldritchResult20into_eldritch_result0Csfq8ZNcGqxOs_16eldritch_libfile
FN:204,_RNCNvXsh_NtCsjTRrhfWa0WU_13eldritch_core10conversionINtNtCs4Vq2ZLagKfv_4core6result6ResultNtNtB9_3ast5ValueNtNtCs456UZznmu7y_5alloc6string6StringENtB7_18IntoEldritchResult20into_eldritch_results_0Csfq8ZNcGqxOs_16eldritch_libfile
FN:204,_RNCNvXsh_NtCsjTRrhfWa0WU_13eldritch_core10conversionINtNtCs4Vq2ZLagKfv_4core6result6ResultNtNtCs456UZznmu7y_5alloc6string6StringB1q_ENtB7_18IntoEldritchResult20into_eldritch_result0Csfq8ZNcGqxOs_16eldritch_libfile
FN:204,_RNCNvXsh_NtCsjTRrhfWa0WU_13eldritch_core10conversionINtNtCs4Vq2ZLagKfv_4core6result6ResultNtNtCs456UZznmu7y_5alloc6string6StringB1q_ENtB7_18IntoEldritchResult20into_eldritch_results_0Csfq8ZNcGqxOs_16eldritch_libfile
FN:204,_RNCNvXsh_NtCsjTRrhfWa0WU_13eldritch_core10conversionINtNtCs4Vq2ZLagKfv_4core6result6ResultbNtNtCs456UZznmu7y_5alloc6string6StringENtB7_18IntoEldritchResult20into_eldritch_result0Csfq8ZNcGqxOs_16eldritch_libfile
FN:204,_RNCNvXsh_NtCsjTRrhfWa0WU_13eldritch_core10conversionINtNtCs4Vq2ZLagKfv_4core6result6ResultbNtNtCs456UZznmu7y_5alloc6string6StringENtB7_18IntoEldritchResult20into_eldritch_results_0Csfq8ZNcGqxOs_16eldritch_libfile
FN:204,_RNCNvXsh_NtCsjTRrhfWa0WU_13eldritch_core10conversionINtNtCs4Vq2ZLagKfv_4core6result6ResultuNtNtCs456UZznmu7y_5alloc6string6StringENtB7_18IntoEldritchResult20into_eldritch_result0Csfq8ZNcGqxOs_16eldritch_libfile
FN:204,_RNCNvXsh_NtCsjTRrhfWa0WU_13eldritch_core10conversionINtNtCs4Vq2ZLagKfv_4core6result6ResultuNtNtCs456UZznmu7y_5alloc6string6StringENtB7_18IntoEldritchResult20into_eldritch_results_0Csfq8ZNcGqxOs_16eldritch_libfile
FN:116,_RNvXs6_NtCsjTRrhfWa0WU_13eldritch_core10conversionINtNtCs4Vq2ZLagKfv_4core6option6OptionNtNtB7_3ast5ValueENtB5_9FromValue10from_valueCsfq8ZNcGqxOs_16eldritch_libfile
FN:116,_RNvXs6_NtCsjTRrhfWa0WU_13eldritch_core10conversionINtNtCs4Vq2ZLagKfv_4core6option6OptionNtNtCs456UZznmu7y_5alloc6string6StringENtB5_9FromValue10from_valueCsfq8ZNcGqxOs_16eldritch_libfile
FN:116,_RNvXs6_NtCsjTRrhfWa0WU_13eldritch_core10conversionINtNtCs4Vq2ZLagKfv_4core6option6OptionbENtB5_9FromValue10from_valueCsfq8ZNcGqxOs_16eldritch_libfile
FN:116,_RNvXs6_NtCsjTRrhfWa0WU_13eldritch_core10conversionINtNtCs4Vq2ZLagKfv_4core6option6OptionxENtB5_9FromValue10from_valueCsfq8ZNcGqxOs_16eldritch_libfile
FN:179,_RNvXsf_NtCsjTRrhfWa0WU_13eldritch_core10conversionINtNtCs4Vq2ZLagKfv_4core6option6OptionNtNtCs456UZznmu7y_5alloc6string6StringENtB5_7ToValue8to_valueCsfq8ZNcGqxOs_16eldritch_libfile
FN:162,_RNvXsd_NtCsjTRrhfWa0WU_13eldritch_core10conversionINtNtCs456UZznmu7y_5alloc3vec3VecINtNtNtNtBR_11collections5btree3map8BTreeMapNtNtBR_6string6StringNtNtB7_3ast5ValueEENtB5_7ToValue8to_valueCsfq8ZNcGqxOs_16eldritch_libfile
FN:162,_RNvXsd_NtCsjTRrhfWa0WU_13eldritch_core10conversionINtNtCs456UZznmu7y_5alloc3vec3VecNtNtBR_6string6StringENtB5_7ToValue8to_valueCsfq8ZNcGqxOs_16eldritch_libfile
FN:203,_RNvXsh_NtCsjTRrhfWa0WU_13eldritch_core10conversionINtNtCs4Vq2ZLagKfv_4core6result6ResultINtNtCs456UZznmu7y_5alloc3vec3VechENtNtB1t_6string6StringENtB5_18IntoEldritchResult20into_eldritch_resultCsajmQ4HJRykT_18eldritch_libcrypto
FN:203,_RNvXsh_NtCsjTRrhfWa0WU_13eldritch_core10conversionINtNtCs4Vq2ZLagKfv_4core6result6ResultNtNtB7_3ast5ValueNtNtCs456UZznmu7y_5alloc6string6StringENtB5_18IntoEldritchResult20into_eldritch_resultCsajmQ4HJRykT_18eldritch_libcrypto
FN:203,_RNvXsh_NtCsjTRrhfWa0WU_13eldritch_core10conversionINtNtCs4Vq2ZLagKfv_4core6result6ResultNtNtCs456UZznmu7y_5alloc6string6StringB1o_ENtB5_18IntoEldritchResult20into_eldritch_resultCsajmQ4HJRykT_18eldritch_libcrypto
FN:203,_RNvXsh_NtCsjTRrhfWa0WU_13eldritch_core10conversionINtNtCs4Vq2ZLagKfv_4core6result6ResultbNtNtCs456UZznmu7y_5alloc6string6StringENtB5_18IntoEldritchResult20into_eldritch_resultCsajmQ4HJRykT_18eldritch_libcrypto
FN:203,_RNvXsh_NtCsjTRrhfWa0WU_13eldritch_core10conversionINtNtCs4Vq2ZLagKfv_4core6result6ResultuNtNtCs456UZznmu7y_5alloc6string6StringENtB5_18IntoEldritchResult20into_eldritch_resultCsajmQ4HJRykT_18eldritch_libcrypto
FN:162,_RNvXsd_NtCsjTRrhfWa0WU_13eldritch_core10conversionINtNtCs456UZznmu7y_5alloc3vec3VecNtNtB7_3ast5ValueENtB5_7ToValue8to_valueCsajmQ4HJRykT_18eldritch_libcrypto
FN:116,_RNvXs6_NtCsjTRrhfWa0WU_13eldritch_core10conversionINtNtCs4Vq2ZLagKfv_4core6option6OptionNtNtCs456UZznmu7y_5alloc6string6StringENtB5_9FromValue10from_valueCsajmQ4HJRykT_18eldritch_libcrypto
FN:169,_RNvXse_NtCsjTRrhfWa0WU_13eldritch_core10conversionINtNtNtNtCs456UZznmu7y_5alloc11collections5btree3map8BTreeMapNtNtB7_3ast5ValueB1L_ENtB5_7ToValue8to_valueCsajmQ4HJRykT_18eldritch_libcrypto
FN:163,_RNCNvXsd_NtCsjTRrhfWa0WU_13eldritch_core10conversionINtNtCs456UZznmu7y_5alloc3vec3VecNtNtB9_3ast5ValueENtB7_7ToValue8to_value0CsajmQ4HJRykT_18eldritch_libcrypto
FN:204,_RNCNvXsh_NtCsjTRrhfWa0WU_13eldritch_core10conversionINtNtCs4Vq2ZLagKfv_4core6result6ResultINtNtCs456UZznmu7y_5alloc3vec3VechENtNtB1v_6string6StringENtB7_18IntoEldritchResult20into_eldritch_result0CsajmQ4HJRykT_18eldritch_libcrypto
FN:204,_RNCNvXsh_NtCsjTRrhfWa0WU_13eldritch_core10conversionINtNtCs4Vq2ZLagKfv_4core6result6ResultINtNtCs456UZznmu7y_5alloc3vec3VechENtNtB1v_6string6StringENtB7_18IntoEldritchResult20into_eldritch_results_0CsajmQ4HJRykT_18eldritch_libcrypto
FN:204,_RNCNvXsh_NtCsjTRrhfWa0WU_13eldritch_core10conversionINtNtCs4Vq2ZLagKfv_4core6result6ResultNtNtB9_3ast5ValueNtNtCs456UZznmu7y_5alloc6string6StringENtB7_18IntoEldritchResult20into_eldritch_result0CsajmQ4HJRykT_18eldritch_libcrypto
FN:204,_RNCNvXsh_NtCsjTRrhfWa0WU_13eldritch_core10conversionINtNtCs4Vq2ZLagKfv_4core6result6ResultNtNtB9_3ast5ValueNtNtCs456UZznmu7y_5alloc6string6StringENtB7_18IntoEldritchResult20into_eldritch_results_0CsajmQ4HJRykT_18eldritch_libcrypto
FN:204,_RNCNvXsh_NtCsjTRrhfWa0WU_13eldritch_core10conversionINtNtCs4Vq2ZLagKfv_4core6result6ResultNtNtCs456UZznmu7y_5alloc6string6StringB1q_ENtB7_18IntoEldritchResult20into_eldritch_result0CsajmQ4HJRykT_18eldritch_libcrypto
FN:204,_RNCNvXsh_NtCsjTRrhfWa0WU_13eldritch_core10conversionINtNtCs4Vq2ZLagKfv_4core6result6ResultNtNtCs456UZznmu7y_5alloc6string6StringB1q_ENtB7_18IntoEldritchResult20into_eldritch_results_0CsajmQ4HJRykT_18eldritch_libcrypto
FN:204,_RNCNvXsh_NtCsjTRrhfWa0WU_13eldritch_core10conversionINtNtCs4Vq2ZLagKfv_4core6result6ResultbNtNtCs456UZznmu7y_5alloc6string6StringENtB7_18IntoEldritchResult20into_eldritch_result0CsajmQ4HJRykT_18eldritch_libcrypto
FN:204,_RNCNvXsh_NtCsjTRrhfWa0WU_13eldritch_core10conversionINtNtCs4Vq2ZLagKfv_4core6result6ResultbNtNtCs456UZznmu7y_5alloc6string6StringENtB7_18IntoEldritchResult20into_eldritch_results_0CsajmQ4HJRykT_18eldritch_libcrypto
FN:204,_RNCNvXsh_NtCsjTRrhfWa0WU_13eldritch_core10conversionINtNtCs4Vq2ZLagKfv_4core6result6ResultuNtNtCs456UZznmu7y_5alloc6string6StringENtB7_18IntoEldritchResult20into_eldritch_result0CsajmQ4HJRykT_18eldritch_libcrypto
FN:204,_RNCNvXsh_NtCsjTRrhfWa0WU_13eldritch_core10conversionINtNtCs4Vq2ZLagKfv_4core6result6ResultuNtNtCs456UZznmu7y_5alloc6string6StringENtB7_18IntoEldritchResult20into_eldritch_results_0CsajmQ4HJRykT_18eldritch_libcrypto
FN:162,_RNvXsd_NtCsjTRrhfWa0WU_13eldritch_core10conversionINtNtCs456UZznmu7y_5alloc3vec3VecNtNtBR_6string6StringENtB5_7ToValue8to_valueCsjjrTDlECOC2_18eldritch_libassets
FN:203,_RNvXsh_NtCsjTRrhfWa0WU_13eldritch_core10conversionINtNtCs4Vq2ZLagKfv_4core6result6ResultINtNtCs456UZznmu7y_5alloc3vec3VecNtNtB1t_6string6StringEB1V_ENtB5_18IntoEldritchResult20into_eldritch_resultCsjjrTDlECOC2_18eldritch_libassets
FN:203,_RNvXsh_NtCsjTRrhfWa0WU_13eldritch_core10conversionINtNtCs4Vq2ZLagKfv_4core6result6ResultNtNtB7_3ast5ValueNtNtCs456UZznmu7y_5alloc6string6StringENtB5_18IntoEldritchResult20into_eldritch_resultCsjjrTDlECOC2_18eldritch_libassets
FN:203,_RNvXsh_NtCsjTRrhfWa0WU_13eldritch_core10conversionINtNtCs4Vq2ZLagKfv_4core6result6ResultNtNtCs456UZznmu7y_5alloc6string6StringB1o_ENtB5_18IntoEldritchResult20into_eldritch_resultCsjjrTDlECOC2_18eldritch_libassets
FN:203,_RNvXsh_NtCsjTRrhfWa0WU_13eldritch_core10conversionINtNtCs4Vq2ZLagKfv_4core6result6ResultuNtNtCs456UZznmu7y_5alloc6string6StringENtB5_18IntoEldritchResult20into_eldritch_resultCsjjrTDlECOC2_18eldritch_libassets
FN:163,_RNCNvXsd_NtCsjTRrhfWa0WU_13eldritch_core10conversionINtNtCs456UZznmu7y_5alloc3vec3VecNtNtBT_6string6StringENtB7_7ToValue8to_value0CsjjrTDlECOC2_18eldritch_libassets
FN:204,_RNCNvXsh_NtCsjTRrhfWa0WU_13eldritch_core10conversionINtNtCs4Vq2ZLagKfv_4core6result6ResultINtNtCs456UZznmu7y_5alloc3vec3VecNtNtB1v_6string6StringEB1X_ENtB7_18IntoEldritchResult20into_eldritch_result0CsjjrTDlECOC2_18eldritch_libassets
FN:204,_RNCNvXsh_NtCsjTRrhfWa0WU_13eldritch_core10conversionINtNtCs4Vq2ZLagKfv_4core6result6ResultINtNtCs456UZznmu7y_5alloc3vec3VecNtNtB1v_6string6StringEB1X_ENtB7_18IntoEldritchResult20into_eldritch_results_0CsjjrTDlECOC2_18eldritch_libassets
FN:204,_RNCNvXsh_NtCsjTRrhfWa0WU_13eldritch_core10conversionINtNtCs4Vq2ZLagKfv_4core6result6ResultNtNtB9_3ast5ValueNtNtCs456UZznmu7y_5alloc6string6StringENtB7_18IntoEldritchResult20into_eldritch_result0CsjjrTDlECOC2_18eldritch_libassets
FN:204,_RNCNvXsh_NtCsjTRrhfWa0WU_13eldritch_core10conversionINtNtCs4Vq2ZLagKfv_4core6result6ResultNtNtB9_3ast5ValueNtNtCs456UZznmu7y_5alloc6string6StringENtB7_18IntoEldritchResult20into_eldritch_results_0CsjjrTDlECOC2_18eldritch_libassets
FN:204,_RNCNvXsh_NtCsjTRrhfWa0WU_13eldritch_core10conversionINtNtCs4Vq2ZLagKfv_4core6result6ResultNtNtCs456UZznmu7y_5alloc6string6StringB1q_ENtB7_18IntoEldritchResult20into_eldritch_result0CsjjrTDlECOC2_18eldritch_libassets
FN:204,_RNCNvXsh_NtCsjTRrhfWa0WU_13eldritch_core10conversionINtNtCs4Vq2ZLagKfv_4core6result6ResultNtNtCs456UZznmu7y_5alloc6string6StringB1q_ENtB7_18IntoEldritchResult20into_eldritch_results_0CsjjrTDlECOC2_18eldritch_libassets
FN:204,_RNCNvXsh_NtCsjTRrhfWa0WU_13eldritch_core10conversionINtNtCs4Vq2ZLagKfv_4core6result6ResultuNtNtCs456UZznmu7y_5alloc6string6StringENtB7_18IntoEldritchResult20into_eldritch_result0CsjjrTDlECOC2_18eldritch_libassets
FN:204,_RNCNvXsh_NtCsjTRrhfWa0WU_13eldritch_core10conversionINtNtCs4Vq2ZLagKfv_4core6result6ResultuNtNtCs456UZznmu7y_5alloc6string6StringENtB7_18IntoEldritchResult20into_eldritch_results_0CsjjrTDlECOC2_18eldritch_libassets
FN:203,_RNvXsh_NtCsjTRrhfWa0WU_13eldritch_core10conversionINtNtCs4Vq2ZLagKfv_4core6result6ResultINtNtCs456UZznmu7y_5alloc3vec3VecNtNtB1t_6string6StringEB1V_ENtB5_18IntoEldritchResult20into_eldritch_resultCsaDfCljoBaJe_17eldritch_libagent
FN:203,_RNvXsh_NtCsjTRrhfWa0WU_13eldritch_core10conversionINtNtCs4Vq2ZLagKfv_4core6result6ResultINtNtCs456UZznmu7y_5alloc3vec3VecNtNtCsaDfCljoBaJe_17eldritch_libagent10conversion11TaskWrapperENtNtB1t_6string6StringENtB5_18IntoEldritchResult20into_eldritch_resultB1Z_
FN:203,_RNvXsh_NtCsjTRrhfWa0WU_13eldritch_core10conversionINtNtCs4Vq2ZLagKfv_4core6result6ResultINtNtNtNtCs456UZznmu7y_5alloc11collections5btree3map8BTreeMapNtNtB1x_6string6StringNtNtB7_3ast5ValueEB2n_ENtB5_18IntoEldritchResult20into_eldritch_resultCsaDfCljoBaJe_17eldritch_libagent
FN:203,_RNvXsh_NtCsjTRrhfWa0WU_13eldritch_core10conversionINtNtCs4Vq2ZLagKfv_4core6result6ResultNtNtCs456UZznmu7y_5alloc6string6StringB1o_ENtB5_18IntoEldritchResult20into_eldritch_resultCsaDfCljoBaJe_17eldritch_libagent
FN:203,_RNvXsh_NtCsjTRrhfWa0WU_13eldritch_core10conversionINtNtCs4Vq2ZLagKfv_4core6result6ResultuNtNtCs456UZznmu7y_5alloc6string6StringENtB5_18IntoEldritchResult20into_eldritch_resultCsaDfCljoBaJe_17eldritch_libagent
FN:203,_RNvXsh_NtCsjTRrhfWa0WU_13eldritch_core10conversionINtNtCs4Vq2ZLagKfv_4core6result6ResultxNtNtCs456UZznmu7y_5alloc6string6StringENtB5_18IntoEldritchResult20into_eldritch_resultCsaDfCljoBaJe_17eldritch_libagent
FN:163,_RNCNvXsd_NtCsjTRrhfWa0WU_13eldritch_core10conversionINtNtCs456UZznmu7y_5alloc3vec3VecNtNtBT_6string6StringENtB7_7ToValue8to_value0CsaDfCljoBaJe_17eldritch_libagent
FN:163,_RNCNvXsd_NtCsjTRrhfWa0WU_13eldritch_core10conversionINtNtCs456UZznmu7y_5alloc3vec3VecNtNtCsaDfCljoBaJe_17eldritch_libagent10conversion11TaskWrapperENtB7_7ToValue8to_value0B1p_
FN:204,_RNCNvXsh_NtCsjTRrhfWa0WU_13eldritch_core10conversionINtNtCs4Vq2ZLagKfv_4core6result6ResultINtNtCs456UZznmu7y_5alloc3vec3VecNtNtB1v_6string6StringEB1X_ENtB7_18IntoEldritchResult20into_eldritch_result0CsaDfCljoBaJe_17eldritch_libagent
FN:204,_RNCNvXsh_NtCsjTRrhfWa0WU_13eldritch_core10conversionINtNtCs4Vq2ZLagKfv_4core6result6ResultINtNtCs456UZznmu7y_5alloc3vec3VecNtNtB1v_6string6StringEB1X_ENtB7_18IntoEldritchResult20into_eldritch_results_0CsaDfCljoBaJe_17eldritch_libagent
FN:204,_RNCNvXsh_NtCsjTRrhfWa0WU_13eldritch_core10conversionINtNtCs4Vq2ZLagKfv_4core6result6ResultINtNtCs456UZznmu7y_5alloc3vec3VecNtNtCsaDfCljoBaJe_17eldritch_libagent10conversion11TaskWrapperENtNtB1v_6string6StringENtB7_18IntoEldritchResult20into_eldritch_result0B21_
FN:204,_RNCNvXsh_NtCsjTRrhfWa0WU_13eldritch_core10conversionINtNtCs4Vq2ZLagKfv_4core6result6ResultINtNtCs456UZznmu7y_5alloc3vec3VecNtNtCsaDfCljoBaJe_17eldritch_libagent10conversion11TaskWrapperENtNtB1v_6string6StringENtB7_18IntoEldritchResult20into_eldritch_results_0B21_
FN:204,_RNCNvXsh_NtCsjTRrhfWa0WU_13eldritch_core10conversionINtNtCs4Vq2ZLagKfv_4core6result6ResultINtNtNtNtCs456UZznmu7y_5alloc11collections5btree3map8BTreeMapNtNtB1z_6string6StringNtNtB9_3ast5ValueEB2p_ENtB7_18IntoEldritchResult20into_eldritch_result0CsaDfCljoBaJe_17eldritch_libagent
FN:204,_RNCNvXsh_NtCsjTRrhfWa0WU_13eldritch_core10conversionINtNtCs4Vq2ZLagKfv_4core6result6ResultINtNtNtNtCs456UZznmu7y_5alloc11collections5btree3map8BTreeMapNtNtB1z_6string6StringNtNtB9_3ast5ValueEB2p_ENtB7_18IntoEldritchResult20into_eldritch_results_0CsaDfCljoBaJe_17eldritch_libagent
FN:204,_RNCNvXsh_NtCsjTRrhfWa0WU_13eldritch_core10conversionINtNtCs4Vq2ZLagKfv_4core6result6ResultNtNtCs456UZznmu7y_5alloc6string6StringB1q_ENtB7_18IntoEldritchResult20into_eldritch_result0CsaDfCljoBaJe_17eldritch_libagent
FN:204,_RNCNvXsh_NtCsjTRrhfWa0WU_13eldritch_core10conversionINtNtCs4Vq2ZLagKfv_4core6result6ResultNtNtCs456UZznmu7y_5alloc6string6StringB1q_ENtB7_18IntoEldritchResult20into_eldritch_results_0CsaDfCljoBaJe_17eldritch_libagent
FN:204,_RNCNvXsh_NtCsjTRrhfWa0WU_13eldritch_core10conversionINtNtCs4Vq2ZLagKfv_4core6result6ResultuNtNtCs456UZznmu7y_5alloc6string6StringENtB7_18IntoEldritchResult20into_eldritch_result0CsaDfCljoBaJe_17eldritch_libagent
FN:204,_RNCNvXsh_NtCsjTRrhfWa0WU_13eldritch_core10conversionINtNtCs4Vq2ZLagKfv_4core6result6ResultuNtNtCs456UZznmu7y_5alloc6string6StringENtB7_18IntoEldritchResult20into_eldritch_results_0CsaDfCljoBaJe_17eldritch_libagent
FN:204,_RNCNvXsh_NtCsjTRrhfWa0WU_13eldritch_core10conversionINtNtCs4Vq2ZLagKfv_4core6result6ResultxNtNtCs456UZznmu7y_5alloc6string6StringENtB7_18IntoEldritchResult20into_eldritch_result0CsaDfCljoBaJe_17eldritch_libagent
FN:204,_RNCNvXsh_NtCsjTRrhfWa0WU_13eldritch_core10conversionINtNtCs4Vq2ZLagKfv_4core6result6ResultxNtNtCs456UZznmu7y_5alloc6string6StringENtB7_18IntoEldritchResult20into_eldritch_results_0CsaDfCljoBaJe_17eldritch_libagent
FN:162,_RNvXsd_NtCsjTRrhfWa0WU_13eldritch_core10conversionINtNtCs456UZznmu7y_5alloc3vec3VecNtNtBR_6string6StringENtB5_7ToValue8to_valueCsaDfCljoBaJe_17eldritch_libagent
FN:162,_RNvXsd_NtCsjTRrhfWa0WU_13eldritch_core10conversionINtNtCs456UZznmu7y_5alloc3vec3VecNtNtCsaDfCljoBaJe_17eldritch_libagent10conversion11TaskWrapperENtB5_7ToValue8to_valueB1n_
FN:169,_RNvXse_NtCsjTRrhfWa0WU_13eldritch_core10conversionINtNtNtNtCs456UZznmu7y_5alloc11collections5btree3map8BTreeMapNtNtBV_6string6StringNtNtB7_3ast5ValueENtB5_7ToValue8to_valueCsaDfCljoBaJe_17eldritch_libagent
FN:163,_RNCNvXININtCs3OupGlkSanV_13eldritch_core10conversionsd_0pEINtNtCs456UZznmu7y_5alloc3vec3VecpENtB7_7ToValue8to_value0B9_
FN:204,_RNCNvXININtCs3OupGlkSanV_13eldritch_core10conversionsh_0ppEINtNtCs4Vq2ZLagKfv_4core6result6ResultppENtB7_18IntoEldritchResult20into_eldritch_result0B9_
FN:204,_RNCNvXININtCs3OupGlkSanV_13eldritch_core10conversionsh_0ppEINtNtCs4Vq2ZLagKfv_4core6result6ResultppENtB7_18IntoEldritchResult20into_eldritch_results_0B9_
FN:209,_RNvNtCs3OupGlkSanV_13eldritch_core10conversion13get_type_name
FN:65,_RNvXININtCs3OupGlkSanV_13eldritch_core10conversions3_0pEINtNtCs456UZznmu7y_5alloc3vec3VecpENtB5_9FromValue10from_valueB7_
FN:92,_RNvXININtCs3OupGlkSanV_13eldritch_core10conversions4_0ppEINtNtNtNtCs456UZznmu7y_5alloc11collections5btree3map8BTreeMapppENtB5_9FromValue10from_valueB7_
FN:116,_RNvXININtCs3OupGlkSanV_13eldritch_core10conversions6_0pEINtNtCs4Vq2ZLagKfv_4core6option6OptionpENtB5_9FromValue10from_valueB7_
FN:162,_RNvXININtCs3OupGlkSanV_13eldritch_core10conversionsd_0pEINtNtCs456UZznmu7y_5alloc3vec3VecpENtB5_7ToValue8to_valueB7_
FN:169,_RNvXININtCs3OupGlkSanV_13eldritch_core10conversionse_0ppEINtNtNtNtCs456UZznmu7y_5alloc11collections5btree3map8BTreeMapppENtB5_7ToValue8to_valueB7_
FN:179,_RNvXININtCs3OupGlkSanV_13eldritch_core10conversionsf_0pEINtNtCs4Vq2ZLagKfv_4core6option6OptionpENtB5_7ToValue8to_valueB7_
FN:203,_RNvXININtCs3OupGlkSanV_13eldritch_core10conversionsh_0ppEINtNtCs4Vq2ZLagKfv_4core6result6ResultppENtB5_18IntoEldritchResult20into_eldritch_resultB7_
FN:19,_RNvXNtCs3OupGlkSanV_13eldritch_core10conversionxNtB2_9FromValue10from_value
FN:38,_RNvXs0_NtCs3OupGlkSanV_13eldritch_core10conversionNtNtCs456UZznmu7y_5alloc6string6StringNtB5_9FromValue10from_value
FN:47,_RNvXs1_NtCs3OupGlkSanV_13eldritch_core10conversionbNtB5_9FromValue10from_value
FN:56,_RNvXs2_NtCs3OupGlkSanV_13eldritch_core10conversionINtNtCs456UZznmu7y_5alloc3vec3VechENtB5_9FromValue10from_value
FN:110,_RNvXs5_NtCs3OupGlkSanV_13eldritch_core10conversionNtNtB7_3ast5ValueNtB5_9FromValue10from_value
FN:126,_RNvXs7_NtCs3OupGlkSanV_13eldritch_core10conversionxNtB5_7ToValue8to_value
FN:132,_RNvXs8_NtCs3OupGlkSanV_13eldritch_core10conversiondNtB5_7ToValue8to_value
FN:138,_RNvXs9_NtCs3OupGlkSanV_13eldritch_core10conversionNtNtCs456UZznmu7y_5alloc6string6StringNtB5_7ToValue8to_value
FN:28,_RNvXs_NtCs3OupGlkSanV_13eldritch_core10conversiondNtB4_9FromValue10from_value
FN:144,_RNvXsa_NtCs3OupGlkSanV_13eldritch_core10conversionuNtB5_7ToValue8to_value
FN:150,_RNvXsb_NtCs3OupGlkSanV_13eldritch_core10conversionbNtB5_7ToValue8to_value
FN:156,_RNvXsc_NtCs3OupGlkSanV_13eldritch_core10conversionINtNtCs456UZznmu7y_5alloc3vec3VechENtB5_7ToValue8to_value
FN:188,_RNvXsg_NtCs3OupGlkSanV_13eldritch_core10conversionNtNtB7_3ast5ValueNtB5_7ToValue8to_value
FN:169,_RNvXse_NtCsjTRrhfWa0WU_13eldritch_core10conversionINtNtNtNtCs456UZznmu7y_5alloc11collections5btree3map8BTreeMapNtNtB7_3ast5ValueB1L_ENtB5_7ToValue8to_valueCslapJfWclpJO_18eldritch_libcrypto
FN:162,_RNvXsd_NtCsjTRrhfWa0WU_13eldritch_core10conversionINtNtCs456UZznmu7y_5alloc3vec3VecNtNtB7_3ast5ValueENtB5_7ToValue8to_valueCslapJfWclpJO_18eldritch_libcrypto
FN:163,_RNCNvXsd_NtCsjTRrhfWa0WU_13eldritch_core10conversionINtNtCs456UZznmu7y_5alloc3vec3VecNtNtB9_3ast5ValueENtB7_7ToValue8to_value0CslapJfWclpJO_18eldritch_libcrypto
FN:163,_RNCNvXININtCsjTRrhfWa0WU_13eldritch_core10conversionsd_0pEINtNtCs456UZznmu7y_5alloc3vec3VecpENtB7_7ToValue8to_value0B9_
FN:204,_RNCNvXININtCsjTRrhfWa0WU_13eldritch_core10conversionsh_0ppEINtNtCs4Vq2ZLagKfv_4core6result6ResultppENtB7_18IntoEldritchResult20into_eldritch_result0B9_
FN:204,_RNCNvXININtCsjTRrhfWa0WU_13eldritch_core10conversionsh_0ppEINtNtCs4Vq2ZLagKfv_4core6result6ResultppENtB7_18IntoEldritchResult20into_eldritch_results_0B9_
FN:65,_RNvXININtCsjTRrhfWa0WU_13eldritch_core10conversions3_0pEINtNtCs456UZznmu7y_5alloc3vec3VecpENtB5_9FromValue10from_valueB7_
FN:92,_RNvXININtCsjTRrhfWa0WU_13eldritch_core10conversions4_0ppEINtNtNtNtCs456UZznmu7y_5alloc11collections5btree3map8BTreeMapppENtB5_9FromValue10from_valueB7_
FN:116,_RNvXININtCsjTRrhfWa0WU_13eldritch_core10conversions6_0pEINtNtCs4Vq2ZLagKfv_4core6option6OptionpENtB5_9FromValue10from_valueB7_
FN:162,_RNvXININtCsjTRrhfWa0WU_13eldritch_core10conversionsd_0pEINtNtCs456UZznmu7y_5alloc3vec3VecpENtB5_7ToValue8to_valueB7_
FN:169,_RNvXININtCsjTRrhfWa0WU_13eldritch_core10conversionse_0ppEINtNtNtNtCs456UZznmu7y_5alloc11collections5btree3map8BTreeMapppENtB5_7ToValue8to_valueB7_
FN:179,_RNvXININtCsjTRrhfWa0WU_13eldritch_core10conversionsf_0pEINtNtCs4Vq2ZLagKfv_4core6option6OptionpENtB5_7ToValue8to_valueB7_
FN:203,_RNvXININtCsjTRrhfWa0WU_13eldritch_core10conversionsh_0ppEINtNtCs4Vq2ZLagKfv_4core6result6ResultppENtB5_18IntoEldritchResult20into_eldritch_resultB7_
FNDA:830,_RNvXs0_NtCsjTRrhfWa0WU_13eldritch_core10conversionNtNtCs456UZznmu7y_5alloc6string6StringNtB5_9FromValue10from_value
FNDA:858,_RNvXs9_NtCsjTRrhfWa0WU_13eldritch_core10conversionNtNtCs456UZznmu7y_5alloc6string6StringNtB5_7ToValue8to_value
FNDA:819,_RNvXs5_NtCsjTRrhfWa0WU_13eldritch_core10conversionNtNtB7_3ast5ValueNtB5_9FromValue10from_value
FNDA:869,_RNvXsg_NtCsjTRrhfWa0WU_13eldritch_core10conversionNtNtB7_3ast5ValueNtB5_7ToValue8to_value
FNDA:0,_RNvXs2_NtCsjTRrhfWa0WU_13eldritch_core10conversionINtNtCs456UZznmu7y_5alloc3vec3VechENtB5_9FromValue10from_value
FNDA:0,_RNvXsc_NtCsjTRrhfWa0WU_13eldritch_core10conversionINtNtCs456UZznmu7y_5alloc3vec3VechENtB5_7ToValue8to_value
FNDA:0,_RNvNtCsjTRrhfWa0WU_13eldritch_core10conversion13get_type_name
FNDA:0,_RNvXNtCsjTRrhfWa0WU_13eldritch_core10conversionxNtB2_9FromValue10from_value
FNDA:0,_RNvXs1_NtCsjTRrhfWa0WU_13eldritch_core10conversionbNtB5_9FromValue10from_value
FNDA:5,_RNvXs7_NtCsjTRrhfWa0WU_13eldritch_core10conversionxNtB5_7ToValue8to_value
FNDA:0,_RNvXs8_NtCsjTRrhfWa0WU_13eldritch_core10conversiondNtB5_7ToValue8to_value
FNDA:0,_RNvXs_NtCsjTRrhfWa0WU_13eldritch_core10conversiondNtB4_9FromValue10from_value
FNDA:3,_RNvXsa_NtCsjTRrhfWa0WU_13eldritch_core10conversionuNtB5_7ToValue8to_value
FNDA:5,_RNvXsb_NtCsjTRrhfWa0WU_13eldritch_core10conversionbNtB5_7ToValue8to_value
FNDA:0,_RNvXsh_NtCsjTRrhfWa0WU_13eldritch_core10conversionINtNtCs4Vq2ZLagKfv_4core6result6ResultNtNtCs456UZznmu7y_5alloc6string6StringB1o_ENtB5_18IntoEldritchResult20into_eldritch_resultCsglWS1Ns20KR_16eldritch_libtime
FNDA:0,_RNvXsh_NtCsjTRrhfWa0WU_13eldritch_core10conversionINtNtCs4Vq2ZLagKfv_4core6result6ResultuNtNtCs456UZznmu7y_5alloc6string6StringENtB5_18IntoEldritchResult20into_eldritch_resultCsglWS1Ns20KR_16eldritch_libtime
FNDA:0,_RNvXsh_NtCsjTRrhfWa0WU_13eldritch_core10conversionINtNtCs4Vq2ZLagKfv_4core6result6ResultxNtNtCs456UZznmu7y_5alloc6string6StringENtB5_18IntoEldritchResult20into_eldritch_resultCsglWS1Ns20KR_16eldritch_libtime
FNDA:0,_RNCNvXsh_NtCsjTRrhfWa0WU_13eldritch_core10conversionINtNtCs4Vq2ZLagKfv_4core6result6ResultNtNtCs456UZznmu7y_5alloc6string6StringB1q_ENtB7_18IntoEldritchResult20into_eldritch_result0CsglWS1Ns20KR_16eldritch_libtime
FNDA:0,_RNCNvXsh_NtCsjTRrhfWa0WU_13eldritch_core10conversionINtNtCs4Vq2ZLagKfv_4core6result6ResultNtNtCs456UZznmu7y_5alloc6string6StringB1q_ENtB7_18IntoEldritchResult20into_eldritch_results_0CsglWS1Ns20KR_16eldritch_libtime
FNDA:0,_RNCNvXsh_NtCsjTRrhfWa0WU_13eldritch_core10conversionINtNtCs4Vq2ZLagKfv_4core6result6ResultuNtNtCs456UZznmu7y_5alloc6string6StringENtB7_18IntoEldritchResult20into_eldritch_result0CsglWS1Ns20KR_16eldritch_libtime
FNDA:0,_RNCNvXsh_NtCsjTRrhfWa0WU_13eldritch_core10conversionINtNtCs4Vq2ZLagKfv_4core6result6ResultuNtNtCs456UZznmu7y_5alloc6string6StringENtB7_18IntoEldritchResult20into_eldritch_results_0CsglWS1Ns20KR_16eldritch_libtime
FNDA:0,_RNCNvXsh_NtCsjTRrhfWa0WU_13eldritch_core10conversionINtNtCs4Vq2ZLagKfv_4core6result6ResultxNtNtCs456UZznmu7y_5alloc6string6StringENtB7_18IntoEldritchResult20into_eldritch_result0CsglWS1Ns20KR_16eldritch_libtime
FNDA:0,_RNCNvXsh_NtCsjTRrhfWa0WU_13eldritch_core10conversionINtNtCs4Vq2ZLagKfv_4core6result6ResultxNtNtCs456UZznmu7y_5alloc6string6StringENtB7_18IntoEldritchResult20into_eldritch_results_0CsglWS1Ns20KR_16eldritch_libtime
FNDA:0,_RNvXsh_NtCsjTRrhfWa0WU_13eldritch_core10conversionINtNtCs4Vq2ZLagKfv_4core6result6ResultINtNtCs456UZznmu7y_5alloc3vec3VecINtNtNtNtB1t_11collections5btree3map8BTreeMapNtNtB1t_6string6StringB2E_EEB2E_ENtB5_18IntoEldritchResult20into_eldritch_resultCs6MQ2kXofuUf_15eldritch_libsys
FNDA:0,_RNvXsh_NtCsjTRrhfWa0WU_13eldritch_core10conversionINtNtCs4Vq2ZLagKfv_4core6result6ResultINtNtCs456UZznmu7y_5alloc3vec3VecINtNtNtNtB1t_11collections5btree3map8BTreeMapNtNtB1t_6string6StringNtNtB7_3ast5ValueEEB2E_ENtB5_18IntoEldritchResult20into_eldritch_resultCs6MQ2kXofuUf_15eldritch_libsys
FNDA:0,_RNvXsh_NtCsjTRrhfWa0WU_13eldritch_core10conversionINtNtCs4Vq2ZLagKfv_4core6result6ResultINtNtNtNtCs456UZznmu7y_5alloc11collections5btree3map8BTreeMapNtNtB1x_6string6StringB2n_EB2n_ENtB5_18IntoEldritchResult20into_eldritch_resultCs6MQ2kXofuUf_15eldritch_libsys
FNDA:2,_RNvXsh_NtCsjTRrhfWa0WU_13eldritch_core10conversionINtNtCs4Vq2ZLagKfv_4core6result6ResultINtNtNtNtCs456UZznmu7y_5alloc11collections5btree3map8BTreeMapNtNtB1x_6string6StringNtNtB7_3ast5ValueEB2n_ENtB5_18IntoEldritchResult20into_eldritch_resultCs6MQ2kXofuUf_15eldritch_libsys
FNDA:2,_RNvXsh_NtCsjTRrhfWa0WU_13eldritch_core10conversionINtNtCs4Vq2ZLagKfv_4core6result6ResultNtNtCs456UZznmu7y_5alloc6string6StringB1o_ENtB5_18IntoEldritchResult20into_eldritch_resultCs6MQ2kXofuUf_15eldritch_libsys
FNDA:3,_RNvXsh_NtCsjTRrhfWa0WU_13eldritch_core10conversionINtNtCs4Vq2ZLagKfv_4core6result6ResultbNtNtCs456UZznmu7y_5alloc6string6StringENtB5_18IntoEldritchResult20into_eldritch_resultCs6MQ2kXofuUf_15eldritch_libsys
FNDA:0,_RNvXsh_NtCsjTRrhfWa0WU_13eldritch_core10conversionINtNtCs4Vq2ZLagKfv_4core6result6ResultuNtNtCs456UZznmu7y_5alloc6string6StringENtB5_18IntoEldritchResult20into_eldritch_resultCs6MQ2kXofuUf_15eldritch_libsys
FNDA:0,_RNvXsh_NtCsjTRrhfWa0WU_13eldritch_core10conversionINtNtCs4Vq2ZLagKfv_4core6result6ResultxNtNtCs456UZznmu7y_5alloc6string6StringENtB5_18IntoEldritchResult20into_eldritch_resultCs6MQ2kXofuUf_15eldritch_libsys
FNDA:0,_RNCNvXsd_NtCsjTRrhfWa0WU_13eldritch_core10conversionINtNtCs456UZznmu7y_5alloc3vec3VecINtNtNtNtBT_11collections5btree3map8BTreeMapNtNtBT_6string6StringB23_EENtB7_7ToValue8to_value0Cs6MQ2kXofuUf_15eldritch_libsys
FNDA:0,_RNCNvXsd_NtCsjTRrhfWa0WU_13eldritch_core10conversionINtNtCs456UZznmu7y_5alloc3vec3VecINtNtNtNtBT_11collections5btree3map8BTreeMapNtNtBT_6string6StringNtNtB9_3ast5ValueEENtB7_7ToValue8to_value0Cs6MQ2kXofuUf_15eldritch_libsys
FNDA:0,_RNCNvXsh_NtCsjTRrhfWa0WU_13eldritch_core10conversionINtNtCs4Vq2ZLagKfv_4core6result6ResultINtNtCs456UZznmu7y_5alloc3vec3VecINtNtNtNtB1v_11collections5btree3map8BTreeMapNtNtB1v_6string6StringB2G_EEB2G_ENtB7_18IntoEldritchResult20into_eldritch_result0Cs6MQ2kXofuUf_15eldritch_libsys
FNDA:0,_RNCNvXsh_NtCsjTRrhfWa0WU_13eldritch_core10conversionINtNtCs4Vq2ZLagKfv_4core6result6ResultINtNtCs456UZznmu7y_5alloc3vec3VecINtNtNtNtB1v_11collections5btree3map8BTreeMapNtNtB1v_6string6StringB2G_EEB2G_ENtB7_18IntoEldritchResult20into_eldritch_results_0Cs6MQ2kXofuUf_15eldritch_libsys
FNDA:0,_RNCNvXsh_NtCsjTRrhfWa0WU_13eldritch_core10conversionINtNtCs4Vq2ZLagKfv_4core6result6ResultINtNtCs456UZznmu7y_5alloc3vec3VecINtNtNtNtB1v_11collections5btree3map8BTreeMapNtNtB1v_6string6StringNtNtB9_3ast5ValueEEB2G_ENtB7_18IntoEldritchResult20into_eldritch_result0Cs6MQ2kXofuUf_15eldritch_libsys
FNDA:0,_RNCNvXsh_NtCsjTRrhfWa0WU_13eldritch_core10conversionINtNtCs4Vq2ZLagKfv_4core6result6ResultINtNtCs456UZznmu7y_5alloc3vec3VecINtNtNtNtB1v_11collections5btree3map8BTreeMapNtNtB1v_6string6StringNtNtB9_3ast5ValueEEB2G_ENtB7_18IntoEldritchResult20into_eldritch_results_0Cs6MQ2kXofuUf_15eldritch_libsys
FNDA:0,_RNCNvXsh_NtCsjTRrhfWa0WU_13eldritch_core10conversionINtNtCs4Vq2ZLagKfv_4core6result6ResultINtNtNtNtCs456UZznmu7y_5alloc11collections5btree3map8BTreeMapNtNtB1z_6string6StringB2p_EB2p_ENtB7_18IntoEldritchResult20into_eldritch_result0Cs6MQ2kXofuUf_15eldritch_libsys
FNDA:0,_RNCNvXsh_NtCsjTRrhfWa0WU_13eldritch_core10conversionINtNtCs4Vq2ZLagKfv_4core6result6ResultINtNtNtNtCs456UZznmu7y_5alloc11collections5btree3map8BTreeMapNtNtB1z_6string6StringB2p_EB2p_ENtB7_18IntoEldritchResult20into_eldritch_results_0Cs6MQ2kXofuUf_15eldritch_libsys
FNDA:2,_RNCNvXsh_NtCsjTRrhfWa0WU_13eldritch_core10conversionINtNtCs4Vq2ZLagKfv_4core6result6ResultINtNtNtNtCs456UZznmu7y_5alloc11collections5btree3map8BTreeMapNtNtB1z_6string6StringNtNtB9_3ast5ValueEB2p_ENtB7_18IntoEldritchResult20into_eldritch_result0Cs6MQ2kXofuUf_15eldritch_libsys
FNDA:0,_RNCNvXsh_NtCsjTRrhfWa0WU_13eldritch_core10conversionINtNtCs4Vq2ZLagKfv_4core6result6ResultINtNtNtNtCs456UZznmu7y_5alloc11collections5btree3map8BTreeMapNtNtB1z_6string6StringNtNtB9_3ast5ValueEB2p_ENtB7_18IntoEldritchResult20into_eldritch_results_0Cs6MQ2kXofuUf_15eldritch_libsys
FNDA:2,_RNCNvXsh_NtCsjTRrhfWa0WU_13eldritch_core10conversionINtNtCs4Vq2ZLagKfv_4core6result6ResultNtNtCs456UZznmu7y_5alloc6string6StringB1q_ENtB7_18IntoEldritchResult20into_eldritch_result0Cs6MQ2kXofuUf_15eldritch_libsys
FNDA:0,_RNCNvXsh_NtCsjTRrhfWa0WU_13eldritch_core10conversionINtNtCs4Vq2ZLagKfv_4core6result6ResultNtNtCs456UZznmu7y_5alloc6string6StringB1q_ENtB7_18IntoEldritchResult20into_eldritch_results_0Cs6MQ2kXofuUf_15eldritch_libsys
FNDA:3,_RNCNvXsh_NtCsjTRrhfWa0WU_13eldritch_core10conversionINtNtCs4Vq2ZLagKfv_4core6result6ResultbNtNtCs456UZznmu7y_5alloc6string6StringENtB7_18IntoEldritchResult20into_eldritch_result0Cs6MQ2kXofuUf_15eldritch_libsys
FNDA:0,_RNCNvXsh_NtCsjTRrhfWa0WU_13eldritch_core10conversionINtNtCs4Vq2ZLagKfv_4core6result6ResultbNtNtCs456UZznmu7y_5alloc6string6StringENtB7_18IntoEldritchResult20into_eldritch_results_0Cs6MQ2kXofuUf_15eldritch_libsys
FNDA:0,_RNCNvXsh_NtCsjTRrhfWa0WU_13eldritch_core10conversionINtNtCs4Vq2ZLagKfv_4core6result6ResultuNtNtCs456UZznmu7y_5alloc6string6StringENtB7_18IntoEldritchResult20into_eldritch_result0Cs6MQ2kXofuUf_15eldritch_libsys
FNDA:0,_RNCNvXsh_NtCsjTRrhfWa0WU_13eldritch_core10conversionINtNtCs4Vq2ZLagKfv_4core6result6ResultuNtNtCs456UZznmu7y_5alloc6string6StringENtB7_18IntoEldritchResult20into_eldritch_results_0Cs6MQ2kXofuUf_15eldritch_libsys
FNDA:0,_RNCNvXsh_NtCsjTRrhfWa0WU_13eldritch_core10conversionINtNtCs4Vq2ZLagKfv_4core6result6ResultxNtNtCs456UZznmu7y_5alloc6string6StringENtB7_18IntoEldritchResult20into_eldritch_result0Cs6MQ2kXofuUf_15eldritch_libsys
FNDA:0,_RNCNvXsh_NtCsjTRrhfWa0WU_13eldritch_core10conversionINtNtCs4Vq2ZLagKfv_4core6result6ResultxNtNtCs456UZznmu7y_5alloc6string6StringENtB7_18IntoEldritchResult20into_eldritch_results_0Cs6MQ2kXofuUf_15eldritch_libsys
FNDA:0,_RNvXs4_NtCsjTRrhfWa0WU_13eldritch_core10conversionINtNtNtNtCs456UZznmu7y_5alloc11collections5btree3map8BTreeMapNtNtBV_6string6StringB1L_ENtB5_9FromValue10from_valueCs6MQ2kXofuUf_15eldritch_libsys
FNDA:15,_RNvXse_NtCsjTRrhfWa0WU_13eldritch_core10conversionINtNtNtNtCs456UZznmu7y_5alloc11collections5btree3map8BTreeMapNtNtBV_6string6StringB1L_ENtB5_7ToValue8to_valueCs6MQ2kXofuUf_15eldritch_libsys
FNDA:2,_RNvXse_NtCsjTRrhfWa0WU_13eldritch_core10conversionINtNtNtNtCs456UZznmu7y_5alloc11collections5btree3map8BTreeMapNtNtBV_6string6StringNtNtB7_3ast5ValueENtB5_7ToValue8to_valueCs6MQ2kXofuUf_15eldritch_libsys
FNDA:0,_RNvXs6_NtCsjTRrhfWa0WU_13eldritch_core10conversionINtNtCs4Vq2ZLagKfv_4core6option6OptionINtNtNtNtCs456UZznmu7y_5alloc11collections5btree3map8BTreeMapNtNtB1x_6string6StringB2n_EENtB5_9FromValue10from_valueCs6MQ2kXofuUf_15eldritch_libsys
FNDA:0,_RNvXs6_NtCsjTRrhfWa0WU_13eldritch_core10conversionINtNtCs4Vq2ZLagKfv_4core6option6OptionNtNtCs456UZznmu7y_5alloc6string6StringENtB5_9FromValue10from_valueCs6MQ2kXofuUf_15eldritch_libsys
FNDA:0,_RNvXs6_NtCsjTRrhfWa0WU_13eldritch_core10conversionINtNtCs4Vq2ZLagKfv_4core6option6OptionbENtB5_9FromValue10from_valueCs6MQ2kXofuUf_15eldritch_libsys
FNDA:0,_RNvXs3_NtCsjTRrhfWa0WU_13eldritch_core10conversionINtNtCs456UZznmu7y_5alloc3vec3VecNtNtBR_6string6StringENtB5_9FromValue10from_valueCs6MQ2kXofuUf_15eldritch_libsys
FNDA:0,_RNvXsd_NtCsjTRrhfWa0WU_13eldritch_core10conversionINtNtCs456UZznmu7y_5alloc3vec3VecINtNtNtNtBR_11collections5btree3map8BTreeMapNtNtBR_6string6StringB21_EENtB5_7ToValue8to_valueCs6MQ2kXofuUf_15eldritch_libsys
FNDA:0,_RNvXsd_NtCsjTRrhfWa0WU_13eldritch_core10conversionINtNtCs456UZznmu7y_5alloc3vec3VecINtNtNtNtBR_11collections5btree3map8BTreeMapNtNtBR_6string6StringNtNtB7_3ast5ValueEENtB5_7ToValue8to_valueCs6MQ2kXofuUf_15eldritch_libsys
FNDA:1,_RNvXs3_NtCsjTRrhfWa0WU_13eldritch_core10conversionINtNtCs456UZznmu7y_5alloc3vec3VecINtNtNtNtBR_11collections5btree3map8BTreeMapNtNtBR_6string6StringNtNtB7_3ast5ValueEENtB5_9FromValue10from_valueCs9GOD6RQvQkx_18eldritch_libreport
FNDA:1,_RNvXsh_NtCsjTRrhfWa0WU_13eldritch_core10conversionINtNtCs4Vq2ZLagKfv_4core6result6ResultuNtNtCs456UZznmu7y_5alloc6string6StringENtB5_18IntoEldritchResult20into_eldritch_resultCs9GOD6RQvQkx_18eldritch_libreport
FNDA:1,_RNCNvXsh_NtCsjTRrhfWa0WU_13eldritch_core10conversionINtNtCs4Vq2ZLagKfv_4core6result6ResultuNtNtCs456UZznmu7y_5alloc6string6StringENtB7_18IntoEldritchResult20into_eldritch_result0Cs9GOD6RQvQkx_18eldritch_libreport
FNDA:0,_RNCNvXsh_NtCsjTRrhfWa0WU_13eldritch_core10conversionINtNtCs4Vq2ZLagKfv_4core6result6ResultuNtNtCs456UZznmu7y_5alloc6string6StringENtB7_18IntoEldritchResult20into_eldritch_results_0Cs9GOD6RQvQkx_18eldritch_libreport
FNDA:91,_RNvXs4_NtCsjTRrhfWa0WU_13eldritch_core10conversionINtNtNtNtCs456UZznmu7y_5alloc11collections5btree3map8BTreeMapNtNtBV_6string6StringNtNtB7_3ast5ValueENtB5_9FromValue10from_valueCs9GOD6RQvQkx_18eldritch_libreport
FNDA:0,_RNvXsh_NtCsjTRrhfWa0WU_13eldritch_core10conversionINtNtCs4Vq2ZLagKfv_4core6result6ResultINtNtCs456UZznmu7y_5alloc3vec3VecNtNtB1t_6string6StringEB1V_ENtB5_18IntoEldritchResult20into_eldritch_resultCsgxcjP7EOVl6_17eldritch_libregex
FNDA:0,_RNvXsh_NtCsjTRrhfWa0WU_13eldritch_core10conversionINtNtCs4Vq2ZLagKfv_4core6result6ResultNtNtCs456UZznmu7y_5alloc6string6StringB1o_ENtB5_18IntoEldritchResult20into_eldritch_resultCsgxcjP7EOVl6_17eldritch_libregex
FNDA:0,_RNCNvXsd_NtCsjTRrhfWa0WU_13eldritch_core10conversionINtNtCs456UZznmu7y_5alloc3vec3VecNtNtBT_6string6StringENtB7_7ToValue8to_value0CsgxcjP7EOVl6_17eldritch_libregex
FNDA:0,_RNCNvXsh_NtCsjTRrhfWa0WU_13eldritch_core10conversionINtNtCs4Vq2ZLagKfv_4core6result6ResultINtNtCs456UZznmu7y_5alloc3vec3VecNtNtB1v_6string6StringEB1X_ENtB7_18IntoEldritchResult20into_eldritch_result0CsgxcjP7EOVl6_17eldritch_libregex
FNDA:0,_RNCNvXsh_NtCsjTRrhfWa0WU_13eldritch_core10conversionINtNtCs4Vq2ZLagKfv_4core6result6ResultINtNtCs456UZznmu7y_5alloc3vec3VecNtNtB1v_6string6StringEB1X_ENtB7_18IntoEldritchResult20into_eldritch_results_0CsgxcjP7EOVl6_17eldritch_libregex
FNDA:0,_RNCNvXsh_NtCsjTRrhfWa0WU_13eldritch_core10conversionINtNtCs4Vq2ZLagKfv_4core6result6ResultNtNtCs456UZznmu7y_5alloc6string6StringB1q_ENtB7_18IntoEldritchResult20into_eldritch_result0CsgxcjP7EOVl6_17eldritch_libregex
FNDA:0,_RNCNvXsh_NtCsjTRrhfWa0WU_13eldritch_core10conversionINtNtCs4Vq2ZLagKfv_4core6result6ResultNtNtCs456UZznmu7y_5alloc6string6StringB1q_ENtB7_18IntoEldritchResult20into_eldritch_results_0CsgxcjP7EOVl6_17eldritch_libregex
FNDA:0,_RNvXsd_NtCsjTRrhfWa0WU_13eldritch_core10conversionINtNtCs456UZznmu7y_5alloc3vec3VecNtNtBR_6string6StringENtB5_7ToValue8to_valueCsgxcjP7EOVl6_17eldritch_libregex
FNDA:0,_RNvXsh_NtCsjTRrhfWa0WU_13eldritch_core10conversionINtNtCs4Vq2ZLagKfv_4core6result6ResultINtNtCs456UZznmu7y_5alloc3vec3VechENtNtB1t_6string6StringENtB5_18IntoEldritchResult20into_eldritch_resultCslhS9MHJwbdK_18eldritch_librandom
FNDA:0,_RNvXsh_NtCsjTRrhfWa0WU_13eldritch_core10conversionINtNtCs4Vq2ZLagKfv_4core6result6ResultNtNtCs456UZznmu7y_5alloc6string6StringB1o_ENtB5_18IntoEldritchResult20into_eldritch_resultCslhS9MHJwbdK_18eldritch_librandom
FNDA:0,_RNvXsh_NtCsjTRrhfWa0WU_13eldritch_core10conversionINtNtCs4Vq2ZLagKfv_4core6result6ResultbNtNtCs456UZznmu7y_5alloc6string6StringENtB5_18IntoEldritchResult20into_eldritch_resultCslhS9MHJwbdK_18eldritch_librandom
FNDA:0,_RNvXsh_NtCsjTRrhfWa0WU_13eldritch_core10conversionINtNtCs4Vq2ZLagKfv_4core6result6ResultxNtNtCs456UZznmu7y_5alloc6string6StringENtB5_18IntoEldritchResult20into_eldritch_resultCslhS9MHJwbdK_18eldritch_librandom
FNDA:0,_RNCNvXsh_NtCsjTRrhfWa0WU_13eldritch_core10conversionINtNtCs4Vq2ZLagKfv_4core6result6ResultINtNtCs456UZznmu7y_5alloc3vec3VechENtNtB1v_6string6StringENtB7_18IntoEldritchResult20into_eldritch_result0CslhS9MHJwbdK_18eldritch_librandom
FNDA:0,_RNCNvXsh_NtCsjTRrhfWa0WU_13eldritch_core10conversionINtNtCs4Vq2ZLagKfv_4core6result6ResultINtNtCs456UZznmu7y_5alloc3vec3VechENtNtB1v_6string6StringENtB7_18IntoEldritchResult20into_eldritch_results_0CslhS9MHJwbdK_18eldritch_librandom
FNDA:0,_RNCNvXsh_NtCsjTRrhfWa0WU_13eldritch_core10conversionINtNtCs4Vq2ZLagKfv_4core6result6ResultNtNtCs456UZznmu7y_5alloc6string6StringB1q_ENtB7_18IntoEldritchResult20into_eldritch_result0CslhS9MHJwbdK_18eldritch_librandom
FNDA:0,_RNCNvXsh_NtCsjTRrhfWa0WU_13eldritch_core10conversionINtNtCs4Vq2ZLagKfv_4core6result6ResultNtNtCs456UZznmu7y_5alloc6string6StringB1q_ENtB7_18IntoEldritchResult20into_eldritch_results_0CslhS9MHJwbdK_18eldritch_librandom
FNDA:0,_RNCNvXsh_NtCsjTRrhfWa0WU_13eldritch_core10conversionINtNtCs4Vq2ZLagKfv_4core6result6ResultbNtNtCs456UZznmu7y_5alloc6string6StringENtB7_18IntoEldritchResult20into_eldritch_result0CslhS9MHJwbdK_18eldritch_librandom
FNDA:0,_RNCNvXsh_NtCsjTRrhfWa0WU_13eldritch_core10conversionINtNtCs4Vq2ZLagKfv_4core6result6ResultbNtNtCs456UZznmu7y_5alloc6string6StringENtB7_18IntoEldritchResult20into_eldritch_results_0CslhS9MHJwbdK_18eldritch_librandom
FNDA:0,_RNCNvXsh_NtCsjTRrhfWa0WU_13eldritch_core10conversionINtNtCs4Vq2ZLagKfv_4core6result6ResultxNtNtCs456UZznmu7y_5alloc6string6StringENtB7_18IntoEldritchResult20into_eldritch_result0CslhS9MHJwbdK_18eldritch_librandom
FNDA:0,_RNCNvXsh_NtCsjTRrhfWa0WU_13eldritch_core10conversionINtNtCs4Vq2ZLagKfv_4core6result6ResultxNtNtCs456UZznmu7y_5alloc6string6StringENtB7_18IntoEldritchResult20into_eldritch_results_0CslhS9MHJwbdK_18eldritch_librandom
FNDA:0,_RNvXs6_NtCsjTRrhfWa0WU_13eldritch_core10conversionINtNtCs4Vq2ZLagKfv_4core6option6OptionNtNtCs456UZznmu7y_5alloc6string6StringENtB5_9FromValue10from_valueCslhS9MHJwbdK_18eldritch_librandom
FNDA:1,_RNvXsh_NtCsjTRrhfWa0WU_13eldritch_core10conversionINtNtCs4Vq2ZLagKfv_4core6result6ResultINtNtCs456UZznmu7y_5alloc3vec3VecINtNtNtNtB1t_11collections5btree3map8BTreeMapNtNtB1t_6string6StringNtNtB7_3ast5ValueEEB2E_ENtB5_18IntoEldritchResult20into_eldritch_resultCs4z0FbkCdo4s_19eldritch_libprocess
FNDA:1,_RNvXsh_NtCsjTRrhfWa0WU_13eldritch_core10conversionINtNtCs4Vq2ZLagKfv_4core6result6ResultINtNtNtNtCs456UZznmu7y_5alloc11collections5btree3map8BTreeMapNtNtB1x_6string6StringNtNtB7_3ast5ValueEB2n_ENtB5_18IntoEldritchResult20into_eldritch_resultCs4z0FbkCdo4s_19eldritch_libprocess
FNDA:0,_RNvXsh_NtCsjTRrhfWa0WU_13eldritch_core10conversionINtNtCs4Vq2ZLagKfv_4core6result6ResultNtNtCs456UZznmu7y_5alloc6string6StringB1o_ENtB5_18IntoEldritchResult20into_eldritch_resultCs4z0FbkCdo4s_19eldritch_libprocess
FNDA:0,_RNvXsh_NtCsjTRrhfWa0WU_13eldritch_core10conversionINtNtCs4Vq2ZLagKfv_4core6result6ResultuNtNtCs456UZznmu7y_5alloc6string6StringENtB5_18IntoEldritchResult20into_eldritch_resultCs4z0FbkCdo4s_19eldritch_libprocess
FNDA:1,_RNvXsd_NtCsjTRrhfWa0WU_13eldritch_core10conversionINtNtCs456UZznmu7y_5alloc3vec3VecINtNtNtNtBR_11collections5btree3map8BTreeMapNtNtBR_6string6StringNtNtB7_3ast5ValueEENtB5_7ToValue8to_valueCs4z0FbkCdo4s_19eldritch_libprocess
FNDA:91,_RNCNvXsd_NtCsjTRrhfWa0WU_13eldritch_core10conversionINtNtCs456UZznmu7y_5alloc3vec3VecINtNtNtNtBT_11collections5btree3map8BTreeMapNtNtBT_6string6StringNtNtB9_3ast5ValueEENtB7_7ToValue8to_value0Cs4z0FbkCdo4s_19eldritch_libprocess
FNDA:1,_RNCNvXsh_NtCsjTRrhfWa0WU_13eldritch_core10conversionINtNtCs4Vq2ZLagKfv_4core6result6ResultINtNtCs456UZznmu7y_5alloc3vec3VecINtNtNtNtB1v_11collections5btree3map8BTreeMapNtNtB1v_6string6StringNtNtB9_3ast5ValueEEB2G_ENtB7_18IntoEldritchResult20into_eldritch_result0Cs4z0FbkCdo4s_19eldritch_libprocess
FNDA:0,_RNCNvXsh_NtCsjTRrhfWa0WU_13eldritch_core10conversionINtNtCs4Vq2ZLagKfv_4core6result6ResultINtNtCs456UZznmu7y_5alloc3vec3VecINtNtNtNtB1v_11collections5btree3map8BTreeMapNtNtB1v_6string6StringNtNtB9_3ast5ValueEEB2G_ENtB7_18IntoEldritchResult20into_eldritch_results_0Cs4z0FbkCdo4s_19eldritch_libprocess
FNDA:1,_RNCNvXsh_NtCsjTRrhfWa0WU_13eldritch_core10conversionINtNtCs4Vq2ZLagKfv_4core6result6ResultINtNtNtNtCs456UZznmu7y_5alloc11collections5btree3map8BTreeMapNtNtB1z_6string6StringNtNtB9_3ast5ValueEB2p_ENtB7_18IntoEldritchResult20into_eldritch_result0Cs4z0FbkCdo4s_19eldritch_libprocess
FNDA:0,_RNCNvXsh_NtCsjTRrhfWa0WU_13eldritch_core10conversionINtNtCs4Vq2ZLagKfv_4core6result6ResultINtNtNtNtCs456UZznmu7y_5alloc11collections5btree3map8BTreeMapNtNtB1z_6string6StringNtNtB9_3ast5ValueEB2p_ENtB7_18IntoEldritchResult20into_eldritch_results_0Cs4z0FbkCdo4s_19eldritch_libprocess
FNDA:0,_RNCNvXsh_NtCsjTRrhfWa0WU_13eldritch_core10conversionINtNtCs4Vq2ZLagKfv_4core6result6ResultNtNtCs456UZznmu7y_5alloc6string6StringB1q_ENtB7_18IntoEldritchResult20into_eldritch_result0Cs4z0FbkCdo4s_19eldritch_libprocess
FNDA:0,_RNCNvXsh_NtCsjTRrhfWa0WU_13eldritch_core10conversionINtNtCs4Vq2ZLagKfv_4core6result6ResultNtNtCs456UZznmu7y_5alloc6string6StringB1q_ENtB7_18IntoEldritchResult20into_eldritch_results_0Cs4z0FbkCdo4s_19eldritch_libprocess
FNDA:0,_RNCNvXsh_NtCsjTRrhfWa0WU_13eldritch_core10conversionINtNtCs4Vq2ZLagKfv_4core6result6ResultuNtNtCs456UZznmu7y_5alloc6string6StringENtB7_18IntoEldritchResult20into_eldritch_result0Cs4z0FbkCdo4s_19eldritch_libprocess
FNDA:0,_RNCNvXsh_NtCsjTRrhfWa0WU_13eldritch_core10conversionINtNtCs4Vq2ZLagKfv_4core6result6ResultuNtNtCs456UZznmu7y_5alloc6string6StringENtB7_18IntoEldritchResult20into_eldritch_results_0Cs4z0FbkCdo4s_19eldritch_libprocess
FNDA:92,_RNvXse_NtCsjTRrhfWa0WU_13eldritch_core10conversionINtNtNtNtCs456UZznmu7y_5alloc11collections5btree3map8BTreeMapNtNtBV_6string6StringNtNtB7_3ast5ValueENtB5_7ToValue8to_valueCs4z0FbkCdo4s_19eldritch_libprocess
FNDA:0,_RNvXs6_NtCsjTRrhfWa0WU_13eldritch_core10conversionINtNtCs4Vq2ZLagKfv_4core6option6OptionxENtB5_9FromValue10from_valueCs4z0FbkCdo4s_19eldritch_libprocess
FNDA:0,_RNvXs3_NtCsjTRrhfWa0WU_13eldritch_core10conversionINtNtCs456UZznmu7y_5alloc3vec3VecNtNtBR_6string6StringENtB5_9FromValue10from_valueCs4WzB0igzGNX_17eldritch_libpivot
FNDA:0,_RNvXs3_NtCsjTRrhfWa0WU_13eldritch_core10conversionINtNtCs456UZznmu7y_5alloc3vec3VecxENtB5_9FromValue10from_valueCs4WzB0igzGNX_17eldritch_libpivot
FNDA:0,_RNvXsd_NtCsjTRrhfWa0WU_13eldritch_core10conversionINtNtCs456UZznmu7y_5alloc3vec3VecINtNtNtNtBR_11collections5btree3map8BTreeMapNtNtBR_6string6StringNtNtB7_3ast5ValueEENtB5_7ToValue8to_valueCs4WzB0igzGNX_17eldritch_libpivot
FNDA:0,_RNvXsh_NtCsjTRrhfWa0WU_13eldritch_core10conversionINtNtCs4Vq2ZLagKfv_4core6result6ResultINtNtCs456UZznmu7y_5alloc3vec3VecINtNtNtNtB1t_11collections5btree3map8BTreeMapNtNtB1t_6string6StringNtNtB7_3ast5ValueEEB2E_ENtB5_18IntoEldritchResult20into_eldritch_resultCs4WzB0igzGNX_17eldritch_libpivot
FNDA:0,_RNvXsh_NtCsjTRrhfWa0WU_13eldritch_core10conversionINtNtCs4Vq2ZLagKfv_4core6result6ResultINtNtNtNtCs456UZznmu7y_5alloc11collections5btree3map8BTreeMapNtNtB1x_6string6StringNtNtB7_3ast5ValueEB2n_ENtB5_18IntoEldritchResult20into_eldritch_resultCs4WzB0igzGNX_17eldritch_libpivot
FNDA:0,_RNvXsh_NtCsjTRrhfWa0WU_13eldritch_core10conversionINtNtCs4Vq2ZLagKfv_4core6result6ResultNtNtCs456UZznmu7y_5alloc6string6StringB1o_ENtB5_18IntoEldritchResult20into_eldritch_resultCs4WzB0igzGNX_17eldritch_libpivot
FNDA:0,_RNvXsh_NtCsjTRrhfWa0WU_13eldritch_core10conversionINtNtCs4Vq2ZLagKfv_4core6result6ResultuNtNtCs456UZznmu7y_5alloc6string6StringENtB5_18IntoEldritchResult20into_eldritch_resultCs4WzB0igzGNX_17eldritch_libpivot
FNDA:0,_RNvXs6_NtCsjTRrhfWa0WU_13eldritch_core10conversionINtNtCs4Vq2ZLagKfv_4core6option6OptionNtNtCs456UZznmu7y_5alloc6string6StringENtB5_9FromValue10from_valueCs4WzB0igzGNX_17eldritch_libpivot
FNDA:0,_RNvXs6_NtCsjTRrhfWa0WU_13eldritch_core10conversionINtNtCs4Vq2ZLagKfv_4core6option6OptionxENtB5_9FromValue10from_valueCs4WzB0igzGNX_17eldritch_libpivot
FNDA:0,_RNCNvXsd_NtCsjTRrhfWa0WU_13eldritch_core10conversionINtNtCs456UZznmu7y_5alloc3vec3VecINtNtNtNtBT_11collections5btree3map8BTreeMapNtNtBT_6string6StringNtNtB9_3ast5ValueEENtB7_7ToValue8to_value0Cs4WzB0igzGNX_17eldritch_libpivot
FNDA:0,_RNCNvXsh_NtCsjTRrhfWa0WU_13eldritch_core10conversionINtNtCs4Vq2ZLagKfv_4core6result6ResultINtNtCs456UZznmu7y_5alloc3vec3VecINtNtNtNtB1v_11collections5btree3map8BTreeMapNtNtB1v_6string6StringNtNtB9_3ast5ValueEEB2G_ENtB7_18IntoEldritchResult20into_eldritch_result0Cs4WzB0igzGNX_17eldritch_libpivot
FNDA:0,_RNCNvXsh_NtCsjTRrhfWa0WU_13eldritch_core10conversionINtNtCs4Vq2ZLagKfv_4core6result6ResultINtNtCs456UZznmu7y_5alloc3vec3VecINtNtNtNtB1v_11collections5btree3map8BTreeMapNtNtB1v_6string6StringNtNtB9_3ast5ValueEEB2G_ENtB7_18IntoEldritchResult20into_eldritch_results_0Cs4WzB0igzGNX_17eldritch_libpivot
FNDA:0,_RNCNvXsh_NtCsjTRrhfWa0WU_13eldritch_core10conversionINtNtCs4Vq2ZLagKfv_4core6result6ResultINtNtNtNtCs456UZznmu7y_5alloc11collections5btree3map8BTreeMapNtNtB1z_6string6StringNtNtB9_3ast5ValueEB2p_ENtB7_18IntoEldritchResult20into_eldritch_result0Cs4WzB0igzGNX_17eldritch_libpivot
FNDA:0,_RNCNvXsh_NtCsjTRrhfWa0WU_13eldritch_core10conversionINtNtCs4Vq2ZLagKfv_4core6result6ResultINtNtNtNtCs456UZznmu7y_5alloc11collections5btree3map8BTreeMapNtNtB1z_6string6StringNtNtB9_3ast5ValueEB2p_ENtB7_18IntoEldritchResult20into_eldritch_results_0Cs4WzB0igzGNX_17eldritch_libpivot
FNDA:0,_RNCNvXsh_NtCsjTRrhfWa0WU_13eldritch_core10conversionINtNtCs4Vq2ZLagKfv_4core6result6ResultNtNtCs456UZznmu7y_5alloc6string6StringB1q_ENtB7_18IntoEldritchResult20into_eldritch_result0Cs4WzB0igzGNX_17eldritch_libpivot
FNDA:0,_RNCNvXsh_NtCsjTRrhfWa0WU_13eldritch_core10conversionINtNtCs4Vq2ZLagKfv_4core6result6ResultNtNtCs456UZznmu7y_5alloc6string6StringB1q_ENtB7_18IntoEldritchResult20into_eldritch_results_0Cs4WzB0igzGNX_17eldritch_libpivot
FNDA:0,_RNCNvXsh_NtCsjTRrhfWa0WU_13eldritch_core10conversionINtNtCs4Vq2ZLagKfv_4core6result6ResultuNtNtCs456UZznmu7y_5alloc6string6StringENtB7_18IntoEldritchResult20into_eldritch_result0Cs4WzB0igzGNX_17eldritch_libpivot
FNDA:0,_RNCNvXsh_NtCsjTRrhfWa0WU_13eldritch_core10conversionINtNtCs4Vq2ZLagKfv_4core6result6ResultuNtNtCs456UZznmu7y_5alloc6string6StringENtB7_18IntoEldritchResult20into_eldritch_results_0Cs4WzB0igzGNX_17eldritch_libpivot
FNDA:0,_RNvXse_NtCsjTRrhfWa0WU_13eldritch_core10conversionINtNtNtNtCs456UZznmu7y_5alloc11collections5btree3map8BTreeMapNtNtBV_6string6StringNtNtB7_3ast5ValueENtB5_7ToValue8to_valueCs4WzB0igzGNX_17eldritch_libpivot
FNDA:3,_RNvXsh_NtCsjTRrhfWa0WU_13eldritch_core10conversionINtNtCs4Vq2ZLagKfv_4core6result6ResultINtNtNtNtCs456UZznmu7y_5alloc11collections5btree3map8BTreeMapNtNtB1x_6string6StringNtNtB7_3ast5ValueEB2n_ENtB5_18IntoEldritchResult20into_eldritch_resultCscWovyrnwTku_16eldritch_libhttp
FNDA:0,_RNvXsh_NtCsjTRrhfWa0WU_13eldritch_core10conversionINtNtCs4Vq2ZLagKfv_4core6result6ResultuNtNtCs456UZznmu7y_5alloc6string6StringENtB5_18IntoEldritchResult20into_eldritch_resultCscWovyrnwTku_16eldritch_libhttp
FNDA:0,_RNvXs6_NtCsjTRrhfWa0WU_13eldritch_core10conversionINtNtCs4Vq2ZLagKfv_4core6option6OptionINtNtNtNtCs456UZznmu7y_5alloc11collections5btree3map8BTreeMapNtNtB1x_6string6StringB2n_EENtB5_9FromValue10from_valueCscWovyrnwTku_16eldritch_libhttp
FNDA:0,_RNvXs6_NtCsjTRrhfWa0WU_13eldritch_core10conversionINtNtCs4Vq2ZLagKfv_4core6option6OptionNtNtCs456UZznmu7y_5alloc6string6StringENtB5_9FromValue10from_valueCscWovyrnwTku_16eldritch_libhttp
FNDA:0,_RNvXs6_NtCsjTRrhfWa0WU_13eldritch_core10conversionINtNtCs4Vq2ZLagKfv_4core6option6OptionbENtB5_9FromValue10from_valueCscWovyrnwTku_16eldritch_libhttp
FNDA:0,_RNvXs4_NtCsjTRrhfWa0WU_13eldritch_core10conversionINtNtNtNtCs456UZznmu7y_5alloc11collections5btree3map8BTreeMapNtNtBV_6string6StringB1L_ENtB5_9FromValue10from_valueCscWovyrnwTku_16eldritch_libhttp
FNDA:3,_RNvXse_NtCsjTRrhfWa0WU_13eldritch_core10conversionINtNtNtNtCs456UZznmu7y_5alloc11collections5btree3map8BTreeMapNtNtBV_6string6StringNtNtB7_3ast5ValueENtB5_7ToValue8to_valueCscWovyrnwTku_16eldritch_libhttp
FNDA:3,_RNCNvXsh_NtCsjTRrhfWa0WU_13eldritch_core10conversionINtNtCs4Vq2ZLagKfv_4core6result6ResultINtNtNtNtCs456UZznmu7y_5alloc11collections5btree3map8BTreeMapNtNtB1z_6string6StringNtNtB9_3ast5ValueEB2p_ENtB7_18IntoEldritchResult20into_eldritch_result0CscWovyrnwTku_16eldritch_libhttp
FNDA:0,_RNCNvXsh_NtCsjTRrhfWa0WU_13eldritch_core10conversionINtNtCs4Vq2ZLagKfv_4core6result6ResultINtNtNtNtCs456UZznmu7y_5alloc11collections5btree3map8BTreeMapNtNtB1z_6string6StringNtNtB9_3ast5ValueEB2p_ENtB7_18IntoEldritchResult20into_eldritch_results_0CscWovyrnwTku_16eldritch_libhttp
FNDA:0,_RNCNvXsh_NtCsjTRrhfWa0WU_13eldritch_core10conversionINtNtCs4Vq2ZLagKfv_4core6result6ResultuNtNtCs456UZznmu7y_5alloc6string6StringENtB7_18IntoEldritchResult20into_eldritch_result0CscWovyrnwTku_16eldritch_libhttp
FNDA:0,_RNCNvXsh_NtCsjTRrhfWa0WU_13eldritch_core10conversionINtNtCs4Vq2ZLagKfv_4core6result6ResultuNtNtCs456UZznmu7y_5alloc6string6StringENtB7_18IntoEldritchResult20into_eldritch_results_0CscWovyrnwTku_16eldritch_libhttp
FNDA:0,_RNvXsh_NtCsjTRrhfWa0WU_13eldritch_core10conversionINtNtCs4Vq2ZLagKfv_4core6result6ResultINtNtBR_6option6OptionNtNtCs456UZznmu7y_5alloc6string6StringEB1K_ENtB5_18IntoEldritchResult20into_eldritch_resultCsfq8ZNcGqxOs_16eldritch_libfile
FNDA:0,_RNvXsh_NtCsjTRrhfWa0WU_13eldritch_core10conversionINtNtCs4Vq2ZLagKfv_4core6result6ResultINtNtCs456UZznmu7y_5alloc3vec3VecINtNtNtNtB1t_11collections5btree3map8BTreeMapNtNtB1t_6string6StringNtNtB7_3ast5ValueEEB2E_ENtB5_18IntoEldritchResult20into_eldritch_resultCsfq8ZNcGqxOs_16eldritch_libfile
FNDA:0,_RNvXsh_NtCsjTRrhfWa0WU_13eldritch_core10conversionINtNtCs4Vq2ZLagKfv_4core6result6ResultINtNtCs456UZznmu7y_5alloc3vec3VecNtNtB1t_6string6StringEB1V_ENtB5_18IntoEldritchResult20into_eldritch_resultCsfq8ZNcGqxOs_16eldritch_libfile
FNDA:0,_RNvXsh_NtCsjTRrhfWa0WU_13eldritch_core10conversionINtNtCs4Vq2ZLagKfv_4core6result6ResultNtNtB7_3ast5ValueNtNtCs456UZznmu7y_5alloc6string6StringENtB5_18IntoEldritchResult20into_eldritch_resultCsfq8ZNcGqxOs_16eldritch_libfile
FNDA:0,_RNvXsh_NtCsjTRrhfWa0WU_13eldritch_core10conversionINtNtCs4Vq2ZLagKfv_4core6result6ResultNtNtCs456UZznmu7y_5alloc6string6StringB1o_ENtB5_18IntoEldritchResult20into_eldritch_resultCsfq8ZNcGqxOs_16eldritch_libfile
FNDA:0,_RNvXsh_NtCsjTRrhfWa0WU_13eldritch_core10conversionINtNtCs4Vq2ZLagKfv_4core6result6ResultbNtNtCs456UZznmu7y_5alloc6string6StringENtB5_18IntoEldritchResult20into_eldritch_resultCsfq8ZNcGqxOs_16eldritch_libfile
FNDA:1,_RNvXsh_NtCsjTRrhfWa0WU_13eldritch_core10conversionINtNtCs4Vq2ZLagKfv_4core6result6ResultuNtNtCs456UZznmu7y_5alloc6string6StringENtB5_18IntoEldritchResult20into_eldritch_resultCsfq8ZNcGqxOs_16eldritch_libfile
FNDA:0,_RNvXs4_NtCsjTRrhfWa0WU_13eldritch_core10conversionINtNtNtNtCs456UZznmu7y_5alloc11collections5btree3map8BTreeMapNtNtBV_6string6StringNtNtB7_3ast5ValueENtB5_9FromValue10from_valueCsfq8ZNcGqxOs_16eldritch_libfile
FNDA:0,_RNvXse_NtCsjTRrhfWa0WU_13eldritch_core10conversionINtNtNtNtCs456UZznmu7y_5alloc11collections5btree3map8BTreeMapNtNtBV_6string6StringNtNtB7_3ast5ValueENtB5_7ToValue8to_valueCsfq8ZNcGqxOs_16eldritch_libfile
FNDA:0,_RNCNvXsd_NtCsjTRrhfWa0WU_13eldritch_core10conversionINtNtCs456UZznmu7y_5alloc3vec3VecINtNtNtNtBT_11collections5btree3map8BTreeMapNtNtBT_6string6StringNtNtB9_3ast5ValueEENtB7_7ToValue8to_value0Csfq8ZNcGqxOs_16eldritch_libfile
FNDA:0,_RNCNvXsd_NtCsjTRrhfWa0WU_13eldritch_core10conversionINtNtCs456UZznmu7y_5alloc3vec3VecNtNtBT_6string6StringENtB7_7ToValue8to_value0Csfq8ZNcGqxOs_16eldritch_libfile
FNDA:0,_RNCNvXsh_NtCsjTRrhfWa0WU_13eldritch_core10conversionINtNtCs4Vq2ZLagKfv_4core6result6ResultINtNtBT_6option6OptionNtNtCs456UZznmu7y_5alloc6string6StringEB1M_ENtB7_18IntoEldritchResult20into_eldritch_result0Csfq8ZNcGqxOs_16eldritch_libfile
FNDA:0,_RNCNvXsh_NtCsjTRrhfWa0WU_13eldritch_core10conversionINtNtCs4Vq2ZLagKfv_4core6result6ResultINtNtBT_6option6OptionNtNtCs456UZznmu7y_5alloc6string6StringEB1M_ENtB7_18IntoEldritchResult20into_eldritch_results_0Csfq8ZNcGqxOs_16eldritch_libfile
FNDA:0,_RNCNvXsh_NtCsjTRrhfWa0WU_13eldritch_core10conversionINtNtCs4Vq2ZLagKfv_4core6result6ResultINtNtCs456UZznmu7y_5alloc3vec3VecINtNtNtNtB1v_11collections5btree3map8BTreeMapNtNtB1v_6string6StringNtNtB9_3ast5ValueEEB2G_ENtB7_18IntoEldritchResult20into_eldritch_result0Csfq8ZNcGqxOs_16eldritch_libfile
FNDA:0,_RNCNvXsh_NtCsjTRrhfWa0WU_13eldritch_core10conversionINtNtCs4Vq2ZLagKfv_4core6result6ResultINtNtCs456UZznmu7y_5alloc3vec3VecINtNtNtNtB1v_11collections5btree3map8BTreeMapNtNtB1v_6string6StringNtNtB9_3ast5ValueEEB2G_ENtB7_18IntoEldritchResult20into_eldritch_results_0Csfq8ZNcGqxOs_16eldritch_libfile
FNDA:0,_RNCNvXsh_NtCsjTRrhfWa0WU_13eldritch_core10conversionINtNtCs4Vq2ZLagKfv_4core6result6ResultINtNtCs456UZznmu7y_5alloc3vec3VecNtNtB1v_6string6StringEB1X_ENtB7_18IntoEldritchResult20into_eldritch_result0Csfq8ZNcGqxOs_16eldritch_libfile
FNDA:0,_RNCNvXsh_NtCsjTRrhfWa0WU_13eldritch_core10conversionINtNtCs4Vq2ZLagKfv_4core6result6ResultINtNtCs456UZznmu7y_5alloc3vec3VecNtNtB1v_6string6StringEB1X_ENtB7_18IntoEldritchResult20into_eldritch_results_0Csfq8ZNcGqxOs_16eldritch_libfile
FNDA:0,_RNCNvXsh_NtCsjTRrhfWa0WU_13eldritch_core10conversionINtNtCs4Vq2ZLagKfv_4core6result6ResultNtNtB9_3ast5ValueNtNtCs456UZznmu7y_5alloc6string6StringENtB7_18IntoEldritchResult20into_eldritch_result0Csfq8ZNcGqxOs_16eldritch_libfile
FNDA:0,_RNCNvXsh_NtCsjTRrhfWa0WU_13eldritch_core10conversionINtNtCs4Vq2ZLagKfv_4core6result6ResultNtNtB9_3ast5ValueNtNtCs456UZznmu7y_5alloc6string6StringENtB7_18IntoEldritchResult20into_eldritch_results_0Csfq8ZNcGqxOs_16eldritch_libfile
FNDA:0,_RNCNvXsh_NtCsjTRrhfWa0WU_13eldritch_core10conversionINtNtCs4Vq2ZLagKfv_4core6result6ResultNtNtCs456UZznmu7y_5alloc6string6StringB1q_ENtB7_18IntoEldritchResult20into_eldritch_result0Csfq8ZNcGqxOs_16eldritch_libfile
FNDA:0,_RNCNvXsh_NtCsjTRrhfWa0WU_13eldritch_core10conversionINtNtCs4Vq2ZLagKfv_4core6result6ResultNtNtCs456UZznmu7y_5alloc6string6StringB1q_ENtB7_18IntoEldritchResult20into_eldritch_results_0Csfq8ZNcGqxOs_16eldritch_libfile
FNDA:0,_RNCNvXsh_NtCsjTRrhfWa0WU_13eldritch_core10conversionINtNtCs4Vq2ZLagKfv_4core6result6ResultbNtNtCs456UZznmu7y_5alloc6string6StringENtB7_18IntoEldritchResult20into_eldritch_result0Csfq8ZNcGqxOs_16eldritch_libfile
FNDA:0,_RNCNvXsh_NtCsjTRrhfWa0WU_13eldritch_core10conversionINtNtCs4Vq2ZLagKfv_4core6result6ResultbNtNtCs456UZznmu7y_5alloc6string6StringENtB7_18IntoEldritchResult20into_eldritch_results_0Csfq8ZNcGqxOs_16eldritch_libfile
FNDA:0,_RNCNvXsh_NtCsjTRrhfWa0WU_13eldritch_core10conversionINtNtCs4Vq2ZLagKfv_4core6result6ResultuNtNtCs456UZznmu7y_5alloc6string6StringENtB7_18IntoEldritchResult20into_eldritch_result0Csfq8ZNcGqxOs_16eldritch_libfile
FNDA:1,_RNCNvXsh_NtCsjTRrhfWa0WU_13eldritch_core10conversionINtNtCs4Vq2ZLagKfv_4core6result6ResultuNtNtCs456UZznmu7y_5alloc6string6StringENtB7_18IntoEldritchResult20into_eldritch_results_0Csfq8ZNcGqxOs_16eldritch_libfile
FNDA:0,_RNvXs6_NtCsjTRrhfWa0WU_13eldritch_core10conversionINtNtCs4Vq2ZLagKfv_4core6option6OptionNtNtB7_3ast5ValueENtB5_9FromValue10from_valueCsfq8ZNcGqxOs_16eldritch_libfile
FNDA:0,_RNvXs6_NtCsjTRrhfWa0WU_13eldritch_core10conversionINtNtCs4Vq2ZLagKfv_4core6option6OptionNtNtCs456UZznmu7y_5alloc6string6StringENtB5_9FromValue10from_valueCsfq8ZNcGqxOs_16eldritch_libfile
FNDA:0,_RNvXs6_NtCsjTRrhfWa0WU_13eldritch_core10conversionINtNtCs4Vq2ZLagKfv_4core6option6OptionbENtB5_9FromValue10from_valueCsfq8ZNcGqxOs_16eldritch_libfile
FNDA:0,_RNvXs6_NtCsjTRrhfWa0WU_13eldritch_core10conversionINtNtCs4Vq2ZLagKfv_4core6option6OptionxENtB5_9FromValue10from_valueCsfq8ZNcGqxOs_16eldritch_libfile
FNDA:0,_RNvXsf_NtCsjTRrhfWa0WU_13eldritch_core10conversionINtNtCs4Vq2ZLagKfv_4core6option6OptionNtNtCs456UZznmu7y_5alloc6string6StringENtB5_7ToValue8to_valueCsfq8ZNcGqxOs_16eldritch_libfile
FNDA:0,_RNvXsd_NtCsjTRrhfWa0WU_13eldritch_core10conversionINtNtCs456UZznmu7y_5alloc3vec3VecINtNtNtNtBR_11collections5btree3map8BTreeMapNtNtBR_6string6StringNtNtB7_3ast5ValueEENtB5_7ToValue8to_valueCsfq8ZNcGqxOs_16eldritch_libfile
FNDA:0,_RNvXsd_NtCsjTRrhfWa0WU_13eldritch_core10conversionINtNtCs456UZznmu7y_5alloc3vec3VecNtNtBR_6string6StringENtB5_7ToValue8to_valueCsfq8ZNcGqxOs_16eldritch_libfile
FNDA:0,_RNvXsh_NtCsjTRrhfWa0WU_13eldritch_core10conversionINtNtCs4Vq2ZLagKfv_4core6result6ResultINtNtCs456UZznmu7y_5alloc3vec3VechENtNtB1t_6string6StringENtB5_18IntoEldritchResult20into_eldritch_resultCsajmQ4HJRykT_18eldritch_libcrypto
FNDA:0,_RNvXsh_NtCsjTRrhfWa0WU_13eldritch_core10conversionINtNtCs4Vq2ZLagKfv_4core6result6ResultNtNtB7_3ast5ValueNtNtCs456UZznmu7y_5alloc6string6StringENtB5_18IntoEldritchResult20into_eldritch_resultCsajmQ4HJRykT_18eldritch_libcrypto
FNDA:0,_RNvXsh_NtCsjTRrhfWa0WU_13eldritch_core10conversionINtNtCs4Vq2ZLagKfv_4core6result6ResultNtNtCs456UZznmu7y_5alloc6string6StringB1o_ENtB5_18IntoEldritchResult20into_eldritch_resultCsajmQ4HJRykT_18eldritch_libcrypto
FNDA:0,_RNvXsh_NtCsjTRrhfWa0WU_13eldritch_core10conversionINtNtCs4Vq2ZLagKfv_4core6result6ResultbNtNtCs456UZznmu7y_5alloc6string6StringENtB5_18IntoEldritchResult20into_eldritch_resultCsajmQ4HJRykT_18eldritch_libcrypto
FNDA:0,_RNvXsh_NtCsjTRrhfWa0WU_13eldritch_core10conversionINtNtCs4Vq2ZLagKfv_4core6result6ResultuNtNtCs456UZznmu7y_5alloc6string6StringENtB5_18IntoEldritchResult20into_eldritch_resultCsajmQ4HJRykT_18eldritch_libcrypto
FNDA:0,_RNvXsd_NtCsjTRrhfWa0WU_13eldritch_core10conversionINtNtCs456UZznmu7y_5alloc3vec3VecNtNtB7_3ast5ValueENtB5_7ToValue8to_valueCsajmQ4HJRykT_18eldritch_libcrypto
FNDA:0,_RNvXs6_NtCsjTRrhfWa0WU_13eldritch_core10conversionINtNtCs4Vq2ZLagKfv_4core6option6OptionNtNtCs456UZznmu7y_5alloc6string6StringENtB5_9FromValue10from_valueCsajmQ4HJRykT_18eldritch_libcrypto
FNDA:0,_RNvXse_NtCsjTRrhfWa0WU_13eldritch_core10conversionINtNtNtNtCs456UZznmu7y_5alloc11collections5btree3map8BTreeMapNtNtB7_3ast5ValueB1L_ENtB5_7ToValue8to_valueCsajmQ4HJRykT_18eldritch_libcrypto
FNDA:0,_RNCNvXsd_NtCsjTRrhfWa0WU_13eldritch_core10conversionINtNtCs456UZznmu7y_5alloc3vec3VecNtNtB9_3ast5ValueENtB7_7ToValue8to_value0CsajmQ4HJRykT_18eldritch_libcrypto
FNDA:0,_RNCNvXsh_NtCsjTRrhfWa0WU_13eldritch_core10conversionINtNtCs4Vq2ZLagKfv_4core6result6ResultINtNtCs456UZznmu7y_5alloc3vec3VechENtNtB1v_6string6StringENtB7_18IntoEldritchResult20into_eldritch_result0CsajmQ4HJRykT_18eldritch_libcrypto
FNDA:0,_RNCNvXsh_NtCsjTRrhfWa0WU_13eldritch_core10conversionINtNtCs4Vq2ZLagKfv_4core6result6ResultINtNtCs456UZznmu7y_5alloc3vec3VechENtNtB1v_6string6StringENtB7_18IntoEldritchResult20into_eldritch_results_0CsajmQ4HJRykT_18eldritch_libcrypto
FNDA:0,_RNCNvXsh_NtCsjTRrhfWa0WU_13eldritch_core10conversionINtNtCs4Vq2ZLagKfv_4core6result6ResultNtNtB9_3ast5ValueNtNtCs456UZznmu7y_5alloc6string6StringENtB7_18IntoEldritchResult20into_eldritch_result0CsajmQ4HJRykT_18eldritch_libcrypto
FNDA:0,_RNCNvXsh_NtCsjTRrhfWa0WU_13eldritch_core10conversionINtNtCs4Vq2ZLagKfv_4core6result6ResultNtNtB9_3ast5ValueNtNtCs456UZznmu7y_5alloc6string6StringENtB7_18IntoEldritchResult20into_eldritch_results_0CsajmQ4HJRykT_18eldritch_libcrypto
FNDA:0,_RNCNvXsh_NtCsjTRrhfWa0WU_13eldritch_core10conversionINtNtCs4Vq2ZLagKfv_4core6result6ResultNtNtCs456UZznmu7y_5alloc6string6StringB1q_ENtB7_18IntoEldritchResult20into_eldritch_result0CsajmQ4HJRykT_18eldritch_libcrypto
FNDA:0,_RNCNvXsh_NtCsjTRrhfWa0WU_13eldritch_core10conversionINtNtCs4Vq2ZLagKfv_4core6result6ResultNtNtCs456UZznmu7y_5alloc6string6StringB1q_ENtB7_18IntoEldritchResult20into_eldritch_results_0CsajmQ4HJRykT_18eldritch_libcrypto
FNDA:0,_RNCNvXsh_NtCsjTRrhfWa0WU_13eldritch_core10conversionINtNtCs4Vq2ZLagKfv_4core6result6ResultbNtNtCs456UZznmu7y_5alloc6string6StringENtB7_18IntoEldritchResult20into_eldritch_result0CsajmQ4HJRykT_18eldritch_libcrypto
FNDA:0,_RNCNvXsh_NtCsjTRrhfWa0WU_13eldritch_core10conversionINtNtCs4Vq2ZLagKfv_4core6result6ResultbNtNtCs456UZznmu7y_5alloc6string6StringENtB7_18IntoEldritchResult20into_eldritch_results_0CsajmQ4HJRykT_18eldritch_libcrypto
FNDA:0,_RNCNvXsh_NtCsjTRrhfWa0WU_13eldritch_core10conversionINtNtCs4Vq2ZLagKfv_4core6result6ResultuNtNtCs456UZznmu7y_5alloc6string6StringENtB7_18IntoEldritchResult20into_eldritch_result0CsajmQ4HJRykT_18eldritch_libcrypto
FNDA:0,_RNCNvXsh_NtCsjTRrhfWa0WU_13eldritch_core10conversionINtNtCs4Vq2ZLagKfv_4core6result6ResultuNtNtCs456UZznmu7y_5alloc6string6StringENtB7_18IntoEldritchResult20into_eldritch_results_0CsajmQ4HJRykT_18eldritch_libcrypto
FNDA:0,_RNvXsd_NtCsjTRrhfWa0WU_13eldritch_core10conversionINtNtCs456UZznmu7y_5alloc3vec3VecNtNtBR_6string6StringENtB5_7ToValue8to_valueCsjjrTDlECOC2_18eldritch_libassets
FNDA:0,_RNvXsh_NtCsjTRrhfWa0WU_13eldritch_core10conversionINtNtCs4Vq2ZLagKfv_4core6result6ResultINtNtCs456UZznmu7y_5alloc3vec3VecNtNtB1t_6string6StringEB1V_ENtB5_18IntoEldritchResult20into_eldritch_resultCsjjrTDlECOC2_18eldritch_libassets
FNDA:0,_RNvXsh_NtCsjTRrhfWa0WU_13eldritch_core10conversionINtNtCs4Vq2ZLagKfv_4core6result6ResultNtNtB7_3ast5ValueNtNtCs456UZznmu7y_5alloc6string6StringENtB5_18IntoEldritchResult20into_eldritch_resultCsjjrTDlECOC2_18eldritch_libassets
FNDA:0,_RNvXsh_NtCsjTRrhfWa0WU_13eldritch_core10conversionINtNtCs4Vq2ZLagKfv_4core6result6ResultNtNtCs456UZznmu7y_5alloc6string6StringB1o_ENtB5_18IntoEldritchResult20into_eldritch_resultCsjjrTDlECOC2_18eldritch_libassets
FNDA:2,_RNvXsh_NtCsjTRrhfWa0WU_13eldritch_core10conversionINtNtCs4Vq2ZLagKfv_4core6result6ResultuNtNtCs456UZznmu7y_5alloc6string6StringENtB5_18IntoEldritchResult20into_eldritch_resultCsjjrTDlECOC2_18eldritch_libassets
FNDA:0,_RNCNvXsd_NtCsjTRrhfWa0WU_13eldritch_core10conversionINtNtCs456UZznmu7y_5alloc3vec3VecNtNtBT_6string6StringENtB7_7ToValue8to_value0CsjjrTDlECOC2_18eldritch_libassets
FNDA:0,_RNCNvXsh_NtCsjTRrhfWa0WU_13eldritch_core10conversionINtNtCs4Vq2ZLagKfv_4core6result6ResultINtNtCs456UZznmu7y_5alloc3vec3VecNtNtB1v_6string6StringEB1X_ENtB7_18IntoEldritchResult20into_eldritch_result0CsjjrTDlECOC2_18eldritch_libassets
FNDA:0,_RNCNvXsh_NtCsjTRrhfWa0WU_13eldritch_core10conversionINtNtCs4Vq2ZLagKfv_4core6result6ResultINtNtCs456UZznmu7y_5alloc3vec3VecNtNtB1v_6string6StringEB1X_ENtB7_18IntoEldritchResult20into_eldritch_results_0CsjjrTDlECOC2_18eldritch_libassets
FNDA:0,_RNCNvXsh_NtCsjTRrhfWa0WU_13eldritch_core10conversionINtNtCs4Vq2ZLagKfv_4core6result6ResultNtNtB9_3ast5ValueNtNtCs456UZznmu7y_5alloc6string6StringENtB7_18IntoEldritchResult20into_eldritch_result0CsjjrTDlECOC2_18eldritch_libassets
FNDA:0,_RNCNvXsh_NtCsjTRrhfWa0WU_13eldritch_core10conversionINtNtCs4Vq2ZLagKfv_4core6result6ResultNtNtB9_3ast5ValueNtNtCs456UZznmu7y_5alloc6string6StringENtB7_18IntoEldritchResult20into_eldritch_results_0CsjjrTDlECOC2_18eldritch_libassets
FNDA:0,_RNCNvXsh_NtCsjTRrhfWa0WU_13eldritch_core10conversionINtNtCs4Vq2ZLagKfv_4core6result6ResultNtNtCs456UZznmu7y_5alloc6string6StringB1q_ENtB7_18IntoEldritchResult20into_eldritch_result0CsjjrTDlECOC2_18eldritch_libassets
FNDA:0,_RNCNvXsh_NtCsjTRrhfWa0WU_13eldritch_core10conversionINtNtCs4Vq2ZLagKfv_4core6result6ResultNtNtCs456UZznmu7y_5alloc6string6StringB1q_ENtB7_18IntoEldritchResult20into_eldritch_results_0CsjjrTDlECOC2_18eldritch_libassets
FNDA:2,_RNCNvXsh_NtCsjTRrhfWa0WU_13eldritch_core10conversionINtNtCs4Vq2ZLagKfv_4core6result6ResultuNtNtCs456UZznmu7y_5alloc6string6StringENtB7_18IntoEldritchResult20into_eldritch_result0CsjjrTDlECOC2_18eldritch_libassets
FNDA:0,_RNCNvXsh_NtCsjTRrhfWa0WU_13eldritch_core10conversionINtNtCs4Vq2ZLagKfv_4core6result6ResultuNtNtCs456UZznmu7y_5alloc6string6StringENtB7_18IntoEldritchResult20into_eldritch_results_0CsjjrTDlECOC2_18eldritch_libassets
FNDA:0,_RNvXsh_NtCsjTRrhfWa0WU_13eldritch_core10conversionINtNtCs4Vq2ZLagKfv_4core6result6ResultINtNtCs456UZznmu7y_5alloc3vec3VecNtNtB1t_6string6StringEB1V_ENtB5_18IntoEldritchResult20into_eldritch_resultCsaDfCljoBaJe_17eldritch_libagent
FNDA:0,_RNvXsh_NtCsjTRrhfWa0WU_13eldritch_core10conversionINtNtCs4Vq2ZLagKfv_4core6result6ResultINtNtCs456UZznmu7y_5alloc3vec3VecNtNtCsaDfCljoBaJe_17eldritch_libagent10conversion11TaskWrapperENtNtB1t_6string6StringENtB5_18IntoEldritchResult20into_eldritch_resultB1Z_
FNDA:0,_RNvXsh_NtCsjTRrhfWa0WU_13eldritch_core10conversionINtNtCs4Vq2ZLagKfv_4core6result6ResultINtNtNtNtCs456UZznmu7y_5alloc11collections5btree3map8BTreeMapNtNtB1x_6string6StringNtNtB7_3ast5ValueEB2n_ENtB5_18IntoEldritchResult20into_eldritch_resultCsaDfCljoBaJe_17eldritch_libagent
FNDA:0,_RNvXsh_NtCsjTRrhfWa0WU_13eldritch_core10conversionINtNtCs4Vq2ZLagKfv_4core6result6ResultNtNtCs456UZznmu7y_5alloc6string6StringB1o_ENtB5_18IntoEldritchResult20into_eldritch_resultCsaDfCljoBaJe_17eldritch_libagent
FNDA:0,_RNvXsh_NtCsjTRrhfWa0WU_13eldritch_core10conversionINtNtCs4Vq2ZLagKfv_4core6result6ResultuNtNtCs456UZznmu7y_5alloc6string6StringENtB5_18IntoEldritchResult20into_eldritch_resultCsaDfCljoBaJe_17eldritch_libagent
FNDA:0,_RNvXsh_NtCsjTRrhfWa0WU_13eldritch_core10conversionINtNtCs4Vq2ZLagKfv_4core6result6ResultxNtNtCs456UZznmu7y_5alloc6string6StringENtB5_18IntoEldritchResult20into_eldritch_resultCsaDfCljoBaJe_17eldritch_libagent
FNDA:0,_RNCNvXsd_NtCsjTRrhfWa0WU_13eldritch_core10conversionINtNtCs456UZznmu7y_5alloc3vec3VecNtNtBT_6string6StringENtB7_7ToValue8to_value0CsaDfCljoBaJe_17eldritch_libagent
FNDA:0,_RNCNvXsd_NtCsjTRrhfWa0WU_13eldritch_core10conversionINtNtCs456UZznmu7y_5alloc3vec3VecNtNtCsaDfCljoBaJe_17eldritch_libagent10conversion11TaskWrapperENtB7_7ToValue8to_value0B1p_
FNDA:0,_RNCNvXsh_NtCsjTRrhfWa0WU_13eldritch_core10conversionINtNtCs4Vq2ZLagKfv_4core6result6ResultINtNtCs456UZznmu7y_5alloc3vec3VecNtNtB1v_6string6StringEB1X_ENtB7_18IntoEldritchResult20into_eldritch_result0CsaDfCljoBaJe_17eldritch_libagent
FNDA:0,_RNCNvXsh_NtCsjTRrhfWa0WU_13eldritch_core10conversionINtNtCs4Vq2ZLagKfv_4core6result6ResultINtNtCs456UZznmu7y_5alloc3vec3VecNtNtB1v_6string6StringEB1X_ENtB7_18IntoEldritchResult20into_eldritch_results_0CsaDfCljoBaJe_17eldritch_libagent
FNDA:0,_RNCNvXsh_NtCsjTRrhfWa0WU_13eldritch_core10conversionINtNtCs4Vq2ZLagKfv_4core6result6ResultINtNtCs456UZznmu7y_5alloc3vec3VecNtNtCsaDfCljoBaJe_17eldritch_libagent10conversion11TaskWrapperENtNtB1v_6string6StringENtB7_18IntoEldritchResult20into_eldritch_result0B21_
FNDA:0,_RNCNvXsh_NtCsjTRrhfWa0WU_13eldritch_core10conversionINtNtCs4Vq2ZLagKfv_4core6result6ResultINtNtCs456UZznmu7y_5alloc3vec3VecNtNtCsaDfCljoBaJe_17eldritch_libagent10conversion11TaskWrapperENtNtB1v_6string6StringENtB7_18IntoEldritchResult20into_eldritch_results_0B21_
FNDA:0,_RNCNvXsh_NtCsjTRrhfWa0WU_13eldritch_core10conversionINtNtCs4Vq2ZLagKfv_4core6result6ResultINtNtNtNtCs456UZznmu7y_5alloc11collections5btree3map8BTreeMapNtNtB1z_6string6StringNtNtB9_3ast5ValueEB2p_ENtB7_18IntoEldritchResult20into_eldritch_result0CsaDfCljoBaJe_17eldritch_libagent
FNDA:0,_RNCNvXsh_NtCsjTRrhfWa0WU_13eldritch_core10conversionINtNtCs4Vq2ZLagKfv_4core6result6ResultINtNtNtNtCs456UZznmu7y_5alloc11collections5btree3map8BTreeMapNtNtB1z_6string6StringNtNtB9_3ast5ValueEB2p_ENtB7_18IntoEldritchResult20into_eldritch_results_0CsaDfCljoBaJe_17eldritch_libagent
FNDA:0,_RNCNvXsh_NtCsjTRrhfWa0WU_13eldritch_core10conversionINtNtCs4Vq2ZLagKfv_4core6result6ResultNtNtCs456UZznmu7y_5alloc6string6StringB1q_ENtB7_18IntoEldritchResult20into_eldritch_result0CsaDfCljoBaJe_17eldritch_libagent
FNDA:0,_RNCNvXsh_NtCsjTRrhfWa0WU_13eldritch_core10conversionINtNtCs4Vq2ZLagKfv_4core6result6ResultNtNtCs456UZznmu7y_5alloc6string6StringB1q_ENtB7_18IntoEldritchResult20into_eldritch_results_0CsaDfCljoBaJe_17eldritch_libagent
FNDA:0,_RNCNvXsh_NtCsjTRrhfWa0WU_13eldritch_core10conversionINtNtCs4Vq2ZLagKfv_4core6result6ResultuNtNtCs456UZznmu7y_5alloc6string6StringENtB7_18IntoEldritchResult20into_eldritch_result0CsaDfCljoBaJe_17eldritch_libagent
FNDA:0,_RNCNvXsh_NtCsjTRrhfWa0WU_13eldritch_core10conversionINtNtCs4Vq2ZLagKfv_4core6result6ResultuNtNtCs456UZznmu7y_5alloc6string6StringENtB7_18IntoEldritchResult20into_eldritch_results_0CsaDfCljoBaJe_17eldritch_libagent
FNDA:0,_RNCNvXsh_NtCsjTRrhfWa0WU_13eldritch_core10conversionINtNtCs4Vq2ZLagKfv_4core6result6ResultxNtNtCs456UZznmu7y_5alloc6string6StringENtB7_18IntoEldritchResult20into_eldritch_result0CsaDfCljoBaJe_17eldritch_libagent
FNDA:0,_RNCNvXsh_NtCsjTRrhfWa0WU_13eldritch_core10conversionINtNtCs4Vq2ZLagKfv_4core6result6ResultxNtNtCs456UZznmu7y_5alloc6string6StringENtB7_18IntoEldritchResult20into_eldritch_results_0CsaDfCljoBaJe_17eldritch_libagent
FNDA:0,_RNvXsd_NtCsjTRrhfWa0WU_13eldritch_core10conversionINtNtCs456UZznmu7y_5alloc3vec3VecNtNtBR_6string6StringENtB5_7ToValue8to_valueCsaDfCljoBaJe_17eldritch_libagent
FNDA:0,_RNvXsd_NtCsjTRrhfWa0WU_13eldritch_core10conversionINtNtCs456UZznmu7y_5alloc3vec3VecNtNtCsaDfCljoBaJe_17eldritch_libagent10conversion11TaskWrapperENtB5_7ToValue8to_valueB1n_
FNDA:0,_RNvXse_NtCsjTRrhfWa0WU_13eldritch_core10conversionINtNtNtNtCs456UZznmu7y_5alloc11collections5btree3map8BTreeMapNtNtBV_6string6StringNtNtB7_3ast5ValueENtB5_7ToValue8to_valueCsaDfCljoBaJe_17eldritch_libagent
FNDA:0,_RNCNvXININtCs3OupGlkSanV_13eldritch_core10conversionsd_0pEINtNtCs456UZznmu7y_5alloc3vec3VecpENtB7_7ToValue8to_value0B9_
FNDA:0,_RNCNvXININtCs3OupGlkSanV_13eldritch_core10conversionsh_0ppEINtNtCs4Vq2ZLagKfv_4core6result6ResultppENtB7_18IntoEldritchResult20into_eldritch_result0B9_
FNDA:0,_RNCNvXININtCs3OupGlkSanV_13eldritch_core10conversionsh_0ppEINtNtCs4Vq2ZLagKfv_4core6result6ResultppENtB7_18IntoEldritchResult20into_eldritch_results_0B9_
FNDA:0,_RNvNtCs3OupGlkSanV_13eldritch_core10conversion13get_type_name
FNDA:0,_RNvXININtCs3OupGlkSanV_13eldritch_core10conversions3_0pEINtNtCs456UZznmu7y_5alloc3vec3VecpENtB5_9FromValue10from_valueB7_
FNDA:0,_RNvXININtCs3OupGlkSanV_13eldritch_core10conversions4_0ppEINtNtNtNtCs456UZznmu7y_5alloc11collections5btree3map8BTreeMapppENtB5_9FromValue10from_valueB7_
FNDA:0,_RNvXININtCs3OupGlkSanV_13eldritch_core10conversions6_0pEINtNtCs4Vq2ZLagKfv_4core6option6OptionpENtB5_9FromValue10from_valueB7_
FNDA:0,_RNvXININtCs3OupGlkSanV_13eldritch_core10conversionsd_0pEINtNtCs456UZznmu7y_5alloc3vec3VecpENtB5_7ToValue8to_valueB7_
FNDA:0,_RNvXININtCs3OupGlkSanV_13eldritch_core10conversionse_0ppEINtNtNtNtCs456UZznmu7y_5alloc11collections5btree3map8BTreeMapppENtB5_7ToValue8to_valueB7_
FNDA:0,_RNvXININtCs3OupGlkSanV_13eldritch_core10conversionsf_0pEINtNtCs4Vq2ZLagKfv_4core6option6OptionpENtB5_7ToValue8to_valueB7_
FNDA:0,_RNvXININtCs3OupGlkSanV_13eldritch_core10conversionsh_0ppEINtNtCs4Vq2ZLagKfv_4core6result6ResultppENtB5_18IntoEldritchResult20into_eldritch_resultB7_
FNDA:0,_RNvXNtCs3OupGlkSanV_13eldritch_core10conversionxNtB2_9FromValue10from_value
FNDA:0,_RNvXs0_NtCs3OupGlkSanV_13eldritch_core10conversionNtNtCs456UZznmu7y_5alloc6string6StringNtB5_9FromValue10from_value
FNDA:0,_RNvXs1_NtCs3OupGlkSanV_13eldritch_core10conversionbNtB5_9FromValue10from_value
FNDA:0,_RNvXs2_NtCs3OupGlkSanV_13eldritch_core10conversionINtNtCs456UZznmu7y_5alloc3vec3VechENtB5_9FromValue10from_value
FNDA:0,_RNvXs5_NtCs3OupGlkSanV_13eldritch_core10conversionNtNtB7_3ast5ValueNtB5_9FromValue10from_value
FNDA:0,_RNvXs7_NtCs3OupGlkSanV_13eldritch_core10conversionxNtB5_7ToValue8to_value
FNDA:0,_RNvXs8_NtCs3OupGlkSanV_13eldritch_core10conversiondNtB5_7ToValue8to_value
FNDA:0,_RNvXs9_NtCs3OupGlkSanV_13eldritch_core10conversionNtNtCs456UZznmu7y_5alloc6string6StringNtB5_7ToValue8to_value
FNDA:0,_RNvXs_NtCs3OupGlkSanV_13eldritch_core10conversiondNtB4_9FromValue10from_value
FNDA:0,_RNvXsa_NtCs3OupGlkSanV_13eldritch_core10conversionuNtB5_7ToValue8to_value
FNDA:0,_RNvXsb_NtCs3OupGlkSanV_13eldritch_core10conversionbNtB5_7ToValue8to_value
FNDA:0,_RNvXsc_NtCs3OupGlkSanV_13eldritch_core10conversionINtNtCs456UZznmu7y_5alloc3vec3VechENtB5_7ToValue8to_value
FNDA:0,_RNvXsg_NtCs3OupGlkSanV_13eldritch_core10conversionNtNtB7_3ast5ValueNtB5_7ToValue8to_value
FNDA:4,_RNvXse_NtCsjTRrhfWa0WU_13eldritch_core10conversionINtNtNtNtCs456UZznmu7y_5alloc11collections5btree3map8BTreeMapNtNtB7_3ast5ValueB1L_ENtB5_7ToValue8to_valueCslapJfWclpJO_18eldritch_libcrypto
FNDA:3,_RNvXsd_NtCsjTRrhfWa0WU_13eldritch_core10conversionINtNtCs456UZznmu7y_5alloc3vec3VecNtNtB7_3ast5ValueENtB5_7ToValue8to_valueCslapJfWclpJO_18eldritch_libcrypto
FNDA:12,_RNCNvXsd_NtCsjTRrhfWa0WU_13eldritch_core10conversionINtNtCs456UZznmu7y_5alloc3vec3VecNtNtB9_3ast5ValueENtB7_7ToValue8to_value0CslapJfWclpJO_18eldritch_libcrypto
FNDA:0,_RNCNvXININtCsjTRrhfWa0WU_13eldritch_core10conversionsd_0pEINtNtCs456UZznmu7y_5alloc3vec3VecpENtB7_7ToValue8to_value0B9_
FNDA:0,_RNCNvXININtCsjTRrhfWa0WU_13eldritch_core10conversionsh_0ppEINtNtCs4Vq2ZLagKfv_4core6result6ResultppENtB7_18IntoEldritchResult20into_eldritch_result0B9_
FNDA:0,_RNCNvXININtCsjTRrhfWa0WU_13eldritch_core10conversionsh_0ppEINtNtCs4Vq2ZLagKfv_4core6result6ResultppENtB7_18IntoEldritchResult20into_eldritch_results_0B9_
FNDA:0,_RNvXININtCsjTRrhfWa0WU_13eldritch_core10conversions3_0pEINtNtCs456UZznmu7y_5alloc3vec3VecpENtB5_9FromValue10from_valueB7_
FNDA:0,_RNvXININtCsjTRrhfWa0WU_13eldritch_core10conversions4_0ppEINtNtNtNtCs456UZznmu7y_5alloc11collections5btree3map8BTreeMapppENtB5_9FromValue10from_valueB7_
FNDA:0,_RNvXININtCsjTRrhfWa0WU_13eldritch_core10conversions6_0pEINtNtCs4Vq2ZLagKfv_4core6option6OptionpENtB5_9FromValue10from_valueB7_
FNDA:0,_RNvXININtCsjTRrhfWa0WU_13eldritch_core10conversionsd_0pEINtNtCs456UZznmu7y_5alloc3vec3VecpENtB5_7ToValue8to_valueB7_
FNDA:0,_RNvXININtCsjTRrhfWa0WU_13eldritch_core10conversionse_0ppEINtNtNtNtCs456UZznmu7y_5alloc11collections5btree3map8BTreeMapppENtB5_7ToValue8to_valueB7_
FNDA:0,_RNvXININtCsjTRrhfWa0WU_13eldritch_core10conversionsf_0pEINtNtCs4Vq2ZLagKfv_4core6option6OptionpENtB5_7ToValue8to_valueB7_
FNDA:0,_RNvXININtCsjTRrhfWa0WU_13eldritch_core10conversionsh_0ppEINtNtCs4Vq2ZLagKfv_4core6result6ResultppENtB5_18IntoEldritchResult20into_eldritch_resultB7_
FNF:24
FNH:15
DA:19,0
DA:20,0
DA:21,0
DA:22,0
DA:24,0
DA:28,0
DA:29,0
DA:30,0
DA:31,0
DA:32,0
DA:34,0
DA:38,830
DA:39,830
DA:40,830
DA:41,0
DA:43,830
DA:47,0
DA:48,0
DA:49,0
DA:50,0
DA:52,0
DA:56,0
DA:57,0
DA:58,0
DA:59,0
DA:61,0
DA:65,1
DA:66,1
DA:67,1
DA:68,1
DA:69,1
DA:70,91
DA:71,91
DA:73,1
DA:75,0
DA:76,0
DA:77,0
DA:78,0
DA:80,0
DA:86,0
DA:88,1
DA:92,91
DA:93,91
DA:94,91
DA:95,91
DA:96,91
DA:97,819
DA:98,819
DA:99,819
DA:100,819
DA:102,91
DA:104,0
DA:106,91
DA:110,819
DA:111,819
DA:112,819
DA:116,0
DA:117,0
DA:118,0
DA:119,0
DA:121,0
DA:126,5
DA:127,5
DA:128,5
DA:132,0
DA:133,0
DA:134,0
DA:138,858
DA:139,858
DA:140,858
DA:144,3
DA:145,3
DA:146,3
DA:150,5
DA:151,5
DA:152,5
DA:156,0
DA:157,0
DA:158,0
DA:162,4
DA:163,103
DA:164,4
DA:165,4
DA:169,116
DA:170,116
DA:171,969
DA:172,853
DA:173,853
DA:174,116
DA:175,116
DA:179,0
DA:180,0
DA:181,0
DA:182,0
DA:184,0
DA:188,869
DA:189,869
DA:190,869
DA:203,16
DA:204,16
DA:205,16
DA:209,0
DA:210,0
DA:211,0
DA:212,0
DA:213,0
DA:214,0
DA:215,0
DA:216,0
DA:217,0
DA:218,0
DA:219,0
DA:220,0
DA:221,0
DA:222,0
DA:223,0
DA:224,0
DA:225,0
DA:227,0
BRF:0
BRH:0
LF:122
LH:59
end_of_record
SF:/app/implants/lib/eldritch/eldritch-core/src/interpreter/builtins/abs.rs
FN:12,_RNvNtNtNtCsjTRrhfWa0WU_13eldritch_core11interpreter8builtins3abs11builtin_abs
FN:12,_RNvNtNtNtCs3OupGlkSanV_13eldritch_core11interpreter8builtins3abs11builtin_abs
FNDA:5,_RNvNtNtNtCsjTRrhfWa0WU_13eldritch_core11interpreter8builtins3abs11builtin_abs
FNDA:0,_RNvNtNtNtCs3OupGlkSanV_13eldritch_core11interpreter8builtins3abs11builtin_abs
FNF:1
FNH:1
DA:12,5
DA:13,5
DA:14,2
DA:15,2
DA:16,2
DA:17,2
DA:18,3
DA:19,3
DA:20,1
DA:21,1
DA:22,1
DA:23,1
DA:24,1
DA:25,1
DA:27,5
BRF:0
BRH:0
LF:15
LH:15
end_of_record
SF:/app/implants/lib/eldritch/eldritch-core/src/interpreter/builtins/all.rs
FN:12,_RNvNtNtNtCsjTRrhfWa0WU_13eldritch_core11interpreter8builtins3all11builtin_all
FN:12,_RNvNtNtNtCs3OupGlkSanV_13eldritch_core11interpreter8builtins3all11builtin_all
FNDA:8,_RNvNtNtNtCsjTRrhfWa0WU_13eldritch_core11interpreter8builtins3all11builtin_all
FNDA:0,_RNvNtNtNtCs3OupGlkSanV_13eldritch_core11interpreter8builtins3all11builtin_all
FNF:1
FNH:1
DA:12,8
DA:13,8
DA:14,2
DA:15,2
DA:16,2
DA:17,2
DA:18,6
DA:20,6
DA:21,5
DA:22,0
DA:23,0
DA:24,0
DA:26,1
DA:27,1
DA:28,1
DA:29,1
DA:33,11
DA:34,8
DA:35,2
DA:36,6
DA:38,3
DA:39,8
BRF:0
BRH:0
LF:22
LH:19
end_of_record
SF:/app/implants/lib/eldritch/eldritch-core/src/interpreter/builtins/any.rs
FN:12,_RNvNtNtNtCsjTRrhfWa0WU_13eldritch_core11interpreter8builtins3any11builtin_any
FN:12,_RNvNtNtNtCs3OupGlkSanV_13eldritch_core11interpreter8builtins3any11builtin_any
FNDA:7,_RNvNtNtNtCsjTRrhfWa0WU_13eldritch_core11interpreter8builtins3any11builtin_any
FNDA:0,_RNvNtNtNtCs3OupGlkSanV_13eldritch_core11interpreter8builtins3any11builtin_any
FNF:1
FNH:1
DA:12,7
DA:13,7
DA:14,2
DA:15,2
DA:16,2
DA:17,2
DA:18,5
DA:20,5
DA:21,4
DA:22,0
DA:23,0
DA:24,0
DA:26,1
DA:27,1
DA:28,1
DA:29,1
DA:33,9
DA:34,7
DA:35,2
DA:36,5
DA:38,2
DA:39,7
BRF:0
BRH:0
LF:22
LH:19
end_of_record
SF:/app/implants/lib/eldritch/eldritch-core/src/interpreter/builtins/assert.rs
FN:12,_RNvNtNtNtCsjTRrhfWa0WU_13eldritch_core11interpreter8builtins6assert14builtin_assert
FN:12,_RNvNtNtNtCs3OupGlkSanV_13eldritch_core11interpreter8builtins6assert14builtin_assert
FNDA:235,_RNvNtNtNtCsjTRrhfWa0WU_13eldritch_core11interpreter8builtins6assert14builtin_assert
FNDA:0,_RNvNtNtNtCs3OupGlkSanV_13eldritch_core11interpreter8builtins6assert14builtin_assert
FNF:1
FNH:1
DA:12,235
DA:13,235
DA:14,1
DA:15,1
DA:16,1
DA:17,1
DA:18,234
DA:19,234
DA:20,1
DA:21,1
DA:22,1
DA:23,1
DA:24,233
DA:25,233
DA:26,235
BRF:0
BRH:0
LF:15
LH:15
end_of_record
SF:/app/implants/lib/eldritch/eldritch-core/src/interpreter/builtins/assert_eq.rs
FN:12,_RNvNtNtNtCsjTRrhfWa0WU_13eldritch_core11interpreter8builtins9assert_eq17builtin_assert_eq
FN:12,_RNvNtNtNtCs3OupGlkSanV_13eldritch_core11interpreter8builtins9assert_eq17builtin_assert_eq
FNDA:560,_RNvNtNtNtCsjTRrhfWa0WU_13eldritch_core11interpreter8builtins9assert_eq17builtin_assert_eq
FNDA:0,_RNvNtNtNtCs3OupGlkSanV_13eldritch_core11interpreter8builtins9assert_eq17builtin_assert_eq
FNF:1
FNH:1
DA:12,560
DA:13,560
DA:14,2
DA:15,2
DA:16,2
DA:17,2
DA:18,558
DA:19,558
DA:20,0
DA:21,0
DA:22,0
DA:23,0
DA:24,558
DA:25,558
DA:26,560
BRF:0
BRH:0
LF:15
LH:11
end_of_record
SF:/app/implants/lib/eldritch/eldritch-core/src/interpreter/builtins/bool.rs
FN:10,_RNvNtNtNtCsjTRrhfWa0WU_13eldritch_core11interpreter8builtins4bool12builtin_bool
FN:10,_RNvNtNtNtCs3OupGlkSanV_13eldritch_core11interpreter8builtins4bool12builtin_bool
FNDA:25,_RNvNtNtNtCsjTRrhfWa0WU_13eldritch_core11interpreter8builtins4bool12builtin_bool
FNDA:0,_RNvNtNtNtCs3OupGlkSanV_13eldritch_core11interpreter8builtins4bool12builtin_bool
FNF:1
FNH:1
DA:10,25
DA:11,25
DA:12,1
DA:13,24
DA:14,24
DA:15,25
BRF:0
BRH:0
LF:6
LH:6
end_of_record
SF:/app/implants/lib/eldritch/eldritch-core/src/interpreter/builtins/builtins_fn.rs
FN:18,_RNCNvNtNtNtCsjTRrhfWa0WU_13eldritch_core11interpreter8builtins11builtins_fn16builtin_builtins0B9_
FN:12,_RNvNtNtNtCsjTRrhfWa0WU_13eldritch_core11interpreter8builtins11builtins_fn16builtin_builtins
FN:18,_RNCNvNtNtNtCs3OupGlkSanV_13eldritch_core11interpreter8builtins11builtins_fn16builtin_builtins0B9_
FN:12,_RNvNtNtNtCs3OupGlkSanV_13eldritch_core11interpreter8builtins11builtins_fn16builtin_builtins
FNDA:33,_RNCNvNtNtNtCsjTRrhfWa0WU_13eldritch_core11interpreter8builtins11builtins_fn16builtin_builtins0B9_
FNDA:1,_RNvNtNtNtCsjTRrhfWa0WU_13eldritch_core11interpreter8builtins11builtins_fn16builtin_builtins
FNDA:0,_RNCNvNtNtNtCs3OupGlkSanV_13eldritch_core11interpreter8builtins11builtins_fn16builtin_builtins0B9_
FNDA:0,_RNvNtNtNtCs3OupGlkSanV_13eldritch_core11interpreter8builtins11builtins_fn16builtin_builtins
FNF:2
FNH:2
DA:12,1
DA:13,1
DA:14,0
DA:15,1
DA:16,1
DA:17,1
DA:18,33
DA:19,1
DA:20,1
DA:21,1
DA:22,1
DA:23,1
BRF:0
BRH:0
LF:13
LH:12
end_of_record
SF:/app/implants/lib/eldritch/eldritch-core/src/interpreter/builtins/bytes.rs
FN:15,_RNvNtNtNtCsjTRrhfWa0WU_13eldritch_core11interpreter8builtins5bytes13builtin_bytes
FN:15,_RNvNtNtNtCs3OupGlkSanV_13eldritch_core11interpreter8builtins5bytes13builtin_bytes
FNDA:15,_RNvNtNtNtCsjTRrhfWa0WU_13eldritch_core11interpreter8builtins5bytes13builtin_bytes
FNDA:0,_RNvNtNtNtCs3OupGlkSanV_13eldritch_core11interpreter8builtins5bytes13builtin_bytes
FNF:1
FNH:1
DA:15,15
DA:16,15
DA:17,0
DA:18,15
DA:19,15
DA:20,1
DA:21,14
DA:23,14
DA:24,3
DA:25,8
DA:26,8
DA:27,8
DA:28,16
DA:29,16
DA:30,15
DA:31,15
DA:32,2
DA:33,2
DA:34,2
DA:35,13
DA:36,13
DA:39,1
DA:40,1
DA:41,1
DA:42,1
DA:46,5
DA:48,3
DA:49,3
DA:50,2
DA:51,1
DA:52,1
DA:54,0
DA:55,0
DA:56,0
DA:57,0
DA:59,15
BRF:0
BRH:0
LF:36
LH:31
end_of_record
SF:/app/implants/lib/eldritch/eldritch-core/src/interpreter/builtins/chr.rs
FN:13,_RNvNtNtNtCsjTRrhfWa0WU_13eldritch_core11interpreter8builtins3chr11builtin_chr
FN:13,_RNvNtNtNtCs3OupGlkSanV_13eldritch_core11interpreter8builtins3chr11builtin_chr
FNDA:8,_RNvNtNtNtCsjTRrhfWa0WU_13eldritch_core11interpreter8builtins3chr11builtin_chr
FNDA:0,_RNvNtNtNtCs3OupGlkSanV_13eldritch_core11interpreter8builtins3chr11builtin_chr
FNF:1
FNH:1
DA:13,8
DA:14,8
DA:15,0
DA:16,0
DA:17,0
DA:18,0
DA:19,8
DA:20,8
DA:21,7
DA:24,7
DA:25,2
DA:26,5
DA:27,5
DA:28,5
DA:29,0
DA:32,1
DA:33,1
DA:34,1
DA:35,1
DA:37,8
BRF:0
BRH:0
LF:20
LH:15
end_of_record
SF:/app/implants/lib/eldritch/eldritch-core/src/interpreter/builtins/dict.rs
FN:14,_RNvNtNtNtCsjTRrhfWa0WU_13eldritch_core11interpreter8builtins4dict12builtin_dict
FN:69,_RNvNtNtNtCsjTRrhfWa0WU_13eldritch_core11interpreter8builtins4dict12process_pair
FN:14,_RNvNtNtNtCs3OupGlkSanV_13eldritch_core11interpreter8builtins4dict12builtin_dict
FN:69,_RNvNtNtNtCs3OupGlkSanV_13eldritch_core11interpreter8builtins4dict12process_pair
FNDA:6,_RNvNtNtNtCsjTRrhfWa0WU_13eldritch_core11interpreter8builtins4dict12builtin_dict
FNDA:4,_RNvNtNtNtCsjTRrhfWa0WU_13eldritch_core11interpreter8builtins4dict12process_pair
FNDA:0,_RNvNtNtNtCs3OupGlkSanV_13eldritch_core11interpreter8builtins4dict12builtin_dict
FNDA:0,_RNvNtNtNtCs3OupGlkSanV_13eldritch_core11interpreter8builtins4dict12process_pair
FNF:2
FNH:2
DA:14,6
DA:15,6
DA:16,6
DA:17,6
DA:18,6
DA:19,6
DA:20,1
DA:21,1
DA:22,1
DA:23,1
DA:24,5
DA:26,5
DA:29,5
DA:30,4
DA:31,0
DA:32,0
DA:33,0
DA:34,0
DA:35,3
DA:36,3
DA:37,4
DA:38,4
DA:41,0
DA:42,0
DA:43,0
DA:46,0
DA:47,0
DA:48,0
DA:49,0
DA:53,1
DA:54,1
DA:55,1
DA:56,1
DA:59,1
DA:62,6
DA:63,3
DA:64,3
DA:66,3
DA:67,6
DA:69,4
DA:70,4
DA:71,4
DA:72,4
DA:73,4
DA:74,4
DA:75,0
DA:76,0
DA:77,0
DA:78,0
DA:79,0
DA:80,0
DA:81,0
DA:82,0
DA:83,0
DA:84,0
DA:85,0
DA:87,3
DA:88,3
DA:89,0
DA:90,0
DA:91,0
DA:92,0
DA:93,0
DA:94,3
DA:95,3
DA:96,3
DA:99,1
DA:100,1
DA:101,1
DA:104,3
DA:105,4
BRF:0
BRH:0
LF:71
LH:44
end_of_record
SF:/app/implants/lib/eldritch/eldritch-core/src/interpreter/builtins/dir.rs
FN:13,_RNvNtNtNtCsjTRrhfWa0WU_13eldritch_core11interpreter8builtins3dir11builtin_dir
FN:13,_RNvNtNtNtCs3OupGlkSanV_13eldritch_core11interpreter8builtins3dir11builtin_dir
FNDA:10,_RNvNtNtNtCsjTRrhfWa0WU_13eldritch_core11interpreter8builtins3dir11builtin_dir
FNDA:0,_RNvNtNtNtCs3OupGlkSanV_13eldritch_core11interpreter8builtins3dir11builtin_dir
FNF:1
FNH:1
DA:13,10
DA:14,10
DA:15,2
DA:16,2
DA:19,5
DA:20,3
DA:21,84
DA:22,84
DA:23,84
DA:24,3
DA:27,2
DA:28,2
DA:29,8
DA:32,8
DA:33,8
DA:34,8
DA:35,10
BRF:0
BRH:0
LF:17
LH:17
end_of_record
SF:/app/implants/lib/eldritch/eldritch-core/src/interpreter/builtins/enumerate.rs
FN:34,_RNCNvNtNtNtCsjTRrhfWa0WU_13eldritch_core11interpreter8builtins9enumerate17builtin_enumerate0B9_
FN:17,_RNvNtNtNtCsjTRrhfWa0WU_13eldritch_core11interpreter8builtins9enumerate17builtin_enumerate
FN:17,_RNvNtNtNtCs3OupGlkSanV_13eldritch_core11interpreter8builtins9enumerate17builtin_enumerate
FN:34,_RNCNvNtNtNtCs3OupGlkSanV_13eldritch_core11interpreter8builtins9enumerate17builtin_enumerate0B9_
FNDA:2,_RNCNvNtNtNtCsjTRrhfWa0WU_13eldritch_core11interpreter8builtins9enumerate17builtin_enumerate0B9_
FNDA:18,_RNvNtNtNtCsjTRrhfWa0WU_13eldritch_core11interpreter8builtins9enumerate17builtin_enumerate
FNDA:0,_RNvNtNtNtCs3OupGlkSanV_13eldritch_core11interpreter8builtins9enumerate17builtin_enumerate
FNDA:0,_RNCNvNtNtNtCs3OupGlkSanV_13eldritch_core11interpreter8builtins9enumerate17builtin_enumerate0B9_
FNF:2
FNH:2
DA:17,18
DA:18,18
DA:19,2
DA:20,16
DA:21,16
DA:22,16
DA:23,6
DA:24,3
DA:25,3
DA:28,10
DA:30,13
DA:31,7
DA:32,0
DA:33,1
DA:34,2
DA:36,3
DA:37,3
DA:38,3
DA:39,3
DA:42,10
DA:43,15
DA:44,15
DA:45,15
DA:46,10
DA:47,18
BRF:0
BRH:0
LF:26
LH:25
end_of_record
SF:/app/implants/lib/eldritch/eldritch-core/src/interpreter/builtins/eprint.rs
FN:7,_RNvNtNtNtCsjTRrhfWa0WU_13eldritch_core11interpreter8builtins6eprint14builtin_eprint
FN:7,_RNvNtNtNtCs3OupGlkSanV_13eldritch_core11interpreter8builtins6eprint14builtin_eprint
FNDA:3,_RNvNtNtNtCsjTRrhfWa0WU_13eldritch_core11interpreter8builtins6eprint14builtin_eprint
FNDA:0,_RNvNtNtNtCs3OupGlkSanV_13eldritch_core11interpreter8builtins6eprint14builtin_eprint
FNF:1
FNH:1
DA:7,3
DA:8,3
DA:9,3
DA:10,3
DA:11,0
DA:12,3
DA:13,3
DA:17,3
DA:18,3
DA:19,3
BRF:0
BRH:0
LF:10
LH:9
end_of_record
SF:/app/implants/lib/eldritch/eldritch-core/src/interpreter/builtins/eval_builtin.rs
FN:9,_RNvNtNtNtCsjTRrhfWa0WU_13eldritch_core11interpreter8builtins12eval_builtin17builtin_eval_func
FN:9,_RNvNtNtNtCs3OupGlkSanV_13eldritch_core11interpreter8builtins12eval_builtin17builtin_eval_func
FNDA:36,_RNvNtNtNtCsjTRrhfWa0WU_13eldritch_core11interpreter8builtins12eval_builtin17builtin_eval_func
FNDA:0,_RNvNtNtNtCs3OupGlkSanV_13eldritch_core11interpreter8builtins12eval_builtin17builtin_eval_func
FNF:1
FNH:1
DA:9,36
DA:10,36
DA:11,36
DA:12,36
DA:13,36
DA:14,36
DA:15,0
DA:16,0
DA:17,0
DA:18,0
DA:20,36
DA:22,36
DA:23,36
DA:24,36
DA:26,0
DA:27,0
DA:28,0
DA:29,0
DA:34,36
DA:35,0
DA:36,0
DA:37,0
DA:38,0
DA:40,36
DA:44,36
DA:45,36
DA:46,36
DA:47,36
DA:48,36
DA:49,36
DA:50,36
DA:51,36
DA:53,36
DA:54,4
DA:55,32
DA:57,36
BRF:0
BRH:0
LF:36
LH:24
end_of_record
SF:/app/implants/lib/eldritch/eldritch-core/src/interpreter/builtins/fail.rs
FN:11,_RNvNtNtNtCsjTRrhfWa0WU_13eldritch_core11interpreter8builtins4fail12builtin_fail
FN:11,_RNvNtNtNtCs3OupGlkSanV_13eldritch_core11interpreter8builtins4fail12builtin_fail
FNDA:2,_RNvNtNtNtCsjTRrhfWa0WU_13eldritch_core11interpreter8builtins4fail12builtin_fail
FNDA:0,_RNvNtNtNtCs3OupGlkSanV_13eldritch_core11interpreter8builtins4fail12builtin_fail
FNF:1
FNH:1
DA:11,2
DA:12,2
DA:13,2
DA:14,2
DA:15,2
DA:16,2
DA:17,2
BRF:0
BRH:0
LF:7
LH:7
end_of_record
SF:/app/implants/lib/eldritch/eldritch-core/src/interpreter/builtins/filter.rs
FN:12,_RNvNtNtNtCsjTRrhfWa0WU_13eldritch_core11interpreter8builtins6filter14builtin_filter
FN:12,_RNvNtNtNtCs3OupGlkSanV_13eldritch_core11interpreter8builtins6filter14builtin_filter
FNDA:2,_RNvNtNtNtCsjTRrhfWa0WU_13eldritch_core11interpreter8builtins6filter14builtin_filter
FNDA:0,_RNvNtNtNtCs3OupGlkSanV_13eldritch_core11interpreter8builtins6filter14builtin_filter
FNF:1
FNH:1
DA:12,2
DA:13,2
DA:14,2
DA:15,2
DA:16,2
DA:17,2
DA:18,0
DA:19,0
DA:20,0
DA:21,0
DA:23,2
DA:24,2
DA:25,2
DA:26,2
DA:28,2
DA:29,11
DA:30,9
DA:31,4
DA:33,5
DA:34,5
DA:36,9
DA:37,4
DA:38,5
DA:40,2
DA:41,2
BRF:0
BRH:0
LF:25
LH:21
end_of_record
SF:/app/implants/lib/eldritch/eldritch-core/src/interpreter/builtins/float.rs
FN:12,_RNvNtNtNtCsjTRrhfWa0WU_13eldritch_core11interpreter8builtins5float13builtin_float
FN:12,_RNvNtNtNtCs3OupGlkSanV_13eldritch_core11interpreter8builtins5float13builtin_float
FNDA:7,_RNvNtNtNtCsjTRrhfWa0WU_13eldritch_core11interpreter8builtins5float13builtin_float
FNDA:0,_RNvNtNtNtCs3OupGlkSanV_13eldritch_core11interpreter8builtins5float13builtin_float
FNF:1
FNH:1
DA:12,7
DA:13,7
DA:14,0
DA:15,7
DA:16,7
DA:17,1
DA:18,1
DA:19,1
DA:20,1
DA:21,6
DA:23,6
DA:24,0
DA:25,1
DA:26,0
DA:27,5
DA:28,5
DA:30,5
DA:31,5
DA:32,0
DA:33,5
DA:34,5
DA:35,0
DA:36,5
DA:37,5
DA:38,3
DA:39,2
DA:41,2
DA:42,1
DA:43,1
DA:50,0
DA:51,1
DA:52,1
DA:54,1
DA:57,0
DA:58,0
DA:59,0
DA:60,0
DA:62,7
BRF:0
BRH:0
LF:38
LH:28
end_of_record
SF:/app/implants/lib/eldritch/eldritch-core/src/interpreter/builtins/hex.rs
FN:12,_RNvNtNtNtCsjTRrhfWa0WU_13eldritch_core11interpreter8builtins3hex11builtin_hex
FN:12,_RNvNtNtNtCs3OupGlkSanV_13eldritch_core11interpreter8builtins3hex11builtin_hex
FNDA:9,_RNvNtNtNtCsjTRrhfWa0WU_13eldritch_core11interpreter8builtins3hex11builtin_hex
FNDA:0,_RNvNtNtNtCs3OupGlkSanV_13eldritch_core11interpreter8builtins3hex11builtin_hex
FNF:1
FNH:1
DA:12,9
DA:13,9
DA:14,2
DA:15,2
DA:16,2
DA:17,2
DA:18,7
DA:19,7
DA:20,5
DA:21,5
DA:22,1
DA:24,4
DA:27,2
DA:28,2
DA:29,2
DA:30,2
DA:32,9
BRF:0
BRH:0
LF:17
LH:17
end_of_record
SF:/app/implants/lib/eldritch/eldritch-core/src/interpreter/builtins/int.rs
FN:93,_RNCNvNtNtNtCsjTRrhfWa0WU_13eldritch_core11interpreter8builtins3int16parse_int_string0B9_
FN:12,_RNvNtNtNtCsjTRrhfWa0WU_13eldritch_core11interpreter8builtins3int11builtin_int
FN:54,_RNvNtNtNtCsjTRrhfWa0WU_13eldritch_core11interpreter8builtins3int16parse_int_string
FN:93,_RNCNvNtNtNtCs3OupGlkSanV_13eldritch_core11interpreter8builtins3int16parse_int_string0B9_
FN:12,_RNvNtNtNtCs3OupGlkSanV_13eldritch_core11interpreter8builtins3int11builtin_int
FN:54,_RNvNtNtNtCs3OupGlkSanV_13eldritch_core11interpreter8builtins3int16parse_int_string
FNDA:3,_RNCNvNtNtNtCsjTRrhfWa0WU_13eldritch_core11interpreter8builtins3int16parse_int_string0B9_
FNDA:28,_RNvNtNtNtCsjTRrhfWa0WU_13eldritch_core11interpreter8builtins3int11builtin_int
FNDA:22,_RNvNtNtNtCsjTRrhfWa0WU_13eldritch_core11interpreter8builtins3int16parse_int_string
FNDA:0,_RNCNvNtNtNtCs3OupGlkSanV_13eldritch_core11interpreter8builtins3int16parse_int_string0B9_
FNDA:0,_RNvNtNtNtCs3OupGlkSanV_13eldritch_core11interpreter8builtins3int11builtin_int
FNDA:0,_RNvNtNtNtCs3OupGlkSanV_13eldritch_core11interpreter8builtins3int16parse_int_string
FNF:3
FNH:3
DA:12,28
DA:13,28
DA:14,0
DA:15,28
DA:16,28
DA:17,0
DA:18,0
DA:19,0
DA:20,0
DA:21,28
DA:23,28
DA:24,28
DA:25,16
DA:26,16
DA:27,0
DA:30,12
DA:33,28
DA:35,16
DA:36,14
DA:37,2
DA:41,12
DA:42,0
DA:43,3
DA:44,0
DA:45,8
DA:46,1
DA:47,1
DA:48,1
DA:49,1
DA:52,28
DA:54,22
DA:55,22
DA:56,2
DA:57,20
DA:59,20
DA:60,20
DA:61,3
DA:62,17
DA:63,0
DA:65,17
DA:68,20
DA:69,4
DA:70,1
DA:71,3
DA:72,1
DA:73,2
DA:74,1
DA:76,1
DA:79,16
DA:82,20
DA:83,20
DA:84,3
DA:85,17
DA:86,1
DA:87,16
DA:88,1
DA:90,15
DA:93,20
DA:94,3
DA:95,2
DA:97,1
DA:99,3
DA:101,17
DA:106,3
DA:107,0
DA:108,0
DA:109,0
DA:110,0
DA:111,3
DA:113,3
DA:115,14
DA:116,0
DA:117,14
DA:118,14
DA:120,22
BRF:0
BRH:0
LF:77
LH:63
end_of_record
SF:/app/implants/lib/eldritch/eldritch-core/src/interpreter/builtins/len.rs
FN:11,_RNvNtNtNtCsjTRrhfWa0WU_13eldritch_core11interpreter8builtins3len11builtin_len
FN:11,_RNvNtNtNtCs3OupGlkSanV_13eldritch_core11interpreter8builtins3len11builtin_len
FNDA:80,_RNvNtNtNtCsjTRrhfWa0WU_13eldritch_core11interpreter8builtins3len11builtin_len
FNDA:0,_RNvNtNtNtCs3OupGlkSanV_13eldritch_core11interpreter8builtins3len11builtin_len
FNF:1
FNH:1
DA:11,80
DA:12,80
DA:13,1
DA:14,1
DA:15,1
DA:16,1
DA:17,79
DA:18,79
DA:19,3
DA:20,4
DA:21,19
DA:22,11
DA:23,5
DA:24,34
DA:25,3
DA:26,3
DA:27,3
DA:28,3
DA:30,80
BRF:0
BRH:0
LF:19
LH:19
end_of_record
SF:/app/implants/lib/eldritch/eldritch-core/src/interpreter/builtins/libs.rs
FN:12,_RNvNtNtNtCsjTRrhfWa0WU_13eldritch_core11interpreter8builtins4libs12builtin_libs
FN:12,_RNvNtNtNtCs3OupGlkSanV_13eldritch_core11interpreter8builtins4libs12builtin_libs
FNDA:1,_RNvNtNtNtCsjTRrhfWa0WU_13eldritch_core11interpreter8builtins4libs12builtin_libs
FNDA:0,_RNvNtNtNtCs3OupGlkSanV_13eldritch_core11interpreter8builtins4libs12builtin_libs
FNF:1
FNH:1
DA:12,1
DA:13,1
DA:14,0
DA:15,1
DA:17,1
DA:18,1
DA:20,2
DA:21,1
DA:22,1
DA:23,0
DA:24,0
DA:25,1
DA:28,1
DA:29,1
DA:30,1
BRF:0
BRH:0
LF:15
LH:12
end_of_record
SF:/app/implants/lib/eldritch/eldritch-core/src/interpreter/builtins/list.rs
FN:28,_RNCNvNtNtNtCsjTRrhfWa0WU_13eldritch_core11interpreter8builtins4list12builtin_list0B9_
FN:14,_RNvNtNtNtCsjTRrhfWa0WU_13eldritch_core11interpreter8builtins4list12builtin_list
FN:28,_RNCNvNtNtNtCs3OupGlkSanV_13eldritch_core11interpreter8builtins4list12builtin_list0B9_
FN:14,_RNvNtNtNtCs3OupGlkSanV_13eldritch_core11interpreter8builtins4list12builtin_list
FNDA:0,_RNCNvNtNtNtCsjTRrhfWa0WU_13eldritch_core11interpreter8builtins4list12builtin_list0B9_
FNDA:6,_RNvNtNtNtCsjTRrhfWa0WU_13eldritch_core11interpreter8builtins4list12builtin_list
FNDA:0,_RNCNvNtNtNtCs3OupGlkSanV_13eldritch_core11interpreter8builtins4list12builtin_list0B9_
FNDA:0,_RNvNtNtNtCs3OupGlkSanV_13eldritch_core11interpreter8builtins4list12builtin_list
FNF:2
FNH:1
DA:14,6
DA:15,6
DA:16,0
DA:17,6
DA:18,6
DA:19,1
DA:20,1
DA:21,1
DA:22,1
DA:23,5
DA:25,5
DA:26,1
DA:27,2
DA:28,0
DA:29,1
DA:30,0
DA:32,1
DA:33,1
DA:34,1
DA:35,1
DA:39,4
DA:40,6
BRF:0
BRH:0
LF:23
LH:19
end_of_record
SF:/app/implants/lib/eldritch/eldritch-core/src/interpreter/builtins/map.rs
FN:11,_RNvNtNtNtCsjTRrhfWa0WU_13eldritch_core11interpreter8builtins3map11builtin_map
FN:11,_RNvNtNtNtCs3OupGlkSanV_13eldritch_core11interpreter8builtins3map11builtin_map
FNDA:1,_RNvNtNtNtCsjTRrhfWa0WU_13eldritch_core11interpreter8builtins3map11builtin_map
FNDA:0,_RNvNtNtNtCs3OupGlkSanV_13eldritch_core11interpreter8builtins3map11builtin_map
FNF:1
FNH:1
DA:11,1
DA:12,1
DA:13,1
DA:14,1
DA:15,1
DA:16,1
DA:17,0
DA:18,0
DA:19,0
DA:20,0
DA:22,1
DA:23,1
DA:24,1
DA:26,1
DA:27,1
DA:29,4
DA:30,3
DA:31,3
DA:34,1
DA:35,1
BRF:0
BRH:0
LF:20
LH:16
end_of_record
SF:/app/implants/lib/eldritch/eldritch-core/src/interpreter/builtins/max.rs
FN:25,_RNCNvNtNtNtCsjTRrhfWa0WU_13eldritch_core11interpreter8builtins3max11builtin_max0B9_
FN:15,_RNvNtNtNtCsjTRrhfWa0WU_13eldritch_core11interpreter8builtins3max11builtin_max
FN:25,_RNCNvNtNtNtCs3OupGlkSanV_13eldritch_core11interpreter8builtins3max11builtin_max0B9_
FN:15,_RNvNtNtNtCs3OupGlkSanV_13eldritch_core11interpreter8builtins3max11builtin_max
FNDA:0,_RNCNvNtNtNtCsjTRrhfWa0WU_13eldritch_core11interpreter8builtins3max11builtin_max0B9_
FNDA:24,_RNvNtNtNtCsjTRrhfWa0WU_13eldritch_core11interpreter8builtins3max11builtin_max
FNDA:0,_RNCNvNtNtNtCs3OupGlkSanV_13eldritch_core11interpreter8builtins3max11builtin_max0B9_
FNDA:0,_RNvNtNtNtCs3OupGlkSanV_13eldritch_core11interpreter8builtins3max11builtin_max
FNF:2
FNH:1
DA:15,24
DA:16,24
DA:17,2
DA:18,22
DA:20,22
DA:21,6
DA:22,4
DA:23,0
DA:24,0
DA:25,0
DA:26,0
DA:28,2
DA:29,2
DA:30,2
DA:31,2
DA:35,16
DA:38,20
DA:39,1
DA:40,19
DA:42,19
DA:43,25
DA:44,25
DA:45,15
DA:46,15
DA:49,19
DA:50,24
BRF:0
BRH:0
LF:27
LH:22
end_of_record
SF:/app/implants/lib/eldritch/eldritch-core/src/interpreter/builtins/min.rs
FN:15,_RNvNtNtNtCsjTRrhfWa0WU_13eldritch_core11interpreter8builtins3min11builtin_min
FN:25,_RNCNvNtNtNtCsjTRrhfWa0WU_13eldritch_core11interpreter8builtins3min11builtin_min0B9_
FN:25,_RNCNvNtNtNtCs3OupGlkSanV_13eldritch_core11interpreter8builtins3min11builtin_min0B9_
FN:15,_RNvNtNtNtCs3OupGlkSanV_13eldritch_core11interpreter8builtins3min11builtin_min
FNDA:24,_RNvNtNtNtCsjTRrhfWa0WU_13eldritch_core11interpreter8builtins3min11builtin_min
FNDA:0,_RNCNvNtNtNtCsjTRrhfWa0WU_13eldritch_core11interpreter8builtins3min11builtin_min0B9_
FNDA:0,_RNCNvNtNtNtCs3OupGlkSanV_13eldritch_core11interpreter8builtins3min11builtin_min0B9_
FNDA:0,_RNvNtNtNtCs3OupGlkSanV_13eldritch_core11interpreter8builtins3min11builtin_min
FNF:2
FNH:1
DA:15,24
DA:16,24
DA:17,2
DA:18,22
DA:20,22
DA:21,6
DA:22,4
DA:23,0
DA:24,0
DA:25,0
DA:26,0
DA:28,2
DA:29,2
DA:30,2
DA:31,2
DA:35,16
DA:38,20
DA:39,1
DA:40,19
DA:42,19
DA:43,25
DA:44,25
DA:45,8
DA:46,17
DA:49,19
DA:50,24
BRF:0
BRH:0
LF:27
LH:22
end_of_record
SF:/app/implants/lib/eldritch/eldritch-core/src/interpreter/builtins/mod.rs
FN:96,_RNvNtNtCsjTRrhfWa0WU_13eldritch_core11interpreter8builtins12builtin_stub
FN:50,_RNvNtNtCsjTRrhfWa0WU_13eldritch_core11interpreter8builtins16get_all_builtins
FN:91,_RNvNtNtCsjTRrhfWa0WU_13eldritch_core11interpreter8builtins28get_all_builtins_with_kwargs
FN:103,_RNvNtNtCsjTRrhfWa0WU_13eldritch_core11interpreter8builtins9get_stubs
FN:96,_RNvNtNtCs3OupGlkSanV_13eldritch_core11interpreter8builtins12builtin_stub
FN:50,_RNvNtNtCs3OupGlkSanV_13eldritch_core11interpreter8builtins16get_all_builtins
FN:91,_RNvNtNtCs3OupGlkSanV_13eldritch_core11interpreter8builtins28get_all_builtins_with_kwargs
FN:103,_RNvNtNtCs3OupGlkSanV_13eldritch_core11interpreter8builtins9get_stubs
FNDA:0,_RNvNtNtCsjTRrhfWa0WU_13eldritch_core11interpreter8builtins12builtin_stub
FNDA:623,_RNvNtNtCsjTRrhfWa0WU_13eldritch_core11interpreter8builtins16get_all_builtins
FNDA:622,_RNvNtNtCsjTRrhfWa0WU_13eldritch_core11interpreter8builtins28get_all_builtins_with_kwargs
FNDA:622,_RNvNtNtCsjTRrhfWa0WU_13eldritch_core11interpreter8builtins9get_stubs
FNDA:0,_RNvNtNtCs3OupGlkSanV_13eldritch_core11interpreter8builtins12builtin_stub
FNDA:6,_RNvNtNtCs3OupGlkSanV_13eldritch_core11interpreter8builtins16get_all_builtins
FNDA:6,_RNvNtNtCs3OupGlkSanV_13eldritch_core11interpreter8builtins28get_all_builtins_with_kwargs
FNDA:6,_RNvNtNtCs3OupGlkSanV_13eldritch_core11interpreter8builtins9get_stubs
FNF:4
FNH:3
DA:50,629
DA:51,629
DA:53,629
DA:54,629
DA:55,629
DA:56,629
DA:57,629
DA:58,629
DA:59,629
DA:60,629
DA:61,629
DA:62,629
DA:63,629
DA:64,629
DA:65,629
DA:66,629
DA:67,629
DA:68,629
DA:69,629
DA:70,629
DA:71,629
DA:72,629
DA:74,629
DA:75,629
DA:76,629
DA:77,629
DA:78,629
DA:79,629
DA:80,629
DA:81,629
DA:82,629
DA:83,629
DA:84,629
DA:85,629
DA:86,629
DA:88,629
DA:91,628
DA:92,628
DA:93,628
DA:96,0
DA:97,0
DA:98,0
DA:99,0
DA:100,0
DA:101,0
DA:103,628
DA:104,628
DA:105,628
DA:106,628
DA:107,628
DA:108,628
DA:109,628
DA:111,628
BRF:0
BRH:0
LF:53
LH:47
end_of_record
SF:/app/implants/lib/eldritch/eldritch-core/src/interpreter/builtins/ord.rs
FN:12,_RNvNtNtNtCsjTRrhfWa0WU_13eldritch_core11interpreter8builtins3ord11builtin_ord
FN:12,_RNvNtNtNtCs3OupGlkSanV_13eldritch_core11interpreter8builtins3ord11builtin_ord
FNDA:8,_RNvNtNtNtCsjTRrhfWa0WU_13eldritch_core11interpreter8builtins3ord11builtin_ord
FNDA:0,_RNvNtNtNtCs3OupGlkSanV_13eldritch_core11interpreter8builtins3ord11builtin_ord
FNF:1
FNH:1
DA:12,8
DA:13,8
DA:14,0
DA:15,0
DA:16,0
DA:17,0
DA:18,8
DA:19,8
DA:20,5
DA:21,5
DA:22,5
DA:23,4
DA:25,3
DA:26,2
DA:27,2
DA:28,2
DA:29,2
DA:30,2
DA:32,2
DA:33,2
DA:34,1
DA:36,1
DA:37,1
DA:38,1
DA:39,1
DA:42,1
DA:43,1
DA:44,1
DA:45,1
DA:47,8
BRF:0
BRH:0
LF:30
LH:26
end_of_record
SF:/app/implants/lib/eldritch/eldritch-core/src/interpreter/builtins/pprint.rs
FN:35,_RNvNtNtNtCsjTRrhfWa0WU_13eldritch_core11interpreter8builtins6pprint13pretty_format
FN:12,_RNvNtNtNtCsjTRrhfWa0WU_13eldritch_core11interpreter8builtins6pprint14builtin_pprint
FN:35,_RNvNtNtNtCs3OupGlkSanV_13eldritch_core11interpreter8builtins6pprint13pretty_format
FN:12,_RNvNtNtNtCs3OupGlkSanV_13eldritch_core11interpreter8builtins6pprint14builtin_pprint
FNDA:16,_RNvNtNtNtCsjTRrhfWa0WU_13eldritch_core11interpreter8builtins6pprint13pretty_format
FNDA:4,_RNvNtNtNtCsjTRrhfWa0WU_13eldritch_core11interpreter8builtins6pprint14builtin_pprint
FNDA:0,_RNvNtNtNtCs3OupGlkSanV_13eldritch_core11interpreter8builtins6pprint13pretty_format
FNDA:0,_RNvNtNtNtCs3OupGlkSanV_13eldritch_core11interpreter8builtins6pprint14builtin_pprint
FNF:2
FNH:2
DA:12,4
DA:13,4
DA:14,1
DA:15,1
DA:16,0
DA:19,3
DA:22,4
DA:23,1
DA:24,3
DA:26,3
DA:27,3
DA:30,3
DA:32,3
DA:33,4
DA:35,16
DA:36,16
DA:37,2
DA:38,2
DA:39,2
DA:40,0
DA:41,0
DA:42,2
DA:43,2
DA:45,2
DA:46,2
DA:48,6
DA:49,6
DA:50,6
DA:51,6
DA:52,4
DA:53,4
DA:54,6
DA:56,2
DA:57,2
DA:58,2
DA:60,5
DA:61,5
DA:62,5
DA:63,0
DA:64,0
DA:65,5
DA:66,5
DA:68,5
DA:69,5
DA:71,7
DA:72,7
DA:73,7
DA:74,7
DA:75,7
DA:76,2
DA:77,5
DA:78,7
DA:80,5
DA:81,5
DA:82,5
DA:84,0
DA:85,0
DA:86,0
DA:87,0
DA:88,0
DA:89,0
DA:91,0
DA:92,0
DA:94,0
DA:95,0
DA:96,0
DA:97,0
DA:98,0
DA:99,0
DA:100,0
DA:102,0
DA:103,0
DA:104,0
DA:106,0
DA:107,0
DA:108,0
DA:109,0
DA:110,0
DA:111,0
DA:112,0
DA:114,0
DA:115,0
DA:117,0
DA:118,0
DA:119,0
DA:120,0
DA:121,0
DA:122,0
DA:123,0
DA:125,0
DA:126,0
DA:127,0
DA:129,0
DA:130,9
DA:132,16
BRF:0
BRH:0
LF:95
LH:52
end_of_record
SF:/app/implants/lib/eldritch/eldritch-core/src/interpreter/builtins/print.rs
FN:11,_RNvNtNtNtCsjTRrhfWa0WU_13eldritch_core11interpreter8builtins5print13builtin_print
FN:11,_RNvNtNtNtCs3OupGlkSanV_13eldritch_core11interpreter8builtins5print13builtin_print
FNDA:35,_RNvNtNtNtCsjTRrhfWa0WU_13eldritch_core11interpreter8builtins5print13builtin_print
FNDA:0,_RNvNtNtNtCs3OupGlkSanV_13eldritch_core11interpreter8builtins5print13builtin_print
FNF:1
FNH:1
DA:11,35
DA:12,35
DA:13,37
DA:14,37
DA:15,2
DA:16,35
DA:17,37
DA:21,35
DA:22,35
DA:23,35
BRF:0
BRH:0
LF:10
LH:10
end_of_record
SF:/app/implants/lib/eldritch/eldritch-core/src/interpreter/builtins/range.rs
FN:13,_RNvNtNtNtCsjTRrhfWa0WU_13eldritch_core11interpreter8builtins5range13builtin_range
FN:13,_RNvNtNtNtCs3OupGlkSanV_13eldritch_core11interpreter8builtins5range13builtin_range
FNDA:29,_RNvNtNtNtCsjTRrhfWa0WU_13eldritch_core11interpreter8builtins5range13builtin_range
FNDA:0,_RNvNtNtNtCs3OupGlkSanV_13eldritch_core11interpreter8builtins5range13builtin_range
FNF:1
FNH:1
DA:13,29
DA:14,21
DA:15,12
DA:16,3
DA:17,6
DA:18,8
DA:20,21
DA:21,2
DA:22,19
DA:24,19
DA:25,19
DA:26,19
DA:27,109
DA:28,92
DA:29,92
DA:30,92
DA:32,7
DA:33,5
DA:34,5
DA:35,5
DA:37,19
DA:38,29
BRF:0
BRH:0
LF:22
LH:22
end_of_record
SF:/app/implants/lib/eldritch/eldritch-core/src/interpreter/builtins/reduce.rs
FN:8,_RNvNtNtNtCsjTRrhfWa0WU_13eldritch_core11interpreter8builtins6reduce14builtin_reduce
FN:8,_RNvNtNtNtCs3OupGlkSanV_13eldritch_core11interpreter8builtins6reduce14builtin_reduce
FNDA:3,_RNvNtNtNtCsjTRrhfWa0WU_13eldritch_core11interpreter8builtins6reduce14builtin_reduce
FNDA:0,_RNvNtNtNtCs3OupGlkSanV_13eldritch_core11interpreter8builtins6reduce14builtin_reduce
FNF:1
FNH:1
DA:8,3
DA:9,3
DA:10,3
DA:11,3
DA:12,3
DA:13,3
DA:14,0
DA:15,0
DA:16,0
DA:17,0
DA:19,3
DA:20,3
DA:21,3
DA:22,3
DA:24,3
DA:25,1
DA:27,2
DA:28,1
DA:30,1
DA:31,1
DA:32,1
DA:33,1
DA:39,9
DA:40,7
DA:42,2
DA:43,3
BRF:0
BRH:0
LF:26
LH:22
end_of_record
SF:/app/implants/lib/eldritch/eldritch-core/src/interpreter/builtins/repr.rs
FN:7,_RNvNtNtNtCsjTRrhfWa0WU_13eldritch_core11interpreter8builtins4repr12builtin_repr
FN:7,_RNvNtNtNtCs3OupGlkSanV_13eldritch_core11interpreter8builtins4repr12builtin_repr
FNDA:1,_RNvNtNtNtCsjTRrhfWa0WU_13eldritch_core11interpreter8builtins4repr12builtin_repr
FNDA:0,_RNvNtNtNtCs3OupGlkSanV_13eldritch_core11interpreter8builtins4repr12builtin_repr
FNF:1
FNH:1
DA:7,1
DA:8,1
DA:9,0
DA:10,0
DA:11,0
DA:12,0
DA:13,1
DA:26,1
DA:27,1
DA:28,0
DA:30,1
BRF:0
BRH:0
LF:11
LH:6
end_of_record
SF:/app/implants/lib/eldritch/eldritch-core/src/interpreter/builtins/reversed.rs
FN:15,_RNvNtNtNtCsjTRrhfWa0WU_13eldritch_core11interpreter8builtins8reversed16builtin_reversed
FN:26,_RNCNvNtNtNtCsjTRrhfWa0WU_13eldritch_core11interpreter8builtins8reversed16builtin_reversed0B9_
FN:26,_RNCNvNtNtNtCs3OupGlkSanV_13eldritch_core11interpreter8builtins8reversed16builtin_reversed0B9_
FN:15,_RNvNtNtNtCs3OupGlkSanV_13eldritch_core11interpreter8builtins8reversed16builtin_reversed
FNDA:15,_RNvNtNtNtCsjTRrhfWa0WU_13eldritch_core11interpreter8builtins8reversed16builtin_reversed
FNDA:3,_RNCNvNtNtNtCsjTRrhfWa0WU_13eldritch_core11interpreter8builtins8reversed16builtin_reversed0B9_
FNDA:0,_RNCNvNtNtNtCs3OupGlkSanV_13eldritch_core11interpreter8builtins8reversed16builtin_reversed0B9_
FNDA:0,_RNvNtNtNtCs3OupGlkSanV_13eldritch_core11interpreter8builtins8reversed16builtin_reversed
FNF:2
FNH:2
DA:15,15
DA:16,15
DA:17,3
DA:18,3
DA:19,3
DA:20,3
DA:21,12
DA:23,12
DA:24,4
DA:25,2
DA:26,3
DA:29,4
DA:30,4
DA:31,4
DA:32,4
DA:36,8
DA:37,8
DA:40,8
DA:41,15
BRF:0
BRH:0
LF:20
LH:20
end_of_record
SF:/app/implants/lib/eldritch/eldritch-core/src/interpreter/builtins/set.rs
FN:29,_RNCNvNtNtNtCsjTRrhfWa0WU_13eldritch_core11interpreter8builtins3set11builtin_set0B9_
FN:15,_RNvNtNtNtCsjTRrhfWa0WU_13eldritch_core11interpreter8builtins3set11builtin_set
FN:15,_RNvNtNtNtCs3OupGlkSanV_13eldritch_core11interpreter8builtins3set11builtin_set
FN:29,_RNCNvNtNtNtCs3OupGlkSanV_13eldritch_core11interpreter8builtins3set11builtin_set0B9_
FNDA:0,_RNCNvNtNtNtCsjTRrhfWa0WU_13eldritch_core11interpreter8builtins3set11builtin_set0B9_
FNDA:18,_RNvNtNtNtCsjTRrhfWa0WU_13eldritch_core11interpreter8builtins3set11builtin_set
FNDA:0,_RNvNtNtNtCs3OupGlkSanV_13eldritch_core11interpreter8builtins3set11builtin_set
FNDA:0,_RNCNvNtNtNtCs3OupGlkSanV_13eldritch_core11interpreter8builtins3set11builtin_set0B9_
FNF:2
FNH:1
DA:15,18
DA:16,18
DA:17,14
DA:18,4
DA:19,4
DA:20,1
DA:21,1
DA:22,1
DA:23,1
DA:24,3
DA:26,3
DA:27,2
DA:28,0
DA:29,0
DA:30,0
DA:31,0
DA:33,1
DA:34,1
DA:35,1
DA:36,1
DA:41,2
DA:42,10
DA:43,8
DA:44,8
DA:45,8
DA:46,8
DA:47,8
DA:49,2
DA:50,18
BRF:0
BRH:0
LF:30
LH:25
end_of_record
SF:/app/implants/lib/eldritch/eldritch-core/src/interpreter/builtins/sorted.rs
FN:14,_RNvNtNtNtCsjTRrhfWa0WU_13eldritch_core11interpreter8builtins6sorted14builtin_sorted
FN:57,_RNCNvNtNtNtCsjTRrhfWa0WU_13eldritch_core11interpreter8builtins6sorted14builtin_sorted0B9_
FN:85,_RNCNvNtNtNtCsjTRrhfWa0WU_13eldritch_core11interpreter8builtins6sorted14builtin_sorteds_0B9_
FN:57,_RNCNvNtNtNtCs3OupGlkSanV_13eldritch_core11interpreter8builtins6sorted14builtin_sorted0B9_
FN:85,_RNCNvNtNtNtCs3OupGlkSanV_13eldritch_core11interpreter8builtins6sorted14builtin_sorteds_0B9_
FN:14,_RNvNtNtNtCs3OupGlkSanV_13eldritch_core11interpreter8builtins6sorted14builtin_sorted
FNDA:4,_RNvNtNtNtCsjTRrhfWa0WU_13eldritch_core11interpreter8builtins6sorted14builtin_sorted
FNDA:1,_RNCNvNtNtNtCsjTRrhfWa0WU_13eldritch_core11interpreter8builtins6sorted14builtin_sorted0B9_
FNDA:0,_RNCNvNtNtNtCsjTRrhfWa0WU_13eldritch_core11interpreter8builtins6sorted14builtin_sorteds_0B9_
FNDA:0,_RNCNvNtNtNtCs3OupGlkSanV_13eldritch_core11interpreter8builtins6sorted14builtin_sorted0B9_
FNDA:0,_RNCNvNtNtNtCs3OupGlkSanV_13eldritch_core11interpreter8builtins6sorted14builtin_sorteds_0B9_
FNDA:0,_RNvNtNtNtCs3OupGlkSanV_13eldritch_core11interpreter8builtins6sorted14builtin_sorted
FNF:3
FNH:2
DA:14,4
DA:15,4
DA:16,4
DA:17,4
DA:18,4
DA:19,4
DA:20,4
DA:21,4
DA:23,7
DA:24,3
DA:25,3
DA:26,3
DA:27,3
DA:28,3
DA:29,0
DA:30,0
DA:31,0
DA:32,0
DA:36,0
DA:37,0
DA:38,0
DA:40,0
DA:41,0
DA:42,0
DA:43,0
DA:48,0
DA:49,0
DA:50,0
DA:51,0
DA:57,4
DA:58,1
DA:59,1
DA:60,1
DA:61,1
DA:62,1
DA:64,1
DA:65,1
DA:67,3
DA:68,3
DA:71,2
DA:72,0
DA:73,0
DA:74,0
DA:75,0
DA:76,0
DA:78,0
DA:79,0
DA:80,0
DA:81,0
DA:85,0
DA:88,0
DA:90,2
DA:91,2
DA:92,2
DA:95,2
DA:96,0
DA:97,0
DA:98,0
DA:99,0
DA:100,2
DA:102,2
DA:103,4
BRF:0
BRH:0
LF:65
LH:34
end_of_record
SF:/app/implants/lib/eldritch/eldritch-core/src/interpreter/builtins/str.rs
FN:11,_RNvNtNtNtCsjTRrhfWa0WU_13eldritch_core11interpreter8builtins3str11builtin_str
FN:11,_RNvNtNtNtCs3OupGlkSanV_13eldritch_core11interpreter8builtins3str11builtin_str
FNDA:18,_RNvNtNtNtCsjTRrhfWa0WU_13eldritch_core11interpreter8builtins3str11builtin_str
FNDA:0,_RNvNtNtNtCs3OupGlkSanV_13eldritch_core11interpreter8builtins3str11builtin_str
FNF:1
FNH:1
DA:11,18
DA:12,18
DA:13,0
DA:14,18
DA:15,18
DA:16,5
DA:17,5
DA:18,0
DA:21,13
DA:23,18
BRF:0
BRH:0
LF:10
LH:8
end_of_record
SF:/app/implants/lib/eldritch/eldritch-core/src/interpreter/builtins/tprint.rs
FN:63,_RNCNvNtNtNtCsjTRrhfWa0WU_13eldritch_core11interpreter8builtins6tprint14builtin_tprint0B9_
FN:95,_RNCNvNtNtNtCsjTRrhfWa0WU_13eldritch_core11interpreter8builtins6tprint14builtin_tprints_0B9_
FN:11,_RNvNtNtNtCsjTRrhfWa0WU_13eldritch_core11interpreter8builtins6tprint14builtin_tprint
FN:11,_RNvNtNtNtCs3OupGlkSanV_13eldritch_core11interpreter8builtins6tprint14builtin_tprint
FN:63,_RNCNvNtNtNtCs3OupGlkSanV_13eldritch_core11interpreter8builtins6tprint14builtin_tprint0B9_
FN:95,_RNCNvNtNtNtCs3OupGlkSanV_13eldritch_core11interpreter8builtins6tprint14builtin_tprints_0B9_
FNDA:17,_RNCNvNtNtNtCsjTRrhfWa0WU_13eldritch_core11interpreter8builtins6tprint14builtin_tprint0B9_
FNDA:17,_RNCNvNtNtNtCsjTRrhfWa0WU_13eldritch_core11interpreter8builtins6tprint14builtin_tprints_0B9_
FNDA:9,_RNvNtNtNtCsjTRrhfWa0WU_13eldritch_core11interpreter8builtins6tprint14builtin_tprint
FNDA:0,_RNvNtNtNtCs3OupGlkSanV_13eldritch_core11interpreter8builtins6tprint14builtin_tprint
FNDA:0,_RNCNvNtNtNtCs3OupGlkSanV_13eldritch_core11interpreter8builtins6tprint14builtin_tprint0B9_
FNDA:0,_RNCNvNtNtNtCs3OupGlkSanV_13eldritch_core11interpreter8builtins6tprint14builtin_tprints_0B9_
FNF:3
FNH:3
DA:11,9
DA:12,9
DA:13,1
DA:14,8
DA:16,8
DA:17,8
DA:18,7
DA:19,1
DA:22,7
DA:23,1
DA:24,6
DA:27,6
DA:28,6
DA:30,20
DA:31,15
DA:32,14
DA:34,14
DA:35,14
DA:36,31
DA:37,17
DA:38,17
DA:39,17
DA:40,17
DA:41,17
DA:42,17
DA:43,14
DA:45,1
DA:49,5
DA:50,1
DA:51,4
DA:53,4
DA:56,4
DA:57,12
DA:58,8
DA:59,8
DA:61,16
DA:62,34
DA:63,22
DA:64,22
DA:65,22
DA:69,4
DA:72,4
DA:73,12
DA:74,8
DA:75,8
DA:76,8
DA:77,4
DA:80,4
DA:81,12
DA:82,8
DA:83,8
DA:84,8
DA:85,8
DA:86,8
DA:87,8
DA:88,4
DA:91,16
DA:92,12
DA:93,34
DA:94,22
DA:95,22
DA:96,22
DA:98,12
DA:101,4
DA:103,4
DA:104,9
BRF:0
BRH:0
LF:68
LH:68
end_of_record
SF:/app/implants/lib/eldritch/eldritch-core/src/interpreter/builtins/tuple.rs
FN:28,_RNCNvNtNtNtCsjTRrhfWa0WU_13eldritch_core11interpreter8builtins5tuple13builtin_tuple0B9_
FN:14,_RNvNtNtNtCsjTRrhfWa0WU_13eldritch_core11interpreter8builtins5tuple13builtin_tuple
FN:14,_RNvNtNtNtCs3OupGlkSanV_13eldritch_core11interpreter8builtins5tuple13builtin_tuple
FN:28,_RNCNvNtNtNtCs3OupGlkSanV_13eldritch_core11interpreter8builtins5tuple13builtin_tuple0B9_
FNDA:0,_RNCNvNtNtNtCsjTRrhfWa0WU_13eldritch_core11interpreter8builtins5tuple13builtin_tuple0B9_
FNDA:4,_RNvNtNtNtCsjTRrhfWa0WU_13eldritch_core11interpreter8builtins5tuple13builtin_tuple
FNDA:0,_RNvNtNtNtCs3OupGlkSanV_13eldritch_core11interpreter8builtins5tuple13builtin_tuple
FNDA:0,_RNCNvNtNtNtCs3OupGlkSanV_13eldritch_core11interpreter8builtins5tuple13builtin_tuple0B9_
FNF:2
FNH:1
DA:14,4
DA:15,4
DA:16,0
DA:17,4
DA:18,4
DA:19,1
DA:20,1
DA:21,1
DA:22,1
DA:23,3
DA:25,3
DA:26,2
DA:27,0
DA:28,0
DA:29,0
DA:30,0
DA:32,1
DA:33,1
DA:34,1
DA:35,1
DA:39,2
DA:40,4
BRF:0
BRH:0
LF:23
LH:17
end_of_record
SF:/app/implants/lib/eldritch/eldritch-core/src/interpreter/builtins/type_.rs
FN:10,_RNvNtNtNtCsjTRrhfWa0WU_13eldritch_core11interpreter8builtins5type_12builtin_type
FN:10,_RNvNtNtNtCs3OupGlkSanV_13eldritch_core11interpreter8builtins5type_12builtin_type
FNDA:24,_RNvNtNtNtCsjTRrhfWa0WU_13eldritch_core11interpreter8builtins5type_12builtin_type
FNDA:0,_RNvNtNtNtCs3OupGlkSanV_13eldritch_core11interpreter8builtins5type_12builtin_type
FNF:1
FNH:1
DA:10,24
DA:11,24
DA:12,2
DA:13,22
DA:14,22
DA:15,24
BRF:0
BRH:0
LF:6
LH:6
end_of_record
SF:/app/implants/lib/eldritch/eldritch-core/src/interpreter/builtins/zip.rs
FN:27,_RNCNvNtNtNtCsjTRrhfWa0WU_13eldritch_core11interpreter8builtins3zip11builtin_zip0B9_
FN:35,_RNCNvNtNtNtCsjTRrhfWa0WU_13eldritch_core11interpreter8builtins3zip11builtin_zips_0B9_
FN:17,_RNvNtNtNtCsjTRrhfWa0WU_13eldritch_core11interpreter8builtins3zip11builtin_zip
FN:17,_RNvNtNtNtCs3OupGlkSanV_13eldritch_core11interpreter8builtins3zip11builtin_zip
FN:27,_RNCNvNtNtNtCs3OupGlkSanV_13eldritch_core11interpreter8builtins3zip11builtin_zip0B9_
FN:35,_RNCNvNtNtNtCs3OupGlkSanV_13eldritch_core11interpreter8builtins3zip11builtin_zips_0B9_
FNDA:2,_RNCNvNtNtNtCsjTRrhfWa0WU_13eldritch_core11interpreter8builtins3zip11builtin_zip0B9_
FNDA:20,_RNCNvNtNtNtCsjTRrhfWa0WU_13eldritch_core11interpreter8builtins3zip11builtin_zips_0B9_
FNDA:15,_RNvNtNtNtCsjTRrhfWa0WU_13eldritch_core11interpreter8builtins3zip11builtin_zip
FNDA:0,_RNvNtNtNtCs3OupGlkSanV_13eldritch_core11interpreter8builtins3zip11builtin_zip
FNDA:0,_RNCNvNtNtNtCs3OupGlkSanV_13eldritch_core11interpreter8builtins3zip11builtin_zip0B9_
FNDA:0,_RNCNvNtNtNtCs3OupGlkSanV_13eldritch_core11interpreter8builtins3zip11builtin_zips_0B9_
FNF:3
FNH:3
DA:17,15
DA:18,15
DA:19,2
DA:20,13
DA:22,13
DA:23,34
DA:24,24
DA:25,17
DA:26,1
DA:27,2
DA:28,1
DA:29,1
DA:30,3
DA:32,21
DA:35,20
DA:36,10
DA:38,16
DA:39,16
DA:40,50
DA:41,34
DA:42,34
DA:43,16
DA:46,10
DA:47,15
BRF:0
BRH:0
LF:26
LH:26
end_of_record
SF:/app/implants/lib/eldritch/eldritch-core/src/interpreter/core.rs
FN:152,_RINvMs0_NtNtCsjTRrhfWa0WU_13eldritch_core11interpreter4coreNtB6_11Interpreter13runtime_errorNtNtBa_3ast5ValueEBa_
FN:152,_RINvMs0_NtNtCsjTRrhfWa0WU_13eldritch_core11interpreter4coreNtB6_11Interpreter13runtime_erroruEBa_
FN:125,_RINvMs0_NtNtCsjTRrhfWa0WU_13eldritch_core11interpreter4coreNtB6_11Interpreter5errorINtNtCs456UZznmu7y_5alloc3vec3VecNtNtBa_3ast5ValueEEBa_
FN:125,_RINvMs0_NtNtCsjTRrhfWa0WU_13eldritch_core11interpreter4coreNtB6_11Interpreter5errorNtNtBa_3ast5ValueEBa_
FN:125,_RINvMs0_NtNtCsjTRrhfWa0WU_13eldritch_core11interpreter4coreNtB6_11Interpreter5errordEBa_
FN:125,_RINvMs0_NtNtCsjTRrhfWa0WU_13eldritch_core11interpreter4coreNtB6_11Interpreter5erroruEBa_
FN:125,_RINvMs0_NtNtCsjTRrhfWa0WU_13eldritch_core11interpreter4coreNtB6_11Interpreter5errorxEBa_
FN:369,_RNCNvMs0_NtNtCsjTRrhfWa0WU_13eldritch_core11interpreter4coreNtB7_11Interpreter8complete0Bb_
FN:515,_RNCNvMs0_NtNtCsjTRrhfWa0WU_13eldritch_core11interpreter4coreNtB7_11Interpreter8completes_0Bb_
FN:40,_RNvXNtNtCsjTRrhfWa0WU_13eldritch_core11interpreter4coreNtB2_11InterpreterNtNtNtCs4Vq2ZLagKfv_4core3ops4drop4Drop4drop
FN:156,_RNvMs0_NtNtCsjTRrhfWa0WU_13eldritch_core11interpreter4coreNtB5_11Interpreter10push_frame
FN:239,_RNvMs0_NtNtCsjTRrhfWa0WU_13eldritch_core11interpreter4coreNtB5_11Interpreter12format_error
FN:82,_RNvMs0_NtNtCsjTRrhfWa0WU_13eldritch_core11interpreter4coreNtB5_11Interpreter13load_builtins
FN:282,_RNvMs0_NtNtCsjTRrhfWa0WU_13eldritch_core11interpreter4coreNtB5_11Interpreter15assign_variable
FN:299,_RNvMs0_NtNtCsjTRrhfWa0WU_13eldritch_core11interpreter4coreNtB5_11Interpreter15define_variable
FN:303,_RNvMs0_NtNtCsjTRrhfWa0WU_13eldritch_core11interpreter4coreNtB5_11Interpreter15lookup_variable
FN:109,_RNvMs0_NtNtCsjTRrhfWa0WU_13eldritch_core11interpreter4coreNtB5_11Interpreter15register_module
FN:61,_RNvMs0_NtNtCsjTRrhfWa0WU_13eldritch_core11interpreter4coreNtB5_11Interpreter16new_with_printer
FN:102,_RNvMs0_NtNtCsjTRrhfWa0WU_13eldritch_core11interpreter4coreNtB5_11Interpreter17register_function
FN:57,_RNvMs0_NtNtCsjTRrhfWa0WU_13eldritch_core11interpreter4coreNtB5_11Interpreter3new
FN:332,_RNvMs0_NtNtCsjTRrhfWa0WU_13eldritch_core11interpreter4coreNtB5_11Interpreter8complete
FN:178,_RNvMs0_NtNtCsjTRrhfWa0WU_13eldritch_core11interpreter4coreNtB5_11Interpreter9interpret
FN:169,_RNvMs0_NtNtCsjTRrhfWa0WU_13eldritch_core11interpreter4coreNtB5_11Interpreter9pop_frame
FN:51,_RNvXs_NtNtCsjTRrhfWa0WU_13eldritch_core11interpreter4coreNtB4_11InterpreterNtNtCs4Vq2ZLagKfv_4core7default7Default7default
FN:115,_RINvMs0_NtNtCsjTRrhfWa0WU_13eldritch_core11interpreter4coreNtB6_11Interpreter12register_libNtNtCs4WzB0igzGNX_17eldritch_libpivots_3std15StdPivotLibraryECs5NdDM4Gp1Qp_8eldritch
FN:115,_RINvMs0_NtNtCsjTRrhfWa0WU_13eldritch_core11interpreter4coreNtB6_11Interpreter12register_libNtNtCs4z0FbkCdo4s_19eldritch_libprocesss_3std17StdProcessLibraryECs5NdDM4Gp1Qp_8eldritch
FN:115,_RINvMs0_NtNtCsjTRrhfWa0WU_13eldritch_core11interpreter4coreNtB6_11Interpreter12register_libNtNtCs6MQ2kXofuUf_15eldritch_libsyss_3std13StdSysLibraryECs5NdDM4Gp1Qp_8eldritch
FN:115,_RINvMs0_NtNtCsjTRrhfWa0WU_13eldritch_core11interpreter4coreNtB6_11Interpreter12register_libNtNtCs9GOD6RQvQkx_18eldritch_libreports_3std16StdReportLibraryECs5NdDM4Gp1Qp_8eldritch
FN:115,_RINvMs0_NtNtCsjTRrhfWa0WU_13eldritch_core11interpreter4coreNtB6_11Interpreter12register_libNtNtCsaDfCljoBaJe_17eldritch_libagents_3std15StdAgentLibraryECs5NdDM4Gp1Qp_8eldritch
FN:115,_RINvMs0_NtNtCsjTRrhfWa0WU_13eldritch_core11interpreter4coreNtB6_11Interpreter12register_libNtNtCsajmQ4HJRykT_18eldritch_libcryptos_3std16StdCryptoLibraryECs5NdDM4Gp1Qp_8eldritch
FN:115,_RINvMs0_NtNtCsjTRrhfWa0WU_13eldritch_core11interpreter4coreNtB6_11Interpreter12register_libNtNtCscWovyrnwTku_16eldritch_libhttps_3std14StdHttpLibraryECs5NdDM4Gp1Qp_8eldritch
FN:115,_RINvMs0_NtNtCsjTRrhfWa0WU_13eldritch_core11interpreter4coreNtB6_11Interpreter12register_libNtNtCsfq8ZNcGqxOs_16eldritch_libfiles_3std14StdFileLibraryECs5NdDM4Gp1Qp_8eldritch
FN:115,_RINvMs0_NtNtCsjTRrhfWa0WU_13eldritch_core11interpreter4coreNtB6_11Interpreter12register_libNtNtCsglWS1Ns20KR_16eldritch_libtimes_3std14StdTimeLibraryECs5NdDM4Gp1Qp_8eldritch
FN:115,_RINvMs0_NtNtCsjTRrhfWa0WU_13eldritch_core11interpreter4coreNtB6_11Interpreter12register_libNtNtCsgxcjP7EOVl6_17eldritch_libregexs_3std15StdRegexLibraryECs5NdDM4Gp1Qp_8eldritch
FN:115,_RINvMs0_NtNtCsjTRrhfWa0WU_13eldritch_core11interpreter4coreNtB6_11Interpreter12register_libNtNtCsjjrTDlECOC2_18eldritch_libassetss_3std16StdAssetsLibraryECs5NdDM4Gp1Qp_8eldritch
FN:115,_RINvMs0_NtNtCsjTRrhfWa0WU_13eldritch_core11interpreter4coreNtB6_11Interpreter12register_libNtNtCslhS9MHJwbdK_18eldritch_librandoms_3std16StdRandomLibraryECs5NdDM4Gp1Qp_8eldritch
FN:115,_RINvMs0_NtNtCs3OupGlkSanV_13eldritch_core11interpreter4coreNtB6_11Interpreter12register_libpEBa_
FN:152,_RINvMs0_NtNtCs3OupGlkSanV_13eldritch_core11interpreter4coreNtB6_11Interpreter13runtime_errorpEBa_
FN:369,_RNCNvMs0_NtNtCs3OupGlkSanV_13eldritch_core11interpreter4coreNtB7_11Interpreter8complete0Bb_
FN:515,_RNCNvMs0_NtNtCs3OupGlkSanV_13eldritch_core11interpreter4coreNtB7_11Interpreter8completes_0Bb_
FN:156,_RNvMs0_NtNtCs3OupGlkSanV_13eldritch_core11interpreter4coreNtB5_11Interpreter10push_frame
FN:239,_RNvMs0_NtNtCs3OupGlkSanV_13eldritch_core11interpreter4coreNtB5_11Interpreter12format_error
FN:282,_RNvMs0_NtNtCs3OupGlkSanV_13eldritch_core11interpreter4coreNtB5_11Interpreter15assign_variable
FN:299,_RNvMs0_NtNtCs3OupGlkSanV_13eldritch_core11interpreter4coreNtB5_11Interpreter15define_variable
FN:303,_RNvMs0_NtNtCs3OupGlkSanV_13eldritch_core11interpreter4coreNtB5_11Interpreter15lookup_variable
FN:109,_RNvMs0_NtNtCs3OupGlkSanV_13eldritch_core11interpreter4coreNtB5_11Interpreter15register_module
FN:332,_RNvMs0_NtNtCs3OupGlkSanV_13eldritch_core11interpreter4coreNtB5_11Interpreter8complete
FN:178,_RNvMs0_NtNtCs3OupGlkSanV_13eldritch_core11interpreter4coreNtB5_11Interpreter9interpret
FN:169,_RNvMs0_NtNtCs3OupGlkSanV_13eldritch_core11interpreter4coreNtB5_11Interpreter9pop_frame
FN:51,_RNvXs_NtNtCs3OupGlkSanV_13eldritch_core11interpreter4coreNtB4_11InterpreterNtNtCs4Vq2ZLagKfv_4core7default7Default7default
FN:40,_RNvXNtNtCs3OupGlkSanV_13eldritch_core11interpreter4coreNtB2_11InterpreterNtNtNtCs4Vq2ZLagKfv_4core3ops4drop4Drop4drop
FN:125,_RINvMs0_NtNtCs3OupGlkSanV_13eldritch_core11interpreter4coreNtB6_11Interpreter5errorNtNtBa_3ast5ValueEBa_
FN:82,_RNvMs0_NtNtCs3OupGlkSanV_13eldritch_core11interpreter4coreNtB5_11Interpreter13load_builtins
FN:61,_RNvMs0_NtNtCs3OupGlkSanV_13eldritch_core11interpreter4coreNtB5_11Interpreter16new_with_printer
FN:102,_RNvMs0_NtNtCs3OupGlkSanV_13eldritch_core11interpreter4coreNtB5_11Interpreter17register_function
FN:57,_RNvMs0_NtNtCs3OupGlkSanV_13eldritch_core11interpreter4coreNtB5_11Interpreter3new
FN:115,_RINvMs0_NtNtCsjTRrhfWa0WU_13eldritch_core11interpreter4coreNtB6_11Interpreter12register_libNtNtCs4WzB0igzGNX_17eldritch_libpivots_3std15StdPivotLibraryECseFE96WBhVpH_8eldritch
FN:115,_RINvMs0_NtNtCsjTRrhfWa0WU_13eldritch_core11interpreter4coreNtB6_11Interpreter12register_libNtNtCs4z0FbkCdo4s_19eldritch_libprocesss_3std17StdProcessLibraryECseFE96WBhVpH_8eldritch
FN:115,_RINvMs0_NtNtCsjTRrhfWa0WU_13eldritch_core11interpreter4coreNtB6_11Interpreter12register_libNtNtCs6MQ2kXofuUf_15eldritch_libsyss_3std13StdSysLibraryECseFE96WBhVpH_8eldritch
FN:115,_RINvMs0_NtNtCsjTRrhfWa0WU_13eldritch_core11interpreter4coreNtB6_11Interpreter12register_libNtNtCs9GOD6RQvQkx_18eldritch_libreports_3std16StdReportLibraryECseFE96WBhVpH_8eldritch
FN:115,_RINvMs0_NtNtCsjTRrhfWa0WU_13eldritch_core11interpreter4coreNtB6_11Interpreter12register_libNtNtCsaDfCljoBaJe_17eldritch_libagent4fake16AgentLibraryFakeECseFE96WBhVpH_8eldritch
FN:115,_RINvMs0_NtNtCsjTRrhfWa0WU_13eldritch_core11interpreter4coreNtB6_11Interpreter12register_libNtNtCsaDfCljoBaJe_17eldritch_libagents_3std15StdAgentLibraryECseFE96WBhVpH_8eldritch
FN:115,_RINvMs0_NtNtCsjTRrhfWa0WU_13eldritch_core11interpreter4coreNtB6_11Interpreter12register_libNtNtCsajmQ4HJRykT_18eldritch_libcryptos_3std16StdCryptoLibraryECseFE96WBhVpH_8eldritch
FN:115,_RINvMs0_NtNtCsjTRrhfWa0WU_13eldritch_core11interpreter4coreNtB6_11Interpreter12register_libNtNtCscWovyrnwTku_16eldritch_libhttps_3std14StdHttpLibraryECseFE96WBhVpH_8eldritch
FN:115,_RINvMs0_NtNtCsjTRrhfWa0WU_13eldritch_core11interpreter4coreNtB6_11Interpreter12register_libNtNtCsfq8ZNcGqxOs_16eldritch_libfiles_3std14StdFileLibraryECseFE96WBhVpH_8eldritch
FN:115,_RINvMs0_NtNtCsjTRrhfWa0WU_13eldritch_core11interpreter4coreNtB6_11Interpreter12register_libNtNtCsglWS1Ns20KR_16eldritch_libtimes_3std14StdTimeLibraryECseFE96WBhVpH_8eldritch
FN:115,_RINvMs0_NtNtCsjTRrhfWa0WU_13eldritch_core11interpreter4coreNtB6_11Interpreter12register_libNtNtCsgxcjP7EOVl6_17eldritch_libregexs_3std15StdRegexLibraryECseFE96WBhVpH_8eldritch
FN:115,_RINvMs0_NtNtCsjTRrhfWa0WU_13eldritch_core11interpreter4coreNtB6_11Interpreter12register_libNtNtCsjjrTDlECOC2_18eldritch_libassetss_3std16StdAssetsLibraryECseFE96WBhVpH_8eldritch
FN:115,_RINvMs0_NtNtCsjTRrhfWa0WU_13eldritch_core11interpreter4coreNtB6_11Interpreter12register_libNtNtCslhS9MHJwbdK_18eldritch_librandoms_3std16StdRandomLibraryECseFE96WBhVpH_8eldritch
FN:115,_RINvMs0_NtNtCsjTRrhfWa0WU_13eldritch_core11interpreter4coreNtB6_11Interpreter12register_libpEBa_
FNDA:0,_RINvMs0_NtNtCsjTRrhfWa0WU_13eldritch_core11interpreter4coreNtB6_11Interpreter13runtime_errorNtNtBa_3ast5ValueEBa_
FNDA:0,_RINvMs0_NtNtCsjTRrhfWa0WU_13eldritch_core11interpreter4coreNtB6_11Interpreter13runtime_erroruEBa_
FNDA:1,_RINvMs0_NtNtCsjTRrhfWa0WU_13eldritch_core11interpreter4coreNtB6_11Interpreter5errorINtNtCs456UZznmu7y_5alloc3vec3VecNtNtBa_3ast5ValueEEBa_
FNDA:88,_RINvMs0_NtNtCsjTRrhfWa0WU_13eldritch_core11interpreter4coreNtB6_11Interpreter5errorNtNtBa_3ast5ValueEBa_
FNDA:0,_RINvMs0_NtNtCsjTRrhfWa0WU_13eldritch_core11interpreter4coreNtB6_11Interpreter5errordEBa_
FNDA:6,_RINvMs0_NtNtCsjTRrhfWa0WU_13eldritch_core11interpreter4coreNtB6_11Interpreter5erroruEBa_
FNDA:1,_RINvMs0_NtNtCsjTRrhfWa0WU_13eldritch_core11interpreter4coreNtB6_11Interpreter5errorxEBa_
FNDA:3,_RNCNvMs0_NtNtCsjTRrhfWa0WU_13eldritch_core11interpreter4coreNtB7_11Interpreter8complete0Bb_
FNDA:39,_RNCNvMs0_NtNtCsjTRrhfWa0WU_13eldritch_core11interpreter4coreNtB7_11Interpreter8completes_0Bb_
FNDA:655,_RNvXNtNtCsjTRrhfWa0WU_13eldritch_core11interpreter4coreNtB2_11InterpreterNtNtNtCs4Vq2ZLagKfv_4core3ops4drop4Drop4drop
FNDA:1905,_RNvMs0_NtNtCsjTRrhfWa0WU_13eldritch_core11interpreter4coreNtB5_11Interpreter10push_frame
FNDA:344,_RNvMs0_NtNtCsjTRrhfWa0WU_13eldritch_core11interpreter4coreNtB5_11Interpreter12format_error
FNDA:622,_RNvMs0_NtNtCsjTRrhfWa0WU_13eldritch_core11interpreter4coreNtB5_11Interpreter13load_builtins
FNDA:524,_RNvMs0_NtNtCsjTRrhfWa0WU_13eldritch_core11interpreter4coreNtB5_11Interpreter15assign_variable
FNDA:214,_RNvMs0_NtNtCsjTRrhfWa0WU_13eldritch_core11interpreter4coreNtB5_11Interpreter15define_variable
FNDA:2690,_RNvMs0_NtNtCsjTRrhfWa0WU_13eldritch_core11interpreter4coreNtB5_11Interpreter15lookup_variable
FNDA:0,_RNvMs0_NtNtCsjTRrhfWa0WU_13eldritch_core11interpreter4coreNtB5_11Interpreter15register_module
FNDA:622,_RNvMs0_NtNtCsjTRrhfWa0WU_13eldritch_core11interpreter4coreNtB5_11Interpreter16new_with_printer
FNDA:23637,_RNvMs0_NtNtCsjTRrhfWa0WU_13eldritch_core11interpreter4coreNtB5_11Interpreter17register_function
FNDA:588,_RNvMs0_NtNtCsjTRrhfWa0WU_13eldritch_core11interpreter4coreNtB5_11Interpreter3new
FNDA:1,_RNvMs0_NtNtCsjTRrhfWa0WU_13eldritch_core11interpreter4coreNtB5_11Interpreter8complete
FNDA:807,_RNvMs0_NtNtCsjTRrhfWa0WU_13eldritch_core11interpreter4coreNtB5_11Interpreter9interpret
FNDA:1905,_RNvMs0_NtNtCsjTRrhfWa0WU_13eldritch_core11interpreter4coreNtB5_11Interpreter9pop_frame
FNDA:0,_RNvXs_NtNtCsjTRrhfWa0WU_13eldritch_core11interpreter4coreNtB4_11InterpreterNtNtCs4Vq2ZLagKfv_4core7default7Default7default
FNDA:2,_RINvMs0_NtNtCsjTRrhfWa0WU_13eldritch_core11interpreter4coreNtB6_11Interpreter12register_libNtNtCs4WzB0igzGNX_17eldritch_libpivots_3std15StdPivotLibraryECs5NdDM4Gp1Qp_8eldritch
FNDA:1,_RINvMs0_NtNtCsjTRrhfWa0WU_13eldritch_core11interpreter4coreNtB6_11Interpreter12register_libNtNtCs4z0FbkCdo4s_19eldritch_libprocesss_3std17StdProcessLibraryECs5NdDM4Gp1Qp_8eldritch
FNDA:1,_RINvMs0_NtNtCsjTRrhfWa0WU_13eldritch_core11interpreter4coreNtB6_11Interpreter12register_libNtNtCs6MQ2kXofuUf_15eldritch_libsyss_3std13StdSysLibraryECs5NdDM4Gp1Qp_8eldritch
FNDA:1,_RINvMs0_NtNtCsjTRrhfWa0WU_13eldritch_core11interpreter4coreNtB6_11Interpreter12register_libNtNtCs9GOD6RQvQkx_18eldritch_libreports_3std16StdReportLibraryECs5NdDM4Gp1Qp_8eldritch
FNDA:1,_RINvMs0_NtNtCsjTRrhfWa0WU_13eldritch_core11interpreter4coreNtB6_11Interpreter12register_libNtNtCsaDfCljoBaJe_17eldritch_libagents_3std15StdAgentLibraryECs5NdDM4Gp1Qp_8eldritch
FNDA:1,_RINvMs0_NtNtCsjTRrhfWa0WU_13eldritch_core11interpreter4coreNtB6_11Interpreter12register_libNtNtCsajmQ4HJRykT_18eldritch_libcryptos_3std16StdCryptoLibraryECs5NdDM4Gp1Qp_8eldritch
FNDA:1,_RINvMs0_NtNtCsjTRrhfWa0WU_13eldritch_core11interpreter4coreNtB6_11Interpreter12register_libNtNtCscWovyrnwTku_16eldritch_libhttps_3std14StdHttpLibraryECs5NdDM4Gp1Qp_8eldritch
FNDA:1,_RINvMs0_NtNtCsjTRrhfWa0WU_13eldritch_core11interpreter4coreNtB6_11Interpreter12register_libNtNtCsfq8ZNcGqxOs_16eldritch_libfiles_3std14StdFileLibraryECs5NdDM4Gp1Qp_8eldritch
FNDA:1,_RINvMs0_NtNtCsjTRrhfWa0WU_13eldritch_core11interpreter4coreNtB6_11Interpreter12register_libNtNtCsglWS1Ns20KR_16eldritch_libtimes_3std14StdTimeLibraryECs5NdDM4Gp1Qp_8eldritch
FNDA:1,_RINvMs0_NtNtCsjTRrhfWa0WU_13eldritch_core11interpreter4coreNtB6_11Interpreter12register_libNtNtCsgxcjP7EOVl6_17eldritch_libregexs_3std15StdRegexLibraryECs5NdDM4Gp1Qp_8eldritch
FNDA:1,_RINvMs0_NtNtCsjTRrhfWa0WU_13eldritch_core11interpreter4coreNtB6_11Interpreter12register_libNtNtCsjjrTDlECOC2_18eldritch_libassetss_3std16StdAssetsLibraryECs5NdDM4Gp1Qp_8eldritch
FNDA:1,_RINvMs0_NtNtCsjTRrhfWa0WU_13eldritch_core11interpreter4coreNtB6_11Interpreter12register_libNtNtCslhS9MHJwbdK_18eldritch_librandoms_3std16StdRandomLibraryECs5NdDM4Gp1Qp_8eldritch
FNDA:0,_RINvMs0_NtNtCs3OupGlkSanV_13eldritch_core11interpreter4coreNtB6_11Interpreter12register_libpEBa_
FNDA:0,_RINvMs0_NtNtCs3OupGlkSanV_13eldritch_core11interpreter4coreNtB6_11Interpreter13runtime_errorpEBa_
FNDA:0,_RNCNvMs0_NtNtCs3OupGlkSanV_13eldritch_core11interpreter4coreNtB7_11Interpreter8complete0Bb_
FNDA:0,_RNCNvMs0_NtNtCs3OupGlkSanV_13eldritch_core11interpreter4coreNtB7_11Interpreter8completes_0Bb_
FNDA:0,_RNvMs0_NtNtCs3OupGlkSanV_13eldritch_core11interpreter4coreNtB5_11Interpreter10push_frame
FNDA:0,_RNvMs0_NtNtCs3OupGlkSanV_13eldritch_core11interpreter4coreNtB5_11Interpreter12format_error
FNDA:0,_RNvMs0_NtNtCs3OupGlkSanV_13eldritch_core11interpreter4coreNtB5_11Interpreter15assign_variable
FNDA:0,_RNvMs0_NtNtCs3OupGlkSanV_13eldritch_core11interpreter4coreNtB5_11Interpreter15define_variable
FNDA:0,_RNvMs0_NtNtCs3OupGlkSanV_13eldritch_core11interpreter4coreNtB5_11Interpreter15lookup_variable
FNDA:0,_RNvMs0_NtNtCs3OupGlkSanV_13eldritch_core11interpreter4coreNtB5_11Interpreter15register_module
FNDA:0,_RNvMs0_NtNtCs3OupGlkSanV_13eldritch_core11interpreter4coreNtB5_11Interpreter8complete
FNDA:0,_RNvMs0_NtNtCs3OupGlkSanV_13eldritch_core11interpreter4coreNtB5_11Interpreter9interpret
FNDA:0,_RNvMs0_NtNtCs3OupGlkSanV_13eldritch_core11interpreter4coreNtB5_11Interpreter9pop_frame
FNDA:0,_RNvXs_NtNtCs3OupGlkSanV_13eldritch_core11interpreter4coreNtB4_11InterpreterNtNtCs4Vq2ZLagKfv_4core7default7Default7default
FNDA:6,_RNvXNtNtCs3OupGlkSanV_13eldritch_core11interpreter4coreNtB2_11InterpreterNtNtNtCs4Vq2ZLagKfv_4core3ops4drop4Drop4drop
FNDA:5,_RINvMs0_NtNtCs3OupGlkSanV_13eldritch_core11interpreter4coreNtB6_11Interpreter5errorNtNtBa_3ast5ValueEBa_
FNDA:6,_RNvMs0_NtNtCs3OupGlkSanV_13eldritch_core11interpreter4coreNtB5_11Interpreter13load_builtins
FNDA:6,_RNvMs0_NtNtCs3OupGlkSanV_13eldritch_core11interpreter4coreNtB5_11Interpreter16new_with_printer
FNDA:228,_RNvMs0_NtNtCs3OupGlkSanV_13eldritch_core11interpreter4coreNtB5_11Interpreter17register_function
FNDA:6,_RNvMs0_NtNtCs3OupGlkSanV_13eldritch_core11interpreter4coreNtB5_11Interpreter3new
FNDA:29,_RINvMs0_NtNtCsjTRrhfWa0WU_13eldritch_core11interpreter4coreNtB6_11Interpreter12register_libNtNtCs4WzB0igzGNX_17eldritch_libpivots_3std15StdPivotLibraryECseFE96WBhVpH_8eldritch
FNDA:14,_RINvMs0_NtNtCsjTRrhfWa0WU_13eldritch_core11interpreter4coreNtB6_11Interpreter12register_libNtNtCs4z0FbkCdo4s_19eldritch_libprocesss_3std17StdProcessLibraryECseFE96WBhVpH_8eldritch
FNDA:14,_RINvMs0_NtNtCsjTRrhfWa0WU_13eldritch_core11interpreter4coreNtB6_11Interpreter12register_libNtNtCs6MQ2kXofuUf_15eldritch_libsyss_3std13StdSysLibraryECseFE96WBhVpH_8eldritch
FNDA:15,_RINvMs0_NtNtCsjTRrhfWa0WU_13eldritch_core11interpreter4coreNtB6_11Interpreter12register_libNtNtCs9GOD6RQvQkx_18eldritch_libreports_3std16StdReportLibraryECseFE96WBhVpH_8eldritch
FNDA:0,_RINvMs0_NtNtCsjTRrhfWa0WU_13eldritch_core11interpreter4coreNtB6_11Interpreter12register_libNtNtCsaDfCljoBaJe_17eldritch_libagent4fake16AgentLibraryFakeECseFE96WBhVpH_8eldritch
FNDA:15,_RINvMs0_NtNtCsjTRrhfWa0WU_13eldritch_core11interpreter4coreNtB6_11Interpreter12register_libNtNtCsaDfCljoBaJe_17eldritch_libagents_3std15StdAgentLibraryECseFE96WBhVpH_8eldritch
FNDA:14,_RINvMs0_NtNtCsjTRrhfWa0WU_13eldritch_core11interpreter4coreNtB6_11Interpreter12register_libNtNtCsajmQ4HJRykT_18eldritch_libcryptos_3std16StdCryptoLibraryECseFE96WBhVpH_8eldritch
FNDA:14,_RINvMs0_NtNtCsjTRrhfWa0WU_13eldritch_core11interpreter4coreNtB6_11Interpreter12register_libNtNtCscWovyrnwTku_16eldritch_libhttps_3std14StdHttpLibraryECseFE96WBhVpH_8eldritch
FNDA:14,_RINvMs0_NtNtCsjTRrhfWa0WU_13eldritch_core11interpreter4coreNtB6_11Interpreter12register_libNtNtCsfq8ZNcGqxOs_16eldritch_libfiles_3std14StdFileLibraryECseFE96WBhVpH_8eldritch
FNDA:14,_RINvMs0_NtNtCsjTRrhfWa0WU_13eldritch_core11interpreter4coreNtB6_11Interpreter12register_libNtNtCsglWS1Ns20KR_16eldritch_libtimes_3std14StdTimeLibraryECseFE96WBhVpH_8eldritch
FNDA:14,_RINvMs0_NtNtCsjTRrhfWa0WU_13eldritch_core11interpreter4coreNtB6_11Interpreter12register_libNtNtCsgxcjP7EOVl6_17eldritch_libregexs_3std15StdRegexLibraryECseFE96WBhVpH_8eldritch
FNDA:15,_RINvMs0_NtNtCsjTRrhfWa0WU_13eldritch_core11interpreter4coreNtB6_11Interpreter12register_libNtNtCsjjrTDlECOC2_18eldritch_libassetss_3std16StdAssetsLibraryECseFE96WBhVpH_8eldritch
FNDA:14,_RINvMs0_NtNtCsjTRrhfWa0WU_13eldritch_core11interpreter4coreNtB6_11Interpreter12register_libNtNtCslhS9MHJwbdK_18eldritch_librandoms_3std16StdRandomLibraryECseFE96WBhVpH_8eldritch
FNDA:0,_RINvMs0_NtNtCsjTRrhfWa0WU_13eldritch_core11interpreter4coreNtB6_11Interpreter12register_libpEBa_
FNF:20
FNH:17
DA:40,661
DA:41,661
DA:42,625
DA:43,625
DA:44,625
DA:45,625
DA:46,625
DA:47,661
DA:51,0
DA:52,0
DA:53,0
DA:57,594
DA:58,594
DA:59,594
DA:61,628
DA:62,628
DA:63,628
DA:64,628
DA:65,628
DA:66,628
DA:67,628
DA:69,628
DA:70,628
DA:71,628
DA:72,628
DA:73,628
DA:74,628
DA:75,628
DA:76,628
DA:78,628
DA:79,628
DA:80,628
DA:82,628
DA:83,20724
DA:84,20724
DA:85,20724
DA:86,628
DA:87,628
DA:88,628
DA:89,628
DA:90,628
DA:91,628
DA:92,3140
DA:93,3140
DA:94,3140
DA:96,628
DA:97,628
DA:98,628
DA:99,628
DA:100,628
DA:102,23865
DA:103,23865
DA:104,23865
DA:105,23865
DA:107,23865
DA:109,0
DA:112,0
DA:113,0
DA:115,199
DA:116,199
DA:117,199
DA:118,199
DA:119,199
DA:120,199
DA:121,199
DA:122,199
DA:125,101
DA:126,101
DA:127,101
DA:128,101
DA:129,101
DA:130,101
DA:132,101
DA:140,101
DA:141,101
DA:142,101
DA:143,101
DA:144,101
DA:145,101
DA:147,101
DA:148,101
DA:149,101
DA:152,0
DA:153,0
DA:154,0
DA:156,1905
DA:161,1905
DA:162,1905
DA:163,1905
DA:164,1905
DA:165,1905
DA:166,1905
DA:167,1905
DA:169,1905
DA:170,1905
DA:171,1905
DA:172,1905
DA:173,0
DA:174,0
DA:175,0
DA:176,1905
DA:178,807
DA:179,807
DA:180,807
DA:183,21833
DA:184,21026
DA:185,0
DA:186,21026
DA:189,807
DA:190,807
DA:192,807
DA:196,2
DA:197,805
DA:199,805
DA:202,805
DA:203,805
DA:205,2399
DA:206,1936
DA:209,1414
DA:210,1414
DA:211,1414
DA:212,1082
DA:213,332
DA:214,332
DA:219,522
DA:220,522
DA:222,512
DA:223,0
DA:224,0
DA:225,0
DA:226,512
DA:227,512
DA:229,10
DA:230,10
DA:236,463
DA:237,807
DA:239,344
DA:241,344
DA:243,344
DA:244,344
DA:245,312
DA:246,312
DA:249,312
DA:252,312
DA:253,312
DA:256,312
DA:257,0
DA:258,312
DA:259,1256
DA:260,944
DA:261,944
DA:264,312
DA:267,312
DA:270,312
DA:272,312
DA:273,312
DA:274,312
DA:275,312
DA:276,312
DA:277,312
DA:278,32
DA:279,344
DA:280,344
DA:282,524
DA:283,524
DA:284,524
DA:285,1027
DA:286,594
DA:287,91
DA:288,91
DA:289,503
DA:290,503
DA:292,524
DA:293,91
DA:294,433
DA:295,433
DA:296,433
DA:297,524
DA:299,214
DA:300,214
DA:301,214
DA:303,2690
DA:304,2690
DA:305,2946
DA:306,2941
DA:307,2941
DA:308,2685
DA:309,256
DA:310,256
DA:314,5
DA:315,5
DA:316,10
DA:317,5
DA:318,200
DA:319,200
DA:320,200
DA:321,5
DA:324,5
DA:325,5
DA:326,0
DA:327,5
DA:329,5
DA:330,2690
DA:332,1
DA:333,1
DA:334,1
DA:340,1
DA:342,1
DA:343,1
DA:344,0
DA:345,0
DA:346,1
DA:348,0
DA:351,1
DA:354,1
DA:355,0
DA:356,1
DA:360,1
DA:363,1
DA:366,1
DA:367,1
DA:368,1
DA:369,3
DA:370,1
DA:371,3
DA:374,3
DA:375,1
DA:377,1
DA:378,1
DA:383,1
DA:385,1
DA:388,1
DA:390,0
DA:391,0
DA:392,0
DA:393,0
DA:395,0
DA:396,0
DA:397,0
DA:399,0
DA:400,0
DA:401,0
DA:402,0
DA:404,0
DA:408,1
DA:410,1
DA:411,1
DA:414,1
DA:415,0
DA:418,0
DA:419,0
DA:420,0
DA:421,0
DA:422,0
DA:423,0
DA:424,0
DA:425,0
DA:426,0
DA:428,0
DA:429,0
DA:430,0
DA:431,0
DA:433,0
DA:434,1
DA:435,0
DA:436,0
DA:437,0
DA:438,0
DA:439,0
DA:440,0
DA:442,1
DA:444,0
DA:445,0
DA:446,0
DA:447,0
DA:448,0
DA:455,0
DA:456,0
DA:457,0
DA:461,0
DA:462,0
DA:463,0
DA:479,1
DA:480,1
DA:481,1
DA:482,1
DA:483,1
DA:484,1
DA:485,0
DA:486,0
DA:487,0
DA:488,1
DA:489,0
DA:491,1
DA:493,1
DA:494,1
DA:495,1
DA:499,1
DA:500,2
DA:501,1
DA:502,40
DA:503,40
DA:504,39
DA:505,39
DA:507,1
DA:509,0
DA:513,1
DA:514,1
DA:515,39
DA:516,39
DA:517,1
DA:518,1
DA:519,39
DA:520,1
DA:524,1
DA:525,1
DA:527,0
DA:530,1
DA:531,1
BRF:0
BRH:0
LF:321
LH:249
end_of_record
SF:/app/implants/lib/eldritch/eldritch-core/src/interpreter/error.rs
FN:67,_RNvMs_NtNtCsjTRrhfWa0WU_13eldritch_core11interpreter5errorNtB4_13EldritchError10with_stack
FN:58,_RNvMs_NtNtCsjTRrhfWa0WU_13eldritch_core11interpreter5errorNtB4_13EldritchError3new
FN:24,_RNvXNtNtCsjTRrhfWa0WU_13eldritch_core11interpreter5errorNtB2_17EldritchErrorKindNtNtCs4Vq2ZLagKfv_4core3fmt7Display3fmt
FN:74,_RNvXs0_NtNtCsjTRrhfWa0WU_13eldritch_core11interpreter5errorNtB5_13EldritchErrorNtNtCs4Vq2ZLagKfv_4core3fmt7Display3fmt
FN:136,_RINvNtNtCsjTRrhfWa0WU_13eldritch_core11interpreter5error13runtime_errorNtNtB6_3ast5ValueEB6_
FN:102,_RNCNvXs0_NtNtCsjTRrhfWa0WU_13eldritch_core11interpreter5errorNtB7_13EldritchErrorNtNtCs4Vq2ZLagKfv_4core3fmt7Display3fmt0Bb_
FN:136,_RINvNtNtCs3OupGlkSanV_13eldritch_core11interpreter5error13runtime_errorpEB6_
FN:102,_RNCNvXs0_NtNtCs3OupGlkSanV_13eldritch_core11interpreter5errorNtB7_13EldritchErrorNtNtCs4Vq2ZLagKfv_4core3fmt7Display3fmt0Bb_
FN:24,_RNvXNtNtCs3OupGlkSanV_13eldritch_core11interpreter5errorNtB2_17EldritchErrorKindNtNtCs4Vq2ZLagKfv_4core3fmt7Display3fmt
FN:74,_RNvXs0_NtNtCs3OupGlkSanV_13eldritch_core11interpreter5errorNtB5_13EldritchErrorNtNtCs4Vq2ZLagKfv_4core3fmt7Display3fmt
FN:67,_RNvMs_NtNtCs3OupGlkSanV_13eldritch_core11interpreter5errorNtB4_13EldritchError10with_stack
FN:58,_RNvMs_NtNtCs3OupGlkSanV_13eldritch_core11interpreter5errorNtB4_13EldritchError3new
FNDA:342,_RNvMs_NtNtCsjTRrhfWa0WU_13eldritch_core11interpreter5errorNtB4_13EldritchError10with_stack
FNDA:362,_RNvMs_NtNtCsjTRrhfWa0WU_13eldritch_core11interpreter5errorNtB4_13EldritchError3new
FNDA:344,_RNvXNtNtCsjTRrhfWa0WU_13eldritch_core11interpreter5errorNtB2_17EldritchErrorKindNtNtCs4Vq2ZLagKfv_4core3fmt7Display3fmt
FNDA:344,_RNvXs0_NtNtCsjTRrhfWa0WU_13eldritch_core11interpreter5errorNtB5_13EldritchErrorNtNtCs4Vq2ZLagKfv_4core3fmt7Display3fmt
FNDA:0,_RINvNtNtCsjTRrhfWa0WU_13eldritch_core11interpreter5error13runtime_errorNtNtB6_3ast5ValueEB6_
FNDA:5,_RNCNvXs0_NtNtCsjTRrhfWa0WU_13eldritch_core11interpreter5errorNtB7_13EldritchErrorNtNtCs4Vq2ZLagKfv_4core3fmt7Display3fmt0Bb_
FNDA:0,_RINvNtNtCs3OupGlkSanV_13eldritch_core11interpreter5error13runtime_errorpEB6_
FNDA:0,_RNCNvXs0_NtNtCs3OupGlkSanV_13eldritch_core11interpreter5errorNtB7_13EldritchErrorNtNtCs4Vq2ZLagKfv_4core3fmt7Display3fmt0Bb_
FNDA:0,_RNvXNtNtCs3OupGlkSanV_13eldritch_core11interpreter5errorNtB2_17EldritchErrorKindNtNtCs4Vq2ZLagKfv_4core3fmt7Display3fmt
FNDA:0,_RNvXs0_NtNtCs3OupGlkSanV_13eldritch_core11interpreter5errorNtB5_13EldritchErrorNtNtCs4Vq2ZLagKfv_4core3fmt7Display3fmt
FNDA:5,_RNvMs_NtNtCs3OupGlkSanV_13eldritch_core11interpreter5errorNtB4_13EldritchError10with_stack
FNDA:5,_RNvMs_NtNtCs3OupGlkSanV_13eldritch_core11interpreter5errorNtB4_13EldritchError3new
FNF:6
FNH:5
DA:24,344
DA:25,344
DA:26,2
DA:27,152
DA:28,5
DA:29,16
DA:30,14
DA:31,0
DA:32,22
DA:33,120
DA:34,2
DA:35,11
DA:36,0
DA:37,0
DA:39,344
DA:58,367
DA:59,367
DA:60,367
DA:61,367
DA:62,367
DA:63,367
DA:64,367
DA:65,367
DA:67,347
DA:68,347
DA:69,347
DA:70,347
DA:74,344
DA:75,344
DA:76,342
DA:77,787
DA:78,445
DA:79,445
DA:80,445
DA:82,0
DA:84,2
DA:94,344
DA:97,344
DA:99,5
DA:100,5
DA:101,5
DA:102,5
DA:105,5
DA:106,0
DA:109,152
DA:110,4
DA:111,4
DA:112,4
DA:113,0
DA:114,148
DA:115,2
DA:116,2
DA:117,2
DA:118,0
DA:119,146
DA:122,14
DA:123,14
DA:124,14
DA:125,0
DA:127,173
DA:130,344
DA:131,344
DA:136,0
DA:137,0
DA:138,0
DA:139,0
DA:140,0
DA:141,0
DA:142,0
BRF:0
BRH:0
LF:70
LH:55
end_of_record
SF:/app/implants/lib/eldritch/eldritch-core/src/interpreter/eval/access.rs
FN:15,_RNvNtNtNtCsjTRrhfWa0WU_13eldritch_core11interpreter4eval6access14evaluate_index
FN:140,_RNvNtNtNtCsjTRrhfWa0WU_13eldritch_core11interpreter4eval6access14evaluate_slice
FN:304,_RNvNtNtNtCsjTRrhfWa0WU_13eldritch_core11interpreter4eval6access16evaluate_getattr
FN:15,_RNvNtNtNtCs3OupGlkSanV_13eldritch_core11interpreter4eval6access14evaluate_index
FN:140,_RNvNtNtNtCs3OupGlkSanV_13eldritch_core11interpreter4eval6access14evaluate_slice
FN:304,_RNvNtNtNtCs3OupGlkSanV_13eldritch_core11interpreter4eval6access16evaluate_getattr
FNDA:91,_RNvNtNtNtCsjTRrhfWa0WU_13eldritch_core11interpreter4eval6access14evaluate_index
FNDA:69,_RNvNtNtNtCsjTRrhfWa0WU_13eldritch_core11interpreter4eval6access14evaluate_slice
FNDA:492,_RNvNtNtNtCsjTRrhfWa0WU_13eldritch_core11interpreter4eval6access16evaluate_getattr
FNDA:0,_RNvNtNtNtCs3OupGlkSanV_13eldritch_core11interpreter4eval6access14evaluate_index
FNDA:0,_RNvNtNtNtCs3OupGlkSanV_13eldritch_core11interpreter4eval6access14evaluate_slice
FNDA:0,_RNvNtNtNtCs3OupGlkSanV_13eldritch_core11interpreter4eval6access16evaluate_getattr
FNF:3
FNH:3
DA:15,91
DA:16,91
DA:17,91
DA:18,91
DA:19,91
DA:20,91
DA:21,91
DA:22,91
DA:24,91
DA:25,29
DA:26,29
DA:27,28
DA:29,1
DA:30,1
DA:31,1
DA:32,1
DA:36,28
DA:37,28
DA:38,7
DA:40,21
DA:42,28
DA:43,4
DA:44,4
DA:45,4
DA:46,4
DA:48,24
DA:49,24
DA:51,10
DA:52,10
DA:53,10
DA:55,0
DA:56,0
DA:57,0
DA:58,0
DA:62,10
DA:63,1
DA:65,9
DA:67,10
DA:68,4
DA:69,4
DA:70,4
DA:71,4
DA:73,6
DA:74,6
DA:76,44
DA:77,44
DA:78,44
DA:79,43
DA:80,1
DA:81,1
DA:82,1
DA:83,1
DA:87,1
DA:88,1
DA:89,1
DA:91,0
DA:92,0
DA:93,0
DA:94,0
DA:98,1
DA:99,1
DA:100,1
DA:101,1
DA:102,1
DA:103,1
DA:104,1
DA:105,1
DA:107,0
DA:108,0
DA:110,6
DA:111,6
DA:112,6
DA:114,0
DA:115,0
DA:116,0
DA:117,0
DA:121,6
DA:122,6
DA:123,6
DA:124,0
DA:125,0
DA:126,0
DA:127,0
DA:129,6
DA:130,6
DA:132,1
DA:133,1
DA:134,1
DA:135,1
DA:138,91
DA:140,69
DA:141,69
DA:142,69
DA:143,69
DA:144,69
DA:145,69
DA:146,69
DA:147,69
DA:148,69
DA:150,69
DA:151,30
DA:152,29
DA:154,1
DA:155,1
DA:156,1
DA:157,1
DA:162,39
DA:165,68
DA:166,5
DA:167,5
DA:168,5
DA:169,5
DA:171,63
DA:173,63
DA:174,34
DA:175,33
DA:177,1
DA:178,1
DA:179,1
DA:180,1
DA:185,29
DA:188,62
DA:189,24
DA:190,23
DA:192,1
DA:193,1
DA:194,1
DA:195,1
DA:200,38
DA:203,61
DA:204,30
DA:205,30
DA:206,30
DA:207,30
DA:209,30
DA:210,30
DA:212,30
DA:213,82
DA:214,59
DA:215,59
DA:216,59
DA:217,59
DA:220,26
DA:221,19
DA:222,19
DA:223,19
DA:224,19
DA:227,30
DA:229,4
DA:230,4
DA:231,4
DA:232,4
DA:233,4
DA:234,4
DA:235,5
DA:236,3
DA:237,3
DA:238,3
DA:239,3
DA:242,11
DA:243,9
DA:244,9
DA:245,9
DA:246,9
DA:249,4
DA:251,11
DA:252,11
DA:253,11
DA:254,11
DA:255,11
DA:256,11
DA:257,11
DA:258,21
DA:259,15
DA:260,15
DA:261,15
DA:262,15
DA:265,23
DA:266,18
DA:267,18
DA:268,18
DA:269,18
DA:272,11
DA:274,15
DA:275,15
DA:276,15
DA:277,15
DA:278,15
DA:279,15
DA:280,56
DA:281,43
DA:282,43
DA:283,43
DA:284,43
DA:287,13
DA:288,11
DA:289,11
DA:290,11
DA:291,11
DA:294,15
DA:296,1
DA:297,1
DA:298,1
DA:299,1
DA:302,69
DA:304,492
DA:305,492
DA:306,492
DA:307,492
DA:308,492
DA:309,492
DA:312,492
DA:314,48
DA:315,1
DA:316,47
DA:317,444
DA:320,491
DA:322,16
DA:323,475
DA:325,475
DA:326,492
BRF:0
BRH:0
LF:221
LH:203
end_of_record
SF:/app/implants/lib/eldritch/eldritch-core/src/interpreter/eval/comprehensions.rs
FN:45,_RNvNtNtNtCsjTRrhfWa0WU_13eldritch_core11interpreter4eval14comprehensions17evaluate_set_comp
FN:27,_RNvNtNtNtCsjTRrhfWa0WU_13eldritch_core11interpreter4eval14comprehensions18evaluate_dict_comp
FN:12,_RNvNtNtNtCsjTRrhfWa0WU_13eldritch_core11interpreter4eval14comprehensions18evaluate_list_comp
FN:54,_RNCNvNtNtNtCsjTRrhfWa0WU_13eldritch_core11interpreter4eval14comprehensions17evaluate_set_comp0B9_
FN:36,_RNCNvNtNtNtCsjTRrhfWa0WU_13eldritch_core11interpreter4eval14comprehensions18evaluate_dict_comp0B9_
FN:20,_RNCNvNtNtNtCsjTRrhfWa0WU_13eldritch_core11interpreter4eval14comprehensions18evaluate_list_comp0B9_
FN:54,_RNCNvNtNtNtCs3OupGlkSanV_13eldritch_core11interpreter4eval14comprehensions17evaluate_set_comp0B9_
FN:36,_RNCNvNtNtNtCs3OupGlkSanV_13eldritch_core11interpreter4eval14comprehensions18evaluate_dict_comp0B9_
FN:20,_RNCNvNtNtNtCs3OupGlkSanV_13eldritch_core11interpreter4eval14comprehensions18evaluate_list_comp0B9_
FN:45,_RNvNtNtNtCs3OupGlkSanV_13eldritch_core11interpreter4eval14comprehensions17evaluate_set_comp
FN:27,_RNvNtNtNtCs3OupGlkSanV_13eldritch_core11interpreter4eval14comprehensions18evaluate_dict_comp
FN:12,_RNvNtNtNtCs3OupGlkSanV_13eldritch_core11interpreter4eval14comprehensions18evaluate_list_comp
FNDA:4,_RNvNtNtNtCsjTRrhfWa0WU_13eldritch_core11interpreter4eval14comprehensions17evaluate_set_comp
FNDA:7,_RNvNtNtNtCsjTRrhfWa0WU_13eldritch_core11interpreter4eval14comprehensions18evaluate_dict_comp
FNDA:13,_RNvNtNtNtCsjTRrhfWa0WU_13eldritch_core11interpreter4eval14comprehensions18evaluate_list_comp
FNDA:11,_RNCNvNtNtNtCsjTRrhfWa0WU_13eldritch_core11interpreter4eval14comprehensions17evaluate_set_comp0B9_
FNDA:10,_RNCNvNtNtNtCsjTRrhfWa0WU_13eldritch_core11interpreter4eval14comprehensions18evaluate_dict_comp0B9_
FNDA:29,_RNCNvNtNtNtCsjTRrhfWa0WU_13eldritch_core11interpreter4eval14comprehensions18evaluate_list_comp0B9_
FNDA:0,_RNCNvNtNtNtCs3OupGlkSanV_13eldritch_core11interpreter4eval14comprehensions17evaluate_set_comp0B9_
FNDA:0,_RNCNvNtNtNtCs3OupGlkSanV_13eldritch_core11interpreter4eval14comprehensions18evaluate_dict_comp0B9_
FNDA:0,_RNCNvNtNtNtCs3OupGlkSanV_13eldritch_core11interpreter4eval14comprehensions18evaluate_list_comp0B9_
FNDA:0,_RNvNtNtNtCs3OupGlkSanV_13eldritch_core11interpreter4eval14comprehensions17evaluate_set_comp
FNDA:0,_RNvNtNtNtCs3OupGlkSanV_13eldritch_core11interpreter4eval14comprehensions18evaluate_dict_comp
FNDA:0,_RNvNtNtNtCs3OupGlkSanV_13eldritch_core11interpreter4eval14comprehensions18evaluate_list_comp
FNF:6
FNH:6
DA:12,13
DA:13,13
DA:14,13
DA:15,13
DA:16,13
DA:17,13
DA:18,13
DA:19,13
DA:20,29
DA:21,29
DA:22,29
DA:23,29
DA:24,13
DA:25,13
DA:27,7
DA:28,7
DA:29,7
DA:30,7
DA:31,7
DA:32,7
DA:33,7
DA:34,7
DA:35,7
DA:36,10
DA:37,10
DA:38,10
DA:39,10
DA:40,10
DA:41,10
DA:42,5
DA:43,7
DA:45,4
DA:46,4
DA:47,4
DA:48,4
DA:49,4
DA:50,4
DA:51,4
DA:53,4
DA:54,11
DA:55,11
DA:56,11
DA:57,11
DA:58,4
DA:59,4
BRF:0
BRH:0
LF:51
LH:49
end_of_record
SF:/app/implants/lib/eldritch/eldritch-core/src/interpreter/eval/functions.rs
FN:363,_RNCNvNtNtNtCsjTRrhfWa0WU_13eldritch_core11interpreter4eval9functions10call_value0B9_
FN:407,_RNCNvNtNtNtCsjTRrhfWa0WU_13eldritch_core11interpreter4eval9functions10call_values0_0B9_
FN:387,_RNCNvNtNtNtCsjTRrhfWa0WU_13eldritch_core11interpreter4eval9functions10call_values_0B9_
FN:159,_RNCNvNtNtNtCsjTRrhfWa0WU_13eldritch_core11interpreter4eval9functions13call_function0B9_
FN:201,_RNCNvNtNtNtCsjTRrhfWa0WU_13eldritch_core11interpreter4eval9functions13call_functions0_0B9_
FN:322,_RNCNvNtNtNtCsjTRrhfWa0WU_13eldritch_core11interpreter4eval9functions13call_functions1_0B9_
FN:335,_RNCNvNtNtNtCsjTRrhfWa0WU_13eldritch_core11interpreter4eval9functions13call_functions2_0B9_
FN:173,_RNCNvNtNtNtCsjTRrhfWa0WU_13eldritch_core11interpreter4eval9functions13call_functions_0B9_
FN:352,_RNvNtNtNtCsjTRrhfWa0WU_13eldritch_core11interpreter4eval9functions10call_value
FN:422,_RNvNtNtNtCsjTRrhfWa0WU_13eldritch_core11interpreter4eval9functions12evaluate_arg
FN:54,_RNvNtNtNtCsjTRrhfWa0WU_13eldritch_core11interpreter4eval9functions13call_function
FN:23,_RNvNtNtNtCsjTRrhfWa0WU_13eldritch_core11interpreter4eval9functions15evaluate_lambda
FN:363,_RNCNvNtNtNtCs3OupGlkSanV_13eldritch_core11interpreter4eval9functions10call_value0B9_
FN:407,_RNCNvNtNtNtCs3OupGlkSanV_13eldritch_core11interpreter4eval9functions10call_values0_0B9_
FN:387,_RNCNvNtNtNtCs3OupGlkSanV_13eldritch_core11interpreter4eval9functions10call_values_0B9_
FN:159,_RNCNvNtNtNtCs3OupGlkSanV_13eldritch_core11interpreter4eval9functions13call_function0B9_
FN:201,_RNCNvNtNtNtCs3OupGlkSanV_13eldritch_core11interpreter4eval9functions13call_functions0_0B9_
FN:322,_RNCNvNtNtNtCs3OupGlkSanV_13eldritch_core11interpreter4eval9functions13call_functions1_0B9_
FN:335,_RNCNvNtNtNtCs3OupGlkSanV_13eldritch_core11interpreter4eval9functions13call_functions2_0B9_
FN:173,_RNCNvNtNtNtCs3OupGlkSanV_13eldritch_core11interpreter4eval9functions13call_functions_0B9_
FN:352,_RNvNtNtNtCs3OupGlkSanV_13eldritch_core11interpreter4eval9functions10call_value
FN:422,_RNvNtNtNtCs3OupGlkSanV_13eldritch_core11interpreter4eval9functions12evaluate_arg
FN:54,_RNvNtNtNtCs3OupGlkSanV_13eldritch_core11interpreter4eval9functions13call_function
FN:23,_RNvNtNtNtCs3OupGlkSanV_13eldritch_core11interpreter4eval9functions15evaluate_lambda
FNDA:0,_RNCNvNtNtNtCsjTRrhfWa0WU_13eldritch_core11interpreter4eval9functions10call_value0B9_
FNDA:0,_RNCNvNtNtNtCsjTRrhfWa0WU_13eldritch_core11interpreter4eval9functions10call_values0_0B9_
FNDA:22,_RNCNvNtNtNtCsjTRrhfWa0WU_13eldritch_core11interpreter4eval9functions10call_values_0B9_
FNDA:96,_RNCNvNtNtNtCsjTRrhfWa0WU_13eldritch_core11interpreter4eval9functions13call_function0B9_
FNDA:151,_RNCNvNtNtNtCsjTRrhfWa0WU_13eldritch_core11interpreter4eval9functions13call_functions0_0B9_
FNDA:1,_RNCNvNtNtNtCsjTRrhfWa0WU_13eldritch_core11interpreter4eval9functions13call_functions1_0B9_
FNDA:146,_RNCNvNtNtNtCsjTRrhfWa0WU_13eldritch_core11interpreter4eval9functions13call_functions2_0B9_
FNDA:3,_RNCNvNtNtNtCsjTRrhfWa0WU_13eldritch_core11interpreter4eval9functions13call_functions_0B9_
FNDA:15,_RNvNtNtNtCsjTRrhfWa0WU_13eldritch_core11interpreter4eval9functions10call_value
FNDA:49,_RNvNtNtNtCsjTRrhfWa0WU_13eldritch_core11interpreter4eval9functions12evaluate_arg
FNDA:1954,_RNvNtNtNtCsjTRrhfWa0WU_13eldritch_core11interpreter4eval9functions13call_function
FNDA:8,_RNvNtNtNtCsjTRrhfWa0WU_13eldritch_core11interpreter4eval9functions15evaluate_lambda
FNDA:0,_RNCNvNtNtNtCs3OupGlkSanV_13eldritch_core11interpreter4eval9functions10call_value0B9_
FNDA:0,_RNCNvNtNtNtCs3OupGlkSanV_13eldritch_core11interpreter4eval9functions10call_values0_0B9_
FNDA:0,_RNCNvNtNtNtCs3OupGlkSanV_13eldritch_core11interpreter4eval9functions10call_values_0B9_
FNDA:0,_RNCNvNtNtNtCs3OupGlkSanV_13eldritch_core11interpreter4eval9functions13call_function0B9_
FNDA:0,_RNCNvNtNtNtCs3OupGlkSanV_13eldritch_core11interpreter4eval9functions13call_functions0_0B9_
FNDA:0,_RNCNvNtNtNtCs3OupGlkSanV_13eldritch_core11interpreter4eval9functions13call_functions1_0B9_
FNDA:0,_RNCNvNtNtNtCs3OupGlkSanV_13eldritch_core11interpreter4eval9functions13call_functions2_0B9_
FNDA:0,_RNCNvNtNtNtCs3OupGlkSanV_13eldritch_core11interpreter4eval9functions13call_functions_0B9_
FNDA:0,_RNvNtNtNtCs3OupGlkSanV_13eldritch_core11interpreter4eval9functions10call_value
FNDA:0,_RNvNtNtNtCs3OupGlkSanV_13eldritch_core11interpreter4eval9functions12evaluate_arg
FNDA:0,_RNvNtNtNtCs3OupGlkSanV_13eldritch_core11interpreter4eval9functions13call_function
FNDA:0,_RNvNtNtNtCs3OupGlkSanV_13eldritch_core11interpreter4eval9functions15evaluate_lambda
FNF:12
FNH:10
DA:23,8
DA:24,8
DA:25,8
DA:26,8
DA:27,8
DA:28,8
DA:29,20
DA:30,12
DA:31,12
DA:32,0
DA:33,0
DA:34,0
DA:35,0
DA:36,0
DA:40,8
DA:41,8
DA:42,8
DA:43,8
DA:45,8
DA:46,8
DA:47,8
DA:48,8
DA:49,8
DA:50,8
DA:51,8
DA:52,8
DA:54,1954
DA:55,1954
DA:56,1954
DA:57,1954
DA:58,1954
DA:59,1954
DA:60,1954
DA:63,1954
DA:64,1304
DA:65,1
DA:66,1303
DA:67,2
DA:68,1301
DA:69,3
DA:70,1298
DA:71,4
DA:72,1294
DA:73,36
DA:74,1258
DA:75,650
DA:78,1908
DA:79,1908
DA:81,4191
DA:82,2283
DA:83,2271
DA:84,12
DA:85,12
DA:86,12
DA:88,0
DA:89,0
DA:90,0
DA:91,0
DA:92,0
DA:94,0
DA:95,0
DA:96,0
DA:97,0
DA:98,0
DA:99,0
DA:100,0
DA:105,0
DA:106,0
DA:107,0
DA:108,0
DA:109,0
DA:110,0
DA:111,0
DA:112,0
DA:113,0
DA:114,0
DA:116,0
DA:117,0
DA:118,0
DA:119,0
DA:126,0
DA:127,0
DA:128,0
DA:129,0
DA:130,0
DA:131,0
DA:132,0
DA:140,1908
DA:142,1908
DA:143,1258
DA:144,1258
DA:145,0
DA:146,0
DA:147,0
DA:148,0
DA:150,1258
DA:153,1258
DA:154,1258
DA:155,1258
DA:156,0
DA:157,0
DA:159,1258
DA:160,96
DA:161,96
DA:162,96
DA:163,1258
DA:164,1258
DA:166,6
DA:168,6
DA:169,6
DA:170,6
DA:171,0
DA:172,0
DA:173,6
DA:174,3
DA:175,3
DA:176,3
DA:177,6
DA:178,6
DA:181,153
DA:182,153
DA:183,153
DA:184,153
DA:187,153
DA:189,153
DA:190,2
DA:191,2
DA:192,2
DA:193,2
DA:195,151
DA:196,151
DA:199,151
DA:201,151
DA:202,151
DA:203,151
DA:204,151
DA:205,151
DA:206,151
DA:207,151
DA:208,151
DA:209,151
DA:210,218
DA:211,68
DA:212,56
DA:213,56
DA:214,50
DA:215,50
DA:216,50
DA:217,50
DA:218,50
DA:219,50
DA:220,5
DA:221,5
DA:222,1
DA:223,1
DA:224,1
DA:225,1
DA:229,7
DA:230,7
DA:231,2
DA:232,2
DA:233,2
DA:234,2
DA:235,2
DA:236,5
DA:237,1
DA:238,4
DA:239,4
DA:240,4
DA:241,4
DA:242,4
DA:243,4
DA:245,3
DA:246,3
DA:247,2
DA:249,1
DA:251,3
DA:252,3
DA:253,3
DA:254,3
DA:255,3
DA:257,2
DA:258,2
DA:259,2
DA:260,4
DA:261,2
DA:262,2
DA:263,2
DA:265,2
DA:266,2
DA:267,2
DA:273,150
DA:274,1
DA:275,1
DA:276,1
DA:277,1
DA:279,149
DA:281,149
DA:282,1
DA:283,1
DA:284,1
DA:285,1
DA:286,1
DA:287,1
DA:288,1
DA:289,1
DA:290,1
DA:292,148
DA:294,148
DA:295,148
DA:296,148
DA:297,148
DA:299,148
DA:301,48
DA:302,45
DA:304,3
DA:306,48
DA:307,48
DA:308,48
DA:310,151
DA:311,151
DA:312,151
DA:314,490
DA:316,490
DA:317,490
DA:319,490
DA:320,16
DA:321,16
DA:322,16
DA:323,1
DA:324,1
DA:325,1
DA:326,1
DA:327,474
DA:328,0
DA:329,0
DA:330,0
DA:331,0
DA:332,0
DA:333,0
DA:335,474
DA:336,146
DA:337,146
DA:338,146
DA:341,490
DA:342,490
DA:344,1
DA:345,1
DA:346,1
DA:347,1
DA:350,1954
DA:352,15
DA:353,15
DA:354,15
DA:355,15
DA:356,15
DA:357,15
DA:358,15
DA:359,0
DA:362,0
DA:363,0
DA:364,0
DA:365,0
DA:366,0
DA:367,0
DA:368,0
DA:376,15
DA:377,0
DA:378,0
DA:379,0
DA:380,0
DA:382,15
DA:383,15
DA:385,15
DA:386,15
DA:387,22
DA:388,22
DA:389,22
DA:390,22
DA:391,22
DA:392,22
DA:393,15
DA:396,15
DA:397,15
DA:398,15
DA:399,15
DA:401,15
DA:402,15
DA:403,15
DA:405,0
DA:406,0
DA:407,0
DA:408,0
DA:409,0
DA:410,0
DA:411,0
DA:412,0
DA:414,0
DA:415,0
DA:416,0
DA:417,0
DA:420,15
DA:422,49
DA:423,49
DA:424,49
DA:425,49
DA:426,49
DA:427,49
DA:430,0
DA:431,0
DA:432,0
DA:433,0
DA:436,49
BRF:0
BRH:0
LF:321
LH:239
end_of_record
SF:/app/implants/lib/eldritch/eldritch-core/src/interpreter/eval/literals.rs
FN:45,_RNvNtNtNtCsjTRrhfWa0WU_13eldritch_core11interpreter4eval8literals20evaluate_set_literal
FN:32,_RNvNtNtNtCsjTRrhfWa0WU_13eldritch_core11interpreter4eval8literals21evaluate_dict_literal
FN:10,_RNvNtNtNtCsjTRrhfWa0WU_13eldritch_core11interpreter4eval8literals21evaluate_list_literal
FN:21,_RNvNtNtNtCsjTRrhfWa0WU_13eldritch_core11interpreter4eval8literals22evaluate_tuple_literal
FN:45,_RNvNtNtNtCs3OupGlkSanV_13eldritch_core11interpreter4eval8literals20evaluate_set_literal
FN:32,_RNvNtNtNtCs3OupGlkSanV_13eldritch_core11interpreter4eval8literals21evaluate_dict_literal
FN:10,_RNvNtNtNtCs3OupGlkSanV_13eldritch_core11interpreter4eval8literals21evaluate_list_literal
FN:21,_RNvNtNtNtCs3OupGlkSanV_13eldritch_core11interpreter4eval8literals22evaluate_tuple_literal
FNDA:133,_RNvNtNtNtCsjTRrhfWa0WU_13eldritch_core11interpreter4eval8literals20evaluate_set_literal
FNDA:95,_RNvNtNtNtCsjTRrhfWa0WU_13eldritch_core11interpreter4eval8literals21evaluate_dict_literal
FNDA:465,_RNvNtNtNtCsjTRrhfWa0WU_13eldritch_core11interpreter4eval8literals21evaluate_list_literal
FNDA:120,_RNvNtNtNtCsjTRrhfWa0WU_13eldritch_core11interpreter4eval8literals22evaluate_tuple_literal
FNDA:0,_RNvNtNtNtCs3OupGlkSanV_13eldritch_core11interpreter4eval8literals20evaluate_set_literal
FNDA:0,_RNvNtNtNtCs3OupGlkSanV_13eldritch_core11interpreter4eval8literals21evaluate_dict_literal
FNDA:0,_RNvNtNtNtCs3OupGlkSanV_13eldritch_core11interpreter4eval8literals21evaluate_list_literal
FNDA:0,_RNvNtNtNtCs3OupGlkSanV_13eldritch_core11interpreter4eval8literals22evaluate_tuple_literal
FNF:4
FNH:4
DA:10,465
DA:11,465
DA:12,465
DA:13,465
DA:14,465
DA:15,1420
DA:16,955
DA:18,465
DA:19,465
DA:21,120
DA:22,120
DA:23,120
DA:24,120
DA:25,120
DA:26,364
DA:27,244
DA:29,120
DA:30,120
DA:32,95
DA:33,95
DA:34,95
DA:35,95
DA:36,95
DA:37,188
DA:38,93
DA:39,93
DA:40,93
DA:42,95
DA:43,95
DA:45,133
DA:46,133
DA:47,133
DA:48,133
DA:50,133
DA:51,363
DA:52,230
DA:53,230
DA:55,133
DA:56,133
BRF:0
BRH:0
LF:39
LH:39
end_of_record
SF:/app/implants/lib/eldritch/eldritch-core/src/interpreter/eval/mod.rs
FN:30,_RNvNtNtCsjTRrhfWa0WU_13eldritch_core11interpreter4eval8evaluate
FN:30,_RNvNtNtCs3OupGlkSanV_13eldritch_core11interpreter4eval8evaluate
FNDA:10467,_RNvNtNtCsjTRrhfWa0WU_13eldritch_core11interpreter4eval8evaluate
FNDA:0,_RNvNtNtCs3OupGlkSanV_13eldritch_core11interpreter4eval8evaluate
FNF:1
FNH:1
DA:30,10467
DA:31,10467
DA:32,10467
DA:33,3601
DA:34,2677
DA:35,619
DA:36,119
DA:37,10
DA:38,1939
DA:39,465
DA:40,120
DA:41,95
DA:42,133
DA:43,91
DA:44,492
DA:45,69
DA:46,69
DA:48,2
DA:50,13
DA:51,13
DA:52,13
DA:53,13
DA:54,13
DA:56,7
DA:57,7
DA:58,7
DA:59,7
DA:60,7
DA:61,7
DA:63,4
DA:64,4
DA:65,4
DA:66,4
DA:67,4
DA:68,8
DA:70,3
DA:71,3
DA:72,3
DA:74,3
DA:75,3
DA:76,2
DA:78,1
DA:81,0
DA:82,0
DA:83,0
DA:86,10467
BRF:0
BRH:0
LF:46
LH:43
end_of_record
SF:/app/implants/lib/eldritch/eldritch-core/src/interpreter/eval/ops.rs
FN:92,_RNCNvNtNtNtCsjTRrhfWa0WU_13eldritch_core11interpreter4eval3ops11evaluate_in0B9_
FN:94,_RNCNvNtNtNtCsjTRrhfWa0WU_13eldritch_core11interpreter4eval3ops11evaluate_ins_0B9_
FN:567,_RNCNvNtNtNtCsjTRrhfWa0WU_13eldritch_core11interpreter4eval3ops17compare_sequences0B9_
FN:574,_RNCNvNtNtNtCsjTRrhfWa0WU_13eldritch_core11interpreter4eval3ops17compare_sequencess0_0B9_
FN:579,_RNCNvNtNtNtCsjTRrhfWa0WU_13eldritch_core11interpreter4eval3ops17compare_sequencess1_0B9_
FN:571,_RNCNvNtNtNtCsjTRrhfWa0WU_13eldritch_core11interpreter4eval3ops17compare_sequencess_0B9_
FN:83,_RNvNtNtNtCsjTRrhfWa0WU_13eldritch_core11interpreter4eval3ops11evaluate_in
FN:20,_RNvNtNtNtCsjTRrhfWa0WU_13eldritch_core11interpreter4eval3ops14apply_unary_op
FN:128,_RNvNtNtNtCsjTRrhfWa0WU_13eldritch_core11interpreter4eval3ops15apply_binary_op
FN:501,_RNvNtNtNtCsjTRrhfWa0WU_13eldritch_core11interpreter4eval3ops15to_int_or_error
FN:54,_RNvNtNtNtCsjTRrhfWa0WU_13eldritch_core11interpreter4eval3ops16apply_logical_op
FN:545,_RNvNtNtNtCsjTRrhfWa0WU_13eldritch_core11interpreter4eval3ops17compare_sequences
FN:523,_RNvNtNtNtCsjTRrhfWa0WU_13eldritch_core11interpreter4eval3ops17to_float_or_error
FN:393,_RNvNtNtNtCsjTRrhfWa0WU_13eldritch_core11interpreter4eval3ops20string_modulo_format
FN:92,_RNCNvNtNtNtCs3OupGlkSanV_13eldritch_core11interpreter4eval3ops11evaluate_in0B9_
FN:94,_RNCNvNtNtNtCs3OupGlkSanV_13eldritch_core11interpreter4eval3ops11evaluate_ins_0B9_
FN:567,_RNCNvNtNtNtCs3OupGlkSanV_13eldritch_core11interpreter4eval3ops17compare_sequences0B9_
FN:574,_RNCNvNtNtNtCs3OupGlkSanV_13eldritch_core11interpreter4eval3ops17compare_sequencess0_0B9_
FN:579,_RNCNvNtNtNtCs3OupGlkSanV_13eldritch_core11interpreter4eval3ops17compare_sequencess1_0B9_
FN:571,_RNCNvNtNtNtCs3OupGlkSanV_13eldritch_core11interpreter4eval3ops17compare_sequencess_0B9_
FN:83,_RNvNtNtNtCs3OupGlkSanV_13eldritch_core11interpreter4eval3ops11evaluate_in
FN:20,_RNvNtNtNtCs3OupGlkSanV_13eldritch_core11interpreter4eval3ops14apply_unary_op
FN:128,_RNvNtNtNtCs3OupGlkSanV_13eldritch_core11interpreter4eval3ops15apply_binary_op
FN:501,_RNvNtNtNtCs3OupGlkSanV_13eldritch_core11interpreter4eval3ops15to_int_or_error
FN:54,_RNvNtNtNtCs3OupGlkSanV_13eldritch_core11interpreter4eval3ops16apply_logical_op
FN:545,_RNvNtNtNtCs3OupGlkSanV_13eldritch_core11interpreter4eval3ops17compare_sequences
FN:523,_RNvNtNtNtCs3OupGlkSanV_13eldritch_core11interpreter4eval3ops17to_float_or_error
FN:393,_RNvNtNtNtCs3OupGlkSanV_13eldritch_core11interpreter4eval3ops20string_modulo_format
FNDA:322,_RNCNvNtNtNtCsjTRrhfWa0WU_13eldritch_core11interpreter4eval3ops11evaluate_in0B9_
FNDA:5,_RNCNvNtNtNtCsjTRrhfWa0WU_13eldritch_core11interpreter4eval3ops11evaluate_ins_0B9_
FNDA:6,_RNCNvNtNtNtCsjTRrhfWa0WU_13eldritch_core11interpreter4eval3ops17compare_sequences0B9_
FNDA:0,_RNCNvNtNtNtCsjTRrhfWa0WU_13eldritch_core11interpreter4eval3ops17compare_sequencess0_0B9_
FNDA:0,_RNCNvNtNtNtCsjTRrhfWa0WU_13eldritch_core11interpreter4eval3ops17compare_sequencess1_0B9_
FNDA:2,_RNCNvNtNtNtCsjTRrhfWa0WU_13eldritch_core11interpreter4eval3ops17compare_sequencess_0B9_
FNDA:77,_RNvNtNtNtCsjTRrhfWa0WU_13eldritch_core11interpreter4eval3ops11evaluate_in
FNDA:119,_RNvNtNtNtCsjTRrhfWa0WU_13eldritch_core11interpreter4eval3ops14apply_unary_op
FNDA:632,_RNvNtNtNtCsjTRrhfWa0WU_13eldritch_core11interpreter4eval3ops15apply_binary_op
FNDA:8,_RNvNtNtNtCsjTRrhfWa0WU_13eldritch_core11interpreter4eval3ops15to_int_or_error
FNDA:10,_RNvNtNtNtCsjTRrhfWa0WU_13eldritch_core11interpreter4eval3ops16apply_logical_op
FNDA:33,_RNvNtNtNtCsjTRrhfWa0WU_13eldritch_core11interpreter4eval3ops17compare_sequences
FNDA:1,_RNvNtNtNtCsjTRrhfWa0WU_13eldritch_core11interpreter4eval3ops17to_float_or_error
FNDA:23,_RNvNtNtNtCsjTRrhfWa0WU_13eldritch_core11interpreter4eval3ops20string_modulo_format
FNDA:0,_RNCNvNtNtNtCs3OupGlkSanV_13eldritch_core11interpreter4eval3ops11evaluate_in0B9_
FNDA:0,_RNCNvNtNtNtCs3OupGlkSanV_13eldritch_core11interpreter4eval3ops11evaluate_ins_0B9_
FNDA:0,_RNCNvNtNtNtCs3OupGlkSanV_13eldritch_core11interpreter4eval3ops17compare_sequences0B9_
FNDA:0,_RNCNvNtNtNtCs3OupGlkSanV_13eldritch_core11interpreter4eval3ops17compare_sequencess0_0B9_
FNDA:0,_RNCNvNtNtNtCs3OupGlkSanV_13eldritch_core11interpreter4eval3ops17compare_sequencess1_0B9_
FNDA:0,_RNCNvNtNtNtCs3OupGlkSanV_13eldritch_core11interpreter4eval3ops17compare_sequencess_0B9_
FNDA:0,_RNvNtNtNtCs3OupGlkSanV_13eldritch_core11interpreter4eval3ops11evaluate_in
FNDA:0,_RNvNtNtNtCs3OupGlkSanV_13eldritch_core11interpreter4eval3ops14apply_unary_op
FNDA:0,_RNvNtNtNtCs3OupGlkSanV_13eldritch_core11interpreter4eval3ops15apply_binary_op
FNDA:0,_RNvNtNtNtCs3OupGlkSanV_13eldritch_core11interpreter4eval3ops15to_int_or_error
FNDA:0,_RNvNtNtNtCs3OupGlkSanV_13eldritch_core11interpreter4eval3ops16apply_logical_op
FNDA:0,_RNvNtNtNtCs3OupGlkSanV_13eldritch_core11interpreter4eval3ops17compare_sequences
FNDA:0,_RNvNtNtNtCs3OupGlkSanV_13eldritch_core11interpreter4eval3ops17to_float_or_error
FNDA:0,_RNvNtNtNtCs3OupGlkSanV_13eldritch_core11interpreter4eval3ops20string_modulo_format
FNF:14
FNH:12
DA:20,119
DA:21,119
DA:22,119
DA:23,119
DA:24,119
DA:25,119
DA:26,119
DA:27,119
DA:28,89
DA:29,84
DA:30,5
DA:31,0
DA:32,0
DA:33,0
DA:34,0
DA:37,25
DA:38,5
DA:39,4
DA:40,1
DA:41,1
DA:42,1
DA:43,1
DA:46,0
DA:47,0
DA:48,0
DA:49,0
DA:52,119
DA:54,10
DA:55,10
DA:56,10
DA:57,10
DA:58,10
DA:59,10
DA:60,10
DA:61,10
DA:62,10
DA:64,5
DA:65,4
DA:66,1
DA:67,1
DA:70,5
DA:71,4
DA:72,1
DA:73,1
DA:75,0
DA:76,0
DA:77,0
DA:78,0
DA:81,10
DA:83,77
DA:84,77
DA:85,77
DA:86,77
DA:87,77
DA:88,77
DA:89,77
DA:90,31
DA:91,31
DA:92,322
DA:94,5
DA:95,3
DA:96,3
DA:98,3
DA:100,32
DA:101,32
DA:102,32
DA:104,8
DA:105,8
DA:106,8
DA:108,0
DA:109,0
DA:110,0
DA:111,0
DA:115,8
DA:117,0
DA:118,0
DA:119,0
DA:120,0
DA:121,0
DA:122,0
DA:123,0
DA:126,77
DA:128,632
DA:129,632
DA:130,632
DA:131,632
DA:132,632
DA:133,632
DA:134,632
DA:135,632
DA:136,631
DA:139,381
DA:140,631
DA:153,250
DA:154,182
DA:156,172
DA:157,78
DA:158,381
DA:161,169
DA:162,459
DA:172,290
DA:173,31
DA:174,31
DA:175,31
DA:176,31
DA:178,2
DA:179,2
DA:181,257
DA:183,169
DA:186,155
DA:187,169
DA:194,14
DA:195,155
DA:197,155
DA:199,65
DA:200,12
DA:201,12
DA:202,12
DA:203,12
DA:204,0
DA:211,2
DA:213,2
DA:214,2
DA:217,20
DA:218,23
DA:220,23
DA:223,2
DA:224,2
DA:225,2
DA:226,2
DA:229,1
DA:230,1
DA:231,0
DA:233,1
DA:234,3
DA:235,3
DA:236,3
DA:237,1
DA:240,1
DA:241,1
DA:242,0
DA:244,1
DA:245,3
DA:246,3
DA:247,3
DA:248,1
DA:253,5
DA:255,5
DA:256,2
DA:257,2
DA:258,2
DA:260,3
DA:261,3
DA:262,3
DA:267,5
DA:268,5
DA:269,5
DA:270,3
DA:271,8
DA:272,8
DA:273,8
DA:274,2
DA:275,5
DA:277,2
DA:278,2
DA:279,2
DA:280,2
DA:281,6
DA:282,6
DA:283,6
DA:284,0
DA:285,2
DA:289,1
DA:290,1
DA:291,1
DA:292,1
DA:296,3
DA:297,3
DA:298,3
DA:299,5
DA:300,5
DA:301,5
DA:302,1
DA:303,3
DA:305,1
DA:306,1
DA:307,1
DA:308,3
DA:309,3
DA:310,3
DA:311,0
DA:312,1
DA:316,3
DA:317,3
DA:318,1
DA:320,2
DA:323,2
DA:324,2
DA:325,0
DA:327,2
DA:332,1
DA:333,1
DA:334,0
DA:335,0
DA:336,0
DA:337,0
DA:338,0
DA:340,1
DA:341,1
DA:342,1
DA:343,1
DA:344,1
DA:349,2
DA:350,2
DA:352,0
DA:353,0
DA:354,0
DA:355,0
DA:356,0
DA:359,2
DA:360,4
DA:361,4
DA:362,4
DA:363,2
DA:367,4
DA:368,4
DA:369,4
DA:370,4
DA:371,4
DA:372,4
DA:373,0
DA:374,0
DA:375,0
DA:376,0
DA:377,0
DA:378,0
DA:379,0
DA:380,0
DA:381,0
DA:382,0
DA:383,0
DA:385,4
DA:386,4
DA:388,4
DA:391,632
DA:393,23
DA:394,23
DA:395,23
DA:396,23
DA:397,23
DA:398,23
DA:399,23
DA:400,23
DA:401,23
DA:402,23
DA:403,5
DA:404,18
DA:407,110
DA:408,91
DA:409,26
DA:411,25
DA:412,3
DA:413,3
DA:414,3
DA:415,22
DA:417,22
DA:419,22
DA:420,1
DA:421,1
DA:422,1
DA:423,1
DA:425,21
DA:426,21
DA:427,21
DA:429,21
DA:430,9
DA:431,9
DA:432,9
DA:434,5
DA:435,4
DA:438,1
DA:439,1
DA:442,1
DA:443,1
DA:446,1
DA:447,1
DA:450,0
DA:451,0
DA:454,0
DA:455,0
DA:458,1
DA:459,1
DA:462,0
DA:463,0
DA:465,2
DA:466,2
DA:467,2
DA:468,2
DA:469,0
DA:472,1
DA:473,1
DA:474,1
DA:475,1
DA:476,1
DA:477,1
DA:478,1
DA:483,1
DA:485,65
DA:486,65
DA:487,65
DA:490,19
DA:491,2
DA:492,2
DA:493,2
DA:494,2
DA:496,17
DA:498,17
DA:499,23
DA:501,8
DA:502,8
DA:503,8
DA:504,8
DA:505,8
DA:506,8
DA:507,8
DA:508,6
DA:509,1
DA:510,0
DA:511,1
DA:512,1
DA:513,1
DA:514,1
DA:515,1
DA:516,1
DA:517,1
DA:518,1
DA:521,8
DA:523,1
DA:524,1
DA:525,1
DA:526,1
DA:527,1
DA:528,1
DA:529,1
DA:530,0
DA:531,1
DA:532,0
DA:533,0
DA:534,0
DA:535,0
DA:536,0
DA:537,0
DA:538,0
DA:539,0
DA:540,0
DA:543,1
DA:545,33
DA:546,33
DA:547,33
DA:548,33
DA:549,33
DA:550,33
DA:552,33
DA:553,33
DA:554,33
DA:556,76
DA:557,76
DA:558,76
DA:560,76
DA:561,11
DA:562,0
DA:563,3
DA:567,6
DA:571,2
DA:574,0
DA:575,0
DA:576,0
DA:579,0
DA:580,0
DA:581,0
DA:583,0
DA:585,65
DA:589,22
DA:590,21
DA:591,0
DA:592,1
DA:593,0
DA:594,0
DA:595,0
DA:596,0
DA:598,33
BRF:0
BRH:0
LF:397
LH:314
end_of_record
SF:/app/implants/lib/eldritch/eldritch-core/src/interpreter/eval/strings.rs
FN:8,_RNvNtNtNtCsjTRrhfWa0WU_13eldritch_core11interpreter4eval7strings16evaluate_fstring
FN:8,_RNvNtNtNtCs3OupGlkSanV_13eldritch_core11interpreter4eval7strings16evaluate_fstring
FNDA:2,_RNvNtNtNtCsjTRrhfWa0WU_13eldritch_core11interpreter4eval7strings16evaluate_fstring
FNDA:0,_RNvNtNtNtCs3OupGlkSanV_13eldritch_core11interpreter4eval7strings16evaluate_fstring
FNF:1
FNH:1
DA:8,2
DA:9,2
DA:10,2
DA:11,2
DA:12,2
DA:13,7
DA:14,5
DA:15,2
DA:16,3
DA:17,3
DA:18,3
DA:22,2
DA:23,2
BRF:0
BRH:0
LF:13
LH:13
end_of_record
SF:/app/implants/lib/eldritch/eldritch-core/src/interpreter/eval/utils.rs
FN:20,_RNCNvNtNtNtCsjTRrhfWa0WU_13eldritch_core11interpreter4eval5utils11to_iterable0B9_
FN:10,_RNvNtNtNtCsjTRrhfWa0WU_13eldritch_core11interpreter4eval5utils11to_iterable
FN:29,_RNvNtNtNtCsjTRrhfWa0WU_13eldritch_core11interpreter4eval5utils16parse_error_kind
FN:20,_RNCNvNtNtNtCs3OupGlkSanV_13eldritch_core11interpreter4eval5utils11to_iterable0B9_
FN:10,_RNvNtNtNtCs3OupGlkSanV_13eldritch_core11interpreter4eval5utils11to_iterable
FN:29,_RNvNtNtNtCs3OupGlkSanV_13eldritch_core11interpreter4eval5utils16parse_error_kind
FNDA:3,_RNCNvNtNtNtCsjTRrhfWa0WU_13eldritch_core11interpreter4eval5utils11to_iterable0B9_
FNDA:33,_RNvNtNtNtCsjTRrhfWa0WU_13eldritch_core11interpreter4eval5utils11to_iterable
FNDA:246,_RNvNtNtNtCsjTRrhfWa0WU_13eldritch_core11interpreter4eval5utils16parse_error_kind
FNDA:0,_RNCNvNtNtNtCs3OupGlkSanV_13eldritch_core11interpreter4eval5utils11to_iterable0B9_
FNDA:0,_RNvNtNtNtCs3OupGlkSanV_13eldritch_core11interpreter4eval5utils11to_iterable
FNDA:0,_RNvNtNtNtCs3OupGlkSanV_13eldritch_core11interpreter4eval5utils16parse_error_kind
FNF:3
FNH:3
DA:10,33
DA:11,33
DA:12,33
DA:13,33
DA:14,33
DA:15,33
DA:16,29
DA:17,0
DA:18,0
DA:19,2
DA:20,3
DA:21,1
DA:22,1
DA:23,1
DA:24,1
DA:27,33
DA:29,246
DA:30,246
DA:31,126
DA:32,120
DA:33,12
DA:34,108
DA:35,7
DA:36,101
DA:37,13
DA:38,88
DA:39,0
DA:40,88
DA:41,0
DA:43,88
DA:45,246
BRF:0
BRH:0
LF:32
LH:28
end_of_record
SF:/app/implants/lib/eldritch/eldritch-core/src/interpreter/exec.rs
FN:158,_RNvNtNtCsjTRrhfWa0WU_13eldritch_core11interpreter4exec13execute_stmts
FN:409,_RNvNtNtCsjTRrhfWa0WU_13eldritch_core11interpreter4exec15try_inplace_add
FN:397,_RNvNtNtCsjTRrhfWa0WU_13eldritch_core11interpreter4exec22augmented_op_to_binary
FN:255,_RNvNtNtCsjTRrhfWa0WU_13eldritch_core11interpreter4exec28execute_augmented_assignment
FN:168,_RNvNtNtCsjTRrhfWa0WU_13eldritch_core11interpreter4exec6assign
FN:16,_RNvNtNtCsjTRrhfWa0WU_13eldritch_core11interpreter4exec7execute
FN:430,_RNCNvNtNtCsjTRrhfWa0WU_13eldritch_core11interpreter4exec15try_inplace_add0B7_
FN:274,_RNCNvNtNtCsjTRrhfWa0WU_13eldritch_core11interpreter4exec28execute_augmented_assignment0B7_
FN:349,_RNCNvNtNtCsjTRrhfWa0WU_13eldritch_core11interpreter4exec28execute_augmented_assignments_0B7_
FN:43,_RNCNvNtNtCsjTRrhfWa0WU_13eldritch_core11interpreter4exec7execute0B7_
FN:76,_RNCNvNtNtCsjTRrhfWa0WU_13eldritch_core11interpreter4exec7executes0_0B7_
FN:75,_RNCNvNtNtCsjTRrhfWa0WU_13eldritch_core11interpreter4exec7executes_0B7_
FN:430,_RNCNvNtNtCs3OupGlkSanV_13eldritch_core11interpreter4exec15try_inplace_add0B7_
FN:274,_RNCNvNtNtCs3OupGlkSanV_13eldritch_core11interpreter4exec28execute_augmented_assignment0B7_
FN:349,_RNCNvNtNtCs3OupGlkSanV_13eldritch_core11interpreter4exec28execute_augmented_assignments_0B7_
FN:43,_RNCNvNtNtCs3OupGlkSanV_13eldritch_core11interpreter4exec7execute0B7_
FN:76,_RNCNvNtNtCs3OupGlkSanV_13eldritch_core11interpreter4exec7executes0_0B7_
FN:75,_RNCNvNtNtCs3OupGlkSanV_13eldritch_core11interpreter4exec7executes_0B7_
FN:158,_RNvNtNtCs3OupGlkSanV_13eldritch_core11interpreter4exec13execute_stmts
FN:409,_RNvNtNtCs3OupGlkSanV_13eldritch_core11interpreter4exec15try_inplace_add
FN:397,_RNvNtNtCs3OupGlkSanV_13eldritch_core11interpreter4exec22augmented_op_to_binary
FN:255,_RNvNtNtCs3OupGlkSanV_13eldritch_core11interpreter4exec28execute_augmented_assignment
FN:168,_RNvNtNtCs3OupGlkSanV_13eldritch_core11interpreter4exec6assign
FN:16,_RNvNtNtCs3OupGlkSanV_13eldritch_core11interpreter4exec7execute
FNDA:257,_RNvNtNtCsjTRrhfWa0WU_13eldritch_core11interpreter4exec13execute_stmts
FNDA:11,_RNvNtNtCsjTRrhfWa0WU_13eldritch_core11interpreter4exec15try_inplace_add
FNDA:13,_RNvNtNtCsjTRrhfWa0WU_13eldritch_core11interpreter4exec22augmented_op_to_binary
FNDA:17,_RNvNtNtCsjTRrhfWa0WU_13eldritch_core11interpreter4exec28execute_augmented_assignment
FNDA:524,_RNvNtNtCsjTRrhfWa0WU_13eldritch_core11interpreter4exec6assign
FNDA:846,_RNvNtNtCsjTRrhfWa0WU_13eldritch_core11interpreter4exec7execute
FNDA:1,_RNCNvNtNtCsjTRrhfWa0WU_13eldritch_core11interpreter4exec15try_inplace_add0B7_
FNDA:0,_RNCNvNtNtCsjTRrhfWa0WU_13eldritch_core11interpreter4exec28execute_augmented_assignment0B7_
FNDA:0,_RNCNvNtNtCsjTRrhfWa0WU_13eldritch_core11interpreter4exec28execute_augmented_assignments_0B7_
FNDA:45,_RNCNvNtNtCsjTRrhfWa0WU_13eldritch_core11interpreter4exec7execute0B7_
FNDA:0,_RNCNvNtNtCsjTRrhfWa0WU_13eldritch_core11interpreter4exec7executes0_0B7_
FNDA:0,_RNCNvNtNtCsjTRrhfWa0WU_13eldritch_core11interpreter4exec7executes_0B7_
FNDA:0,_RNCNvNtNtCs3OupGlkSanV_13eldritch_core11interpreter4exec15try_inplace_add0B7_
FNDA:0,_RNCNvNtNtCs3OupGlkSanV_13eldritch_core11interpreter4exec28execute_augmented_assignment0B7_
FNDA:0,_RNCNvNtNtCs3OupGlkSanV_13eldritch_core11interpreter4exec28execute_augmented_assignments_0B7_
FNDA:0,_RNCNvNtNtCs3OupGlkSanV_13eldritch_core11interpreter4exec7execute0B7_
FNDA:0,_RNCNvNtNtCs3OupGlkSanV_13eldritch_core11interpreter4exec7executes0_0B7_
FNDA:0,_RNCNvNtNtCs3OupGlkSanV_13eldritch_core11interpreter4exec7executes_0B7_
FNDA:0,_RNvNtNtCs3OupGlkSanV_13eldritch_core11interpreter4exec13execute_stmts
FNDA:0,_RNvNtNtCs3OupGlkSanV_13eldritch_core11interpreter4exec15try_inplace_add
FNDA:0,_RNvNtNtCs3OupGlkSanV_13eldritch_core11interpreter4exec22augmented_op_to_binary
FNDA:0,_RNvNtNtCs3OupGlkSanV_13eldritch_core11interpreter4exec28execute_augmented_assignment
FNDA:0,_RNvNtNtCs3OupGlkSanV_13eldritch_core11interpreter4exec6assign
FNDA:0,_RNvNtNtCs3OupGlkSanV_13eldritch_core11interpreter4exec7execute
FNF:12
FNH:8
DA:16,846
DA:17,846
DA:18,0
DA:19,846
DA:21,846
DA:22,134
DA:23,134
DA:25,522
DA:26,522
DA:27,518
DA:29,17
DA:30,17
DA:32,61
DA:33,61
DA:34,61
DA:35,17
DA:36,44
DA:37,10
DA:38,34
DA:40,45
DA:41,45
DA:42,45
DA:43,45
DA:44,45
DA:46,40
DA:47,40
DA:48,86
DA:49,46
DA:50,39
DA:51,2
DA:52,2
DA:53,2
DA:55,3
DA:56,3
DA:57,3
DA:62,40
DA:63,40
DA:64,40
DA:65,40
DA:66,40
DA:67,40
DA:68,40
DA:70,19
DA:71,19
DA:72,19
DA:73,16
DA:74,0
DA:75,0
DA:76,0
DA:77,3
DA:78,0
DA:79,0
DA:80,0
DA:81,0
DA:82,0
DA:83,0
DA:84,0
DA:88,100
DA:90,82
DA:91,82
DA:92,82
DA:93,82
DA:94,82
DA:95,82
DA:96,82
DA:97,82
DA:98,82
DA:101,82
DA:102,58
DA:103,58
DA:104,24
DA:105,20
DA:106,4
DA:108,0
DA:109,0
DA:110,0
DA:111,0
DA:112,0
DA:117,24
DA:118,0
DA:119,0
DA:120,24
DA:122,68
DA:123,68
DA:124,68
DA:127,82
DA:128,82
DA:129,82
DA:131,82
DA:133,1
DA:134,1
DA:137,1
DA:138,1
DA:140,0
DA:141,80
DA:145,1
DA:146,1
DA:147,6
DA:148,0
DA:149,0
DA:150,0
DA:151,0
DA:155,733
DA:156,846
DA:158,257
DA:159,420
DA:160,324
DA:161,221
DA:162,58
DA:163,163
DA:165,154
DA:166,257
DA:168,524
DA:169,524
DA:170,516
DA:171,516
DA:172,516
DA:174,6
DA:176,6
DA:177,3
DA:178,2
DA:180,1
DA:181,1
DA:182,1
DA:183,1
DA:188,5
DA:189,2
DA:190,2
DA:191,2
DA:192,2
DA:193,2
DA:194,2
DA:195,2
DA:196,2
DA:198,3
DA:200,6
DA:201,6
DA:203,3
DA:205,2
DA:206,2
DA:207,2
DA:208,2
DA:209,0
DA:210,0
DA:211,0
DA:213,0
DA:214,0
DA:215,0
DA:216,0
DA:220,0
DA:221,0
DA:222,0
DA:224,0
DA:226,0
DA:227,0
DA:228,0
DA:229,0
DA:230,0
DA:232,0
DA:233,0
DA:234,0
DA:236,2
DA:237,2
DA:238,2
DA:240,0
DA:241,0
DA:242,0
DA:243,0
DA:247,0
DA:248,0
DA:249,0
DA:250,0
DA:253,524
DA:255,17
DA:256,17
DA:257,17
DA:258,17
DA:259,17
DA:260,17
DA:261,17
DA:262,17
DA:265,17
DA:266,13
DA:267,13
DA:269,13
DA:270,4
DA:271,9
DA:273,9
DA:274,0
DA:275,0
DA:276,0
DA:277,0
DA:278,0
DA:281,9
DA:282,9
DA:283,9
DA:284,9
DA:285,9
DA:286,9
DA:287,9
DA:288,9
DA:290,9
DA:291,8
DA:292,8
DA:294,4
DA:295,4
DA:296,4
DA:301,4
DA:302,2
DA:303,2
DA:304,2
DA:306,0
DA:307,0
DA:308,0
DA:309,0
DA:313,2
DA:314,2
DA:315,0
DA:317,2
DA:319,2
DA:320,0
DA:321,0
DA:322,0
DA:323,0
DA:325,2
DA:326,2
DA:328,2
DA:329,2
DA:330,2
DA:331,2
DA:332,0
DA:336,0
DA:337,0
DA:338,0
DA:339,0
DA:344,4
DA:345,0
DA:346,4
DA:348,4
DA:349,0
DA:350,0
DA:351,0
DA:352,0
DA:353,0
DA:355,4
DA:356,4
DA:357,4
DA:358,4
DA:359,4
DA:360,4
DA:361,4
DA:362,4
DA:363,4
DA:366,2
DA:367,1
DA:369,1
DA:370,1
DA:371,0
DA:373,1
DA:374,1
DA:375,0
DA:377,1
DA:379,1
DA:380,1
DA:382,1
DA:383,1
DA:384,1
DA:386,0
DA:389,0
DA:390,0
DA:391,0
DA:392,0
DA:395,17
DA:397,13
DA:398,13
DA:399,7
DA:400,1
DA:401,2
DA:402,1
DA:403,1
DA:404,1
DA:405,0
DA:407,13
DA:409,11
DA:410,11
DA:411,1
DA:413,1
DA:414,0
DA:415,0
DA:416,0
DA:417,1
DA:418,1
DA:419,1
DA:420,1
DA:421,1
DA:423,1
DA:424,1
DA:425,0
DA:426,0
DA:427,1
DA:428,1
DA:429,1
DA:430,1
DA:431,1
DA:432,1
DA:433,2
DA:434,1
DA:435,1
DA:437,1
DA:439,2
DA:440,2
DA:441,0
DA:442,0
DA:444,2
DA:446,2
DA:447,4
DA:448,2
DA:449,2
DA:451,2
DA:453,7
DA:455,11
BRF:0
BRH:0
LF:327
LH:233
end_of_record
SF:/app/implants/lib/eldritch/eldritch-core/src/interpreter/introspection.rs
FN:26,_RNvNtNtCsjTRrhfWa0WU_13eldritch_core11interpreter13introspection13get_type_name
FN:122,_RNvNtNtCsjTRrhfWa0WU_13eldritch_core11interpreter13introspection15find_best_match
FN:46,_RNvNtNtCsjTRrhfWa0WU_13eldritch_core11interpreter13introspection18get_dir_attributes
FN:90,_RNvNtNtCsjTRrhfWa0WU_13eldritch_core11interpreter13introspection20levenshtein_distance
FN:6,_RNvNtNtCsjTRrhfWa0WU_13eldritch_core11interpreter13introspection9is_truthy
FN:122,_RNvNtNtCs3OupGlkSanV_13eldritch_core11interpreter13introspection15find_best_match
FN:90,_RNvNtNtCs3OupGlkSanV_13eldritch_core11interpreter13introspection20levenshtein_distance
FN:26,_RNvNtNtCs3OupGlkSanV_13eldritch_core11interpreter13introspection13get_type_name
FN:46,_RNvNtNtCs3OupGlkSanV_13eldritch_core11interpreter13introspection18get_dir_attributes
FN:6,_RNvNtNtCs3OupGlkSanV_13eldritch_core11interpreter13introspection9is_truthy
FNDA:86,_RNvNtNtCsjTRrhfWa0WU_13eldritch_core11interpreter13introspection13get_type_name
FNDA:11,_RNvNtNtCsjTRrhfWa0WU_13eldritch_core11interpreter13introspection15find_best_match
FNDA:8,_RNvNtNtCsjTRrhfWa0WU_13eldritch_core11interpreter13introspection18get_dir_attributes
FNDA:16,_RNvNtNtCsjTRrhfWa0WU_13eldritch_core11interpreter13introspection20levenshtein_distance
FNDA:405,_RNvNtNtCsjTRrhfWa0WU_13eldritch_core11interpreter13introspection9is_truthy
FNDA:0,_RNvNtNtCs3OupGlkSanV_13eldritch_core11interpreter13introspection15find_best_match
FNDA:0,_RNvNtNtCs3OupGlkSanV_13eldritch_core11interpreter13introspection20levenshtein_distance
FNDA:0,_RNvNtNtCs3OupGlkSanV_13eldritch_core11interpreter13introspection13get_type_name
FNDA:0,_RNvNtNtCs3OupGlkSanV_13eldritch_core11interpreter13introspection18get_dir_attributes
FNDA:0,_RNvNtNtCs3OupGlkSanV_13eldritch_core11interpreter13introspection9is_truthy
FNF:5
FNH:5
DA:6,405
DA:7,405
DA:8,2
DA:9,374
DA:10,11
DA:11,0
DA:12,5
DA:13,2
DA:14,4
DA:15,2
DA:16,0
DA:17,2
DA:22,3
DA:24,405
DA:26,86
DA:27,86
DA:28,1
DA:29,1
DA:30,43
DA:31,1
DA:32,17
DA:33,6
DA:34,5
DA:35,7
DA:36,2
DA:37,3
DA:41,0
DA:42,0
DA:44,86
DA:46,8
DA:47,8
DA:48,1
DA:49,1
DA:50,1
DA:51,1
DA:52,1
DA:53,1
DA:54,1
DA:55,1
DA:57,1
DA:58,1
DA:59,1
DA:60,1
DA:61,1
DA:62,1
DA:63,1
DA:65,0
DA:66,0
DA:67,0
DA:68,0
DA:69,0
DA:70,0
DA:71,0
DA:72,0
DA:73,0
DA:74,0
DA:75,0
DA:76,0
DA:77,0
DA:78,0
DA:79,0
DA:81,1
DA:82,3
DA:83,2
DA:85,8
DA:86,8
DA:87,8
DA:90,16
DA:91,16
DA:92,16
DA:93,16
DA:94,16
DA:96,16
DA:98,140
DA:99,140
DA:100,140
DA:101,106
DA:102,106
DA:103,106
DA:105,124
DA:106,738
DA:107,738
DA:108,63
DA:110,675
DA:112,738
DA:113,738
DA:114,738
DA:115,738
DA:119,16
DA:120,16
DA:122,11
DA:123,11
DA:124,11
DA:130,11
DA:132,234
DA:134,223
DA:135,223
DA:136,207
DA:137,16
DA:139,16
DA:140,16
DA:141,1
DA:142,1
DA:143,15
DA:146,11
DA:147,11
BRF:0
BRH:0
LF:106
LH:87
end_of_record
SF:/app/implants/lib/eldritch/eldritch-core/src/interpreter/methods/bytes.rs
FN:5,_RNvNtNtNtCsjTRrhfWa0WU_13eldritch_core11interpreter7methods5bytes20handle_bytes_methods
FN:11,_RNCNvNtNtNtCsjTRrhfWa0WU_13eldritch_core11interpreter7methods5bytes20handle_bytes_methods0B9_
FN:11,_RNCNvNtNtNtCs3OupGlkSanV_13eldritch_core11interpreter7methods5bytes20handle_bytes_methods0B9_
FN:5,_RNvNtNtNtCs3OupGlkSanV_13eldritch_core11interpreter7methods5bytes20handle_bytes_methods
FNDA:2,_RNvNtNtNtCsjTRrhfWa0WU_13eldritch_core11interpreter7methods5bytes20handle_bytes_methods
FNDA:2,_RNCNvNtNtNtCsjTRrhfWa0WU_13eldritch_core11interpreter7methods5bytes20handle_bytes_methods0B9_
FNDA:0,_RNCNvNtNtNtCs3OupGlkSanV_13eldritch_core11interpreter7methods5bytes20handle_bytes_methods0B9_
FNDA:0,_RNvNtNtNtCs3OupGlkSanV_13eldritch_core11interpreter7methods5bytes20handle_bytes_methods
FNF:2
FNH:2
DA:5,2
DA:6,2
DA:7,2
DA:8,2
DA:9,2
DA:10,2
DA:11,2
DA:12,2
DA:13,2
DA:14,2
DA:15,0
DA:18,0
DA:20,2
BRF:0
BRH:0
LF:14
LH:12
end_of_record
SF:/app/implants/lib/eldritch/eldritch-core/src/interpreter/methods/dict.rs
FN:10,_RNvNtNtNtCsjTRrhfWa0WU_13eldritch_core11interpreter7methods4dict19handle_dict_methods
FN:31,_RNCNCNvNtNtNtCsjTRrhfWa0WU_13eldritch_core11interpreter7methods4dict19handle_dict_methodss0_00Bb_
FN:16,_RNCNvNtNtNtCsjTRrhfWa0WU_13eldritch_core11interpreter7methods4dict19handle_dict_methods0B9_
FN:26,_RNCNvNtNtNtCsjTRrhfWa0WU_13eldritch_core11interpreter7methods4dict19handle_dict_methodss0_0B9_
FN:35,_RNCNvNtNtNtCsjTRrhfWa0WU_13eldritch_core11interpreter7methods4dict19handle_dict_methodss1_0B9_
FN:48,_RNCNvNtNtNtCsjTRrhfWa0WU_13eldritch_core11interpreter7methods4dict19handle_dict_methodss2_0B9_
FN:59,_RNCNvNtNtNtCsjTRrhfWa0WU_13eldritch_core11interpreter7methods4dict19handle_dict_methodss3_0B9_
FN:70,_RNCNvNtNtNtCsjTRrhfWa0WU_13eldritch_core11interpreter7methods4dict19handle_dict_methodss4_0B9_
FN:75,_RNCNvNtNtNtCsjTRrhfWa0WU_13eldritch_core11interpreter7methods4dict19handle_dict_methodss5_0B9_
FN:88,_RNCNvNtNtNtCsjTRrhfWa0WU_13eldritch_core11interpreter7methods4dict19handle_dict_methodss6_0B9_
FN:21,_RNCNvNtNtNtCsjTRrhfWa0WU_13eldritch_core11interpreter7methods4dict19handle_dict_methodss_0B9_
FN:31,_RNCNCNvNtNtNtCs3OupGlkSanV_13eldritch_core11interpreter7methods4dict19handle_dict_methodss0_00Bb_
FN:16,_RNCNvNtNtNtCs3OupGlkSanV_13eldritch_core11interpreter7methods4dict19handle_dict_methods0B9_
FN:26,_RNCNvNtNtNtCs3OupGlkSanV_13eldritch_core11interpreter7methods4dict19handle_dict_methodss0_0B9_
FN:35,_RNCNvNtNtNtCs3OupGlkSanV_13eldritch_core11interpreter7methods4dict19handle_dict_methodss1_0B9_
FN:48,_RNCNvNtNtNtCs3OupGlkSanV_13eldritch_core11interpreter7methods4dict19handle_dict_methodss2_0B9_
FN:59,_RNCNvNtNtNtCs3OupGlkSanV_13eldritch_core11interpreter7methods4dict19handle_dict_methodss3_0B9_
FN:70,_RNCNvNtNtNtCs3OupGlkSanV_13eldritch_core11interpreter7methods4dict19handle_dict_methodss4_0B9_
FN:75,_RNCNvNtNtNtCs3OupGlkSanV_13eldritch_core11interpreter7methods4dict19handle_dict_methodss5_0B9_
FN:88,_RNCNvNtNtNtCs3OupGlkSanV_13eldritch_core11interpreter7methods4dict19handle_dict_methodss6_0B9_
FN:21,_RNCNvNtNtNtCs3OupGlkSanV_13eldritch_core11interpreter7methods4dict19handle_dict_methodss_0B9_
FN:10,_RNvNtNtNtCs3OupGlkSanV_13eldritch_core11interpreter7methods4dict19handle_dict_methods
FNDA:47,_RNvNtNtNtCsjTRrhfWa0WU_13eldritch_core11interpreter7methods4dict19handle_dict_methods
FNDA:4,_RNCNCNvNtNtNtCsjTRrhfWa0WU_13eldritch_core11interpreter7methods4dict19handle_dict_methodss0_00Bb_
FNDA:2,_RNCNvNtNtNtCsjTRrhfWa0WU_13eldritch_core11interpreter7methods4dict19handle_dict_methods0B9_
FNDA:2,_RNCNvNtNtNtCsjTRrhfWa0WU_13eldritch_core11interpreter7methods4dict19handle_dict_methodss0_0B9_
FNDA:14,_RNCNvNtNtNtCsjTRrhfWa0WU_13eldritch_core11interpreter7methods4dict19handle_dict_methodss1_0B9_
FNDA:11,_RNCNvNtNtNtCsjTRrhfWa0WU_13eldritch_core11interpreter7methods4dict19handle_dict_methodss2_0B9_
FNDA:6,_RNCNvNtNtNtCsjTRrhfWa0WU_13eldritch_core11interpreter7methods4dict19handle_dict_methodss3_0B9_
FNDA:2,_RNCNvNtNtNtCsjTRrhfWa0WU_13eldritch_core11interpreter7methods4dict19handle_dict_methodss4_0B9_
FNDA:4,_RNCNvNtNtNtCsjTRrhfWa0WU_13eldritch_core11interpreter7methods4dict19handle_dict_methodss5_0B9_
FNDA:3,_RNCNvNtNtNtCsjTRrhfWa0WU_13eldritch_core11interpreter7methods4dict19handle_dict_methodss6_0B9_
FNDA:2,_RNCNvNtNtNtCsjTRrhfWa0WU_13eldritch_core11interpreter7methods4dict19handle_dict_methodss_0B9_
FNDA:0,_RNCNCNvNtNtNtCs3OupGlkSanV_13eldritch_core11interpreter7methods4dict19handle_dict_methodss0_00Bb_
FNDA:0,_RNCNvNtNtNtCs3OupGlkSanV_13eldritch_core11interpreter7methods4dict19handle_dict_methods0B9_
FNDA:0,_RNCNvNtNtNtCs3OupGlkSanV_13eldritch_core11interpreter7methods4dict19handle_dict_methodss0_0B9_
FNDA:0,_RNCNvNtNtNtCs3OupGlkSanV_13eldritch_core11interpreter7methods4dict19handle_dict_methodss1_0B9_
FNDA:0,_RNCNvNtNtNtCs3OupGlkSanV_13eldritch_core11interpreter7methods4dict19handle_dict_methodss2_0B9_
FNDA:0,_RNCNvNtNtNtCs3OupGlkSanV_13eldritch_core11interpreter7methods4dict19handle_dict_methodss3_0B9_
FNDA:0,_RNCNvNtNtNtCs3OupGlkSanV_13eldritch_core11interpreter7methods4dict19handle_dict_methodss4_0B9_
FNDA:0,_RNCNvNtNtNtCs3OupGlkSanV_13eldritch_core11interpreter7methods4dict19handle_dict_methodss5_0B9_
FNDA:0,_RNCNvNtNtNtCs3OupGlkSanV_13eldritch_core11interpreter7methods4dict19handle_dict_methodss6_0B9_
FNDA:0,_RNCNvNtNtNtCs3OupGlkSanV_13eldritch_core11interpreter7methods4dict19handle_dict_methodss_0B9_
FNDA:0,_RNvNtNtNtCs3OupGlkSanV_13eldritch_core11interpreter7methods4dict19handle_dict_methods
FNF:11
FNH:11
DA:10,47
DA:11,47
DA:12,47
DA:13,47
DA:14,47
DA:15,47
DA:16,47
DA:17,2
DA:18,2
DA:19,2
DA:21,45
DA:22,2
DA:23,2
DA:24,2
DA:26,43
DA:27,2
DA:28,2
DA:29,2
DA:30,2
DA:31,4
DA:32,2
DA:33,2
DA:35,41
DA:36,14
DA:37,9
DA:38,9
DA:39,4
DA:41,5
DA:43,9
DA:44,4
DA:45,5
DA:48,27
DA:49,11
DA:50,6
DA:51,2
DA:52,2
DA:53,2
DA:54,2
DA:56,4
DA:59,16
DA:60,6
DA:61,6
DA:62,6
DA:63,6
DA:64,2
DA:65,2
DA:67,4
DA:70,10
DA:71,2
DA:72,2
DA:73,2
DA:75,8
DA:76,4
DA:77,3
DA:78,3
DA:79,3
DA:80,1
DA:81,2
DA:82,2
DA:83,1
DA:85,1
DA:88,4
DA:89,3
DA:90,3
DA:91,3
DA:92,2
DA:94,1
DA:96,3
DA:97,3
DA:98,1
DA:100,2
DA:101,2
DA:104,1
DA:106,47
BRF:0
BRH:0
LF:84
LH:84
end_of_record
SF:/app/implants/lib/eldritch/eldritch-core/src/interpreter/methods/list.rs
FN:62,_RNCNCNvNtNtNtCsjTRrhfWa0WU_13eldritch_core11interpreter7methods4list19handle_list_methodss1_00Bb_
FN:73,_RNCNCNvNtNtNtCsjTRrhfWa0WU_13eldritch_core11interpreter7methods4list19handle_list_methodss2_00Bb_
FN:90,_RNCNCNvNtNtNtCsjTRrhfWa0WU_13eldritch_core11interpreter7methods4list19handle_list_methodss4_00Bb_
FN:17,_RNCNvNtNtNtCsjTRrhfWa0WU_13eldritch_core11interpreter7methods4list19handle_list_methods0B9_
FN:41,_RNCNvNtNtNtCsjTRrhfWa0WU_13eldritch_core11interpreter7methods4list19handle_list_methodss0_0B9_
FN:58,_RNCNvNtNtNtCsjTRrhfWa0WU_13eldritch_core11interpreter7methods4list19handle_list_methodss1_0B9_
FN:69,_RNCNvNtNtNtCsjTRrhfWa0WU_13eldritch_core11interpreter7methods4list19handle_list_methodss2_0B9_
FN:79,_RNCNvNtNtNtCsjTRrhfWa0WU_13eldritch_core11interpreter7methods4list19handle_list_methodss3_0B9_
FN:87,_RNCNvNtNtNtCsjTRrhfWa0WU_13eldritch_core11interpreter7methods4list19handle_list_methodss4_0B9_
FN:22,_RNCNvNtNtNtCsjTRrhfWa0WU_13eldritch_core11interpreter7methods4list19handle_list_methodss_0B9_
FN:11,_RNvNtNtNtCsjTRrhfWa0WU_13eldritch_core11interpreter7methods4list19handle_list_methods
FN:62,_RNCNCNvNtNtNtCs3OupGlkSanV_13eldritch_core11interpreter7methods4list19handle_list_methodss1_00Bb_
FN:73,_RNCNCNvNtNtNtCs3OupGlkSanV_13eldritch_core11interpreter7methods4list19handle_list_methodss2_00Bb_
FN:90,_RNCNCNvNtNtNtCs3OupGlkSanV_13eldritch_core11interpreter7methods4list19handle_list_methodss4_00Bb_
FN:17,_RNCNvNtNtNtCs3OupGlkSanV_13eldritch_core11interpreter7methods4list19handle_list_methods0B9_
FN:41,_RNCNvNtNtNtCs3OupGlkSanV_13eldritch_core11interpreter7methods4list19handle_list_methodss0_0B9_
FN:58,_RNCNvNtNtNtCs3OupGlkSanV_13eldritch_core11interpreter7methods4list19handle_list_methodss1_0B9_
FN:69,_RNCNvNtNtNtCs3OupGlkSanV_13eldritch_core11interpreter7methods4list19handle_list_methodss2_0B9_
FN:79,_RNCNvNtNtNtCs3OupGlkSanV_13eldritch_core11interpreter7methods4list19handle_list_methodss3_0B9_
FN:87,_RNCNvNtNtNtCs3OupGlkSanV_13eldritch_core11interpreter7methods4list19handle_list_methodss4_0B9_
FN:22,_RNCNvNtNtNtCs3OupGlkSanV_13eldritch_core11interpreter7methods4list19handle_list_methodss_0B9_
FN:11,_RNvNtNtNtCs3OupGlkSanV_13eldritch_core11interpreter7methods4list19handle_list_methods
FNDA:19,_RNCNCNvNtNtNtCsjTRrhfWa0WU_13eldritch_core11interpreter7methods4list19handle_list_methodss1_00Bb_
FNDA:11,_RNCNCNvNtNtNtCsjTRrhfWa0WU_13eldritch_core11interpreter7methods4list19handle_list_methodss2_00Bb_
FNDA:13,_RNCNCNvNtNtNtCsjTRrhfWa0WU_13eldritch_core11interpreter7methods4list19handle_list_methodss4_00Bb_
FNDA:28,_RNCNvNtNtNtCsjTRrhfWa0WU_13eldritch_core11interpreter7methods4list19handle_list_methods0B9_
FNDA:17,_RNCNvNtNtNtCsjTRrhfWa0WU_13eldritch_core11interpreter7methods4list19handle_list_methodss0_0B9_
FNDA:13,_RNCNvNtNtNtCsjTRrhfWa0WU_13eldritch_core11interpreter7methods4list19handle_list_methodss1_0B9_
FNDA:10,_RNCNvNtNtNtCsjTRrhfWa0WU_13eldritch_core11interpreter7methods4list19handle_list_methodss2_0B9_
FNDA:6,_RNCNvNtNtNtCsjTRrhfWa0WU_13eldritch_core11interpreter7methods4list19handle_list_methodss3_0B9_
FNDA:9,_RNCNvNtNtNtCsjTRrhfWa0WU_13eldritch_core11interpreter7methods4list19handle_list_methodss4_0B9_
FNDA:14,_RNCNvNtNtNtCsjTRrhfWa0WU_13eldritch_core11interpreter7methods4list19handle_list_methodss_0B9_
FNDA:99,_RNvNtNtNtCsjTRrhfWa0WU_13eldritch_core11interpreter7methods4list19handle_list_methods
FNDA:0,_RNCNCNvNtNtNtCs3OupGlkSanV_13eldritch_core11interpreter7methods4list19handle_list_methodss1_00Bb_
FNDA:0,_RNCNCNvNtNtNtCs3OupGlkSanV_13eldritch_core11interpreter7methods4list19handle_list_methodss2_00Bb_
FNDA:0,_RNCNCNvNtNtNtCs3OupGlkSanV_13eldritch_core11interpreter7methods4list19handle_list_methodss4_00Bb_
FNDA:0,_RNCNvNtNtNtCs3OupGlkSanV_13eldritch_core11interpreter7methods4list19handle_list_methods0B9_
FNDA:0,_RNCNvNtNtNtCs3OupGlkSanV_13eldritch_core11interpreter7methods4list19handle_list_methodss0_0B9_
FNDA:0,_RNCNvNtNtNtCs3OupGlkSanV_13eldritch_core11interpreter7methods4list19handle_list_methodss1_0B9_
FNDA:0,_RNCNvNtNtNtCs3OupGlkSanV_13eldritch_core11interpreter7methods4list19handle_list_methodss2_0B9_
FNDA:0,_RNCNvNtNtNtCs3OupGlkSanV_13eldritch_core11interpreter7methods4list19handle_list_methodss3_0B9_
FNDA:0,_RNCNvNtNtNtCs3OupGlkSanV_13eldritch_core11interpreter7methods4list19handle_list_methodss4_0B9_
FNDA:0,_RNCNvNtNtNtCs3OupGlkSanV_13eldritch_core11interpreter7methods4list19handle_list_methodss_0B9_
FNDA:0,_RNvNtNtNtCs3OupGlkSanV_13eldritch_core11interpreter7methods4list19handle_list_methods
FNF:11
FNH:11
DA:11,99
DA:12,99
DA:13,99
DA:14,99
DA:15,99
DA:16,99
DA:17,99
DA:18,28
DA:19,23
DA:20,23
DA:22,71
DA:23,14
DA:24,11
DA:25,11
DA:26,4
DA:27,4
DA:28,4
DA:29,4
DA:30,4
DA:31,1
DA:33,6
DA:34,6
DA:35,6
DA:36,6
DA:39,5
DA:41,57
DA:42,17
DA:43,13
DA:44,10
DA:45,3
DA:47,10
DA:48,10
DA:49,10
DA:50,10
DA:51,4
DA:53,6
DA:55,10
DA:56,10
DA:58,40
DA:59,13
DA:60,10
DA:61,10
DA:62,19
DA:63,6
DA:64,6
DA:66,4
DA:69,27
DA:70,10
DA:71,7
DA:72,7
DA:73,11
DA:74,3
DA:76,4
DA:79,17
DA:80,6
DA:81,6
DA:82,2
DA:84,4
DA:87,11
DA:88,9
DA:89,8
DA:90,13
DA:91,8
DA:93,2
DA:95,99
BRF:0
BRH:0
LF:75
LH:75
end_of_record
SF:/app/implants/lib/eldritch/eldritch-core/src/interpreter/methods/mod.rs
FN:130,_RNvNtNtCsjTRrhfWa0WU_13eldritch_core11interpreter7methods17call_bound_method
FN:51,_RNvNtNtCsjTRrhfWa0WU_13eldritch_core11interpreter7methods18get_native_methods
FN:40,_RNvXNtNtCsjTRrhfWa0WU_13eldritch_core11interpreter7methodsSNtNtB6_3ast5ValueNtB2_8ArgCheck13require_range
FN:28,_RNvXNtNtCsjTRrhfWa0WU_13eldritch_core11interpreter7methodsSNtNtB6_3ast5ValueNtB2_8ArgCheck7require
FN:51,_RNvNtNtCs3OupGlkSanV_13eldritch_core11interpreter7methods18get_native_methods
FN:130,_RNvNtNtCs3OupGlkSanV_13eldritch_core11interpreter7methods17call_bound_method
FN:40,_RNvXNtNtCs3OupGlkSanV_13eldritch_core11interpreter7methodsSNtNtB6_3ast5ValueNtB2_8ArgCheck13require_range
FN:28,_RNvXNtNtCs3OupGlkSanV_13eldritch_core11interpreter7methodsSNtNtB6_3ast5ValueNtB2_8ArgCheck7require
FNDA:474,_RNvNtNtCsjTRrhfWa0WU_13eldritch_core11interpreter7methods17call_bound_method
FNDA:7,_RNvNtNtCsjTRrhfWa0WU_13eldritch_core11interpreter7methods18get_native_methods
FNDA:42,_RNvXNtNtCsjTRrhfWa0WU_13eldritch_core11interpreter7methodsSNtNtB6_3ast5ValueNtB2_8ArgCheck13require_range
FNDA:394,_RNvXNtNtCsjTRrhfWa0WU_13eldritch_core11interpreter7methodsSNtNtB6_3ast5ValueNtB2_8ArgCheck7require
FNDA:0,_RNvNtNtCs3OupGlkSanV_13eldritch_core11interpreter7methods18get_native_methods
FNDA:0,_RNvNtNtCs3OupGlkSanV_13eldritch_core11interpreter7methods17call_bound_method
FNDA:0,_RNvXNtNtCs3OupGlkSanV_13eldritch_core11interpreter7methodsSNtNtB6_3ast5ValueNtB2_8ArgCheck13require_range
FNDA:0,_RNvXNtNtCs3OupGlkSanV_13eldritch_core11interpreter7methodsSNtNtB6_3ast5ValueNtB2_8ArgCheck7require
FNF:4
FNH:4
DA:28,394
DA:29,394
DA:30,80
DA:31,80
DA:34,80
DA:36,314
DA:37,314
DA:38,394
DA:40,42
DA:41,42
DA:42,9
DA:43,9
DA:44,9
DA:45,9
DA:46,33
DA:47,33
DA:48,42
DA:51,7
DA:52,7
DA:53,2
DA:54,2
DA:55,2
DA:56,2
DA:57,2
DA:58,2
DA:59,2
DA:60,2
DA:62,1
DA:63,1
DA:64,1
DA:65,1
DA:66,1
DA:67,1
DA:68,1
DA:69,1
DA:70,1
DA:71,1
DA:73,0
DA:74,0
DA:75,0
DA:76,0
DA:77,0
DA:78,0
DA:79,0
DA:80,0
DA:81,0
DA:82,0
DA:83,0
DA:84,0
DA:85,0
DA:86,0
DA:87,0
DA:89,1
DA:90,1
DA:91,1
DA:92,1
DA:93,1
DA:94,1
DA:95,1
DA:96,1
DA:97,1
DA:98,1
DA:99,1
DA:100,1
DA:101,1
DA:102,1
DA:103,1
DA:104,1
DA:105,1
DA:106,1
DA:107,1
DA:108,1
DA:109,1
DA:110,1
DA:111,1
DA:112,1
DA:113,1
DA:114,1
DA:115,1
DA:116,1
DA:117,1
DA:118,1
DA:119,1
DA:120,1
DA:121,1
DA:122,1
DA:123,1
DA:125,0
DA:126,3
DA:128,7
DA:130,474
DA:131,474
DA:132,99
DA:133,47
DA:134,142
DA:135,181
DA:136,2
DA:137,3
DA:140,474
DA:141,468
DA:143,6
DA:144,6
DA:145,6
DA:149,6
DA:150,6
DA:151,1
DA:152,5
DA:153,6
DA:156,474
BRF:0
BRH:0
LF:109
LH:93
end_of_record
SF:/app/implants/lib/eldritch/eldritch-core/src/interpreter/methods/set.rs
FN:11,_RNvNtNtNtCsjTRrhfWa0WU_13eldritch_core11interpreter7methods3set16get_set_elements
FN:25,_RNvNtNtNtCsjTRrhfWa0WU_13eldritch_core11interpreter7methods3set18handle_set_methods
FN:17,_RNCNvNtNtNtCsjTRrhfWa0WU_13eldritch_core11interpreter7methods3set16get_set_elements0B9_
FN:31,_RNCNvNtNtNtCsjTRrhfWa0WU_13eldritch_core11interpreter7methods3set18handle_set_methods0B9_
FN:41,_RNCNvNtNtNtCsjTRrhfWa0WU_13eldritch_core11interpreter7methods3set18handle_set_methodss0_0B9_
FN:45,_RNCNvNtNtNtCsjTRrhfWa0WU_13eldritch_core11interpreter7methods3set18handle_set_methodss1_0B9_
FN:51,_RNCNvNtNtNtCsjTRrhfWa0WU_13eldritch_core11interpreter7methods3set18handle_set_methodss2_0B9_
FN:56,_RNCNvNtNtNtCsjTRrhfWa0WU_13eldritch_core11interpreter7methods3set18handle_set_methodss3_0B9_
FN:62,_RNCNvNtNtNtCsjTRrhfWa0WU_13eldritch_core11interpreter7methods3set18handle_set_methodss4_0B9_
FN:67,_RNCNvNtNtNtCsjTRrhfWa0WU_13eldritch_core11interpreter7methods3set18handle_set_methodss5_0B9_
FN:72,_RNCNvNtNtNtCsjTRrhfWa0WU_13eldritch_core11interpreter7methods3set18handle_set_methodss6_0B9_
FN:77,_RNCNvNtNtNtCsjTRrhfWa0WU_13eldritch_core11interpreter7methods3set18handle_set_methodss7_0B9_
FN:91,_RNCNvNtNtNtCsjTRrhfWa0WU_13eldritch_core11interpreter7methods3set18handle_set_methodss8_0B9_
FN:98,_RNCNvNtNtNtCsjTRrhfWa0WU_13eldritch_core11interpreter7methods3set18handle_set_methodss9_0B9_
FN:36,_RNCNvNtNtNtCsjTRrhfWa0WU_13eldritch_core11interpreter7methods3set18handle_set_methodss_0B9_
FN:104,_RNCNvNtNtNtCsjTRrhfWa0WU_13eldritch_core11interpreter7methods3set18handle_set_methodssa_0B9_
FN:110,_RNCNvNtNtNtCsjTRrhfWa0WU_13eldritch_core11interpreter7methods3set18handle_set_methodssb_0B9_
FN:17,_RNCNvNtNtNtCs3OupGlkSanV_13eldritch_core11interpreter7methods3set16get_set_elements0B9_
FN:31,_RNCNvNtNtNtCs3OupGlkSanV_13eldritch_core11interpreter7methods3set18handle_set_methods0B9_
FN:41,_RNCNvNtNtNtCs3OupGlkSanV_13eldritch_core11interpreter7methods3set18handle_set_methodss0_0B9_
FN:45,_RNCNvNtNtNtCs3OupGlkSanV_13eldritch_core11interpreter7methods3set18handle_set_methodss1_0B9_
FN:51,_RNCNvNtNtNtCs3OupGlkSanV_13eldritch_core11interpreter7methods3set18handle_set_methodss2_0B9_
FN:56,_RNCNvNtNtNtCs3OupGlkSanV_13eldritch_core11interpreter7methods3set18handle_set_methodss3_0B9_
FN:62,_RNCNvNtNtNtCs3OupGlkSanV_13eldritch_core11interpreter7methods3set18handle_set_methodss4_0B9_
FN:67,_RNCNvNtNtNtCs3OupGlkSanV_13eldritch_core11interpreter7methods3set18handle_set_methodss5_0B9_
FN:72,_RNCNvNtNtNtCs3OupGlkSanV_13eldritch_core11interpreter7methods3set18handle_set_methodss6_0B9_
FN:77,_RNCNvNtNtNtCs3OupGlkSanV_13eldritch_core11interpreter7methods3set18handle_set_methodss7_0B9_
FN:91,_RNCNvNtNtNtCs3OupGlkSanV_13eldritch_core11interpreter7methods3set18handle_set_methodss8_0B9_
FN:98,_RNCNvNtNtNtCs3OupGlkSanV_13eldritch_core11interpreter7methods3set18handle_set_methodss9_0B9_
FN:36,_RNCNvNtNtNtCs3OupGlkSanV_13eldritch_core11interpreter7methods3set18handle_set_methodss_0B9_
FN:104,_RNCNvNtNtNtCs3OupGlkSanV_13eldritch_core11interpreter7methods3set18handle_set_methodssa_0B9_
FN:110,_RNCNvNtNtNtCs3OupGlkSanV_13eldritch_core11interpreter7methods3set18handle_set_methodssb_0B9_
FN:11,_RNvNtNtNtCs3OupGlkSanV_13eldritch_core11interpreter7methods3set16get_set_elements
FN:25,_RNvNtNtNtCs3OupGlkSanV_13eldritch_core11interpreter7methods3set18handle_set_methods
FNDA:79,_RNvNtNtNtCsjTRrhfWa0WU_13eldritch_core11interpreter7methods3set16get_set_elements
FNDA:142,_RNvNtNtNtCsjTRrhfWa0WU_13eldritch_core11interpreter7methods3set18handle_set_methods
FNDA:14,_RNCNvNtNtNtCsjTRrhfWa0WU_13eldritch_core11interpreter7methods3set16get_set_elements0B9_
FNDA:13,_RNCNvNtNtNtCsjTRrhfWa0WU_13eldritch_core11interpreter7methods3set18handle_set_methods0B9_
FNDA:3,_RNCNvNtNtNtCsjTRrhfWa0WU_13eldritch_core11interpreter7methods3set18handle_set_methodss0_0B9_
FNDA:12,_RNCNvNtNtNtCsjTRrhfWa0WU_13eldritch_core11interpreter7methods3set18handle_set_methodss1_0B9_
FNDA:6,_RNCNvNtNtNtCsjTRrhfWa0WU_13eldritch_core11interpreter7methods3set18handle_set_methodss2_0B9_
FNDA:11,_RNCNvNtNtNtCsjTRrhfWa0WU_13eldritch_core11interpreter7methods3set18handle_set_methodss3_0B9_
FNDA:14,_RNCNvNtNtNtCsjTRrhfWa0WU_13eldritch_core11interpreter7methods3set18handle_set_methodss4_0B9_
FNDA:13,_RNCNvNtNtNtCsjTRrhfWa0WU_13eldritch_core11interpreter7methods3set18handle_set_methodss5_0B9_
FNDA:13,_RNCNvNtNtNtCsjTRrhfWa0WU_13eldritch_core11interpreter7methods3set18handle_set_methodss6_0B9_
FNDA:13,_RNCNvNtNtNtCsjTRrhfWa0WU_13eldritch_core11interpreter7methods3set18handle_set_methodss7_0B9_
FNDA:8,_RNCNvNtNtNtCsjTRrhfWa0WU_13eldritch_core11interpreter7methods3set18handle_set_methodss8_0B9_
FNDA:10,_RNCNvNtNtNtCsjTRrhfWa0WU_13eldritch_core11interpreter7methods3set18handle_set_methodss9_0B9_
FNDA:3,_RNCNvNtNtNtCsjTRrhfWa0WU_13eldritch_core11interpreter7methods3set18handle_set_methodss_0B9_
FNDA:13,_RNCNvNtNtNtCsjTRrhfWa0WU_13eldritch_core11interpreter7methods3set18handle_set_methodssa_0B9_
FNDA:10,_RNCNvNtNtNtCsjTRrhfWa0WU_13eldritch_core11interpreter7methods3set18handle_set_methodssb_0B9_
FNDA:0,_RNCNvNtNtNtCs3OupGlkSanV_13eldritch_core11interpreter7methods3set16get_set_elements0B9_
FNDA:0,_RNCNvNtNtNtCs3OupGlkSanV_13eldritch_core11interpreter7methods3set18handle_set_methods0B9_
FNDA:0,_RNCNvNtNtNtCs3OupGlkSanV_13eldritch_core11interpreter7methods3set18handle_set_methodss0_0B9_
FNDA:0,_RNCNvNtNtNtCs3OupGlkSanV_13eldritch_core11interpreter7methods3set18handle_set_methodss1_0B9_
FNDA:0,_RNCNvNtNtNtCs3OupGlkSanV_13eldritch_core11interpreter7methods3set18handle_set_methodss2_0B9_
FNDA:0,_RNCNvNtNtNtCs3OupGlkSanV_13eldritch_core11interpreter7methods3set18handle_set_methodss3_0B9_
FNDA:0,_RNCNvNtNtNtCs3OupGlkSanV_13eldritch_core11interpreter7methods3set18handle_set_methodss4_0B9_
FNDA:0,_RNCNvNtNtNtCs3OupGlkSanV_13eldritch_core11interpreter7methods3set18handle_set_methodss5_0B9_
FNDA:0,_RNCNvNtNtNtCs3OupGlkSanV_13eldritch_core11interpreter7methods3set18handle_set_methodss6_0B9_
FNDA:0,_RNCNvNtNtNtCs3OupGlkSanV_13eldritch_core11interpreter7methods3set18handle_set_methodss7_0B9_
FNDA:0,_RNCNvNtNtNtCs3OupGlkSanV_13eldritch_core11interpreter7methods3set18handle_set_methodss8_0B9_
FNDA:0,_RNCNvNtNtNtCs3OupGlkSanV_13eldritch_core11interpreter7methods3set18handle_set_methodss9_0B9_
FNDA:0,_RNCNvNtNtNtCs3OupGlkSanV_13eldritch_core11interpreter7methods3set18handle_set_methodss_0B9_
FNDA:0,_RNCNvNtNtNtCs3OupGlkSanV_13eldritch_core11interpreter7methods3set18handle_set_methodssa_0B9_
FNDA:0,_RNCNvNtNtNtCs3OupGlkSanV_13eldritch_core11interpreter7methods3set18handle_set_methodssb_0B9_
FNDA:0,_RNvNtNtNtCs3OupGlkSanV_13eldritch_core11interpreter7methods3set16get_set_elements
FNDA:0,_RNvNtNtNtCs3OupGlkSanV_13eldritch_core11interpreter7methods3set18handle_set_methods
FNF:17
FNH:17
DA:11,79
DA:12,79
DA:13,37
DA:14,15
DA:15,8
DA:16,8
DA:17,14
DA:18,3
DA:19,3
DA:20,3
DA:21,3
DA:23,79
DA:25,142
DA:26,142
DA:27,142
DA:28,142
DA:29,142
DA:30,142
DA:31,142
DA:32,13
DA:33,7
DA:34,7
DA:36,129
DA:37,3
DA:38,1
DA:39,1
DA:41,126
DA:42,3
DA:43,2
DA:45,123
DA:46,12
DA:47,10
DA:48,9
DA:49,9
DA:51,111
DA:52,6
DA:53,4
DA:54,4
DA:56,105
DA:57,11
DA:58,9
DA:59,9
DA:60,9
DA:62,94
DA:63,14
DA:64,12
DA:65,12
DA:67,80
DA:68,13
DA:69,11
DA:70,11
DA:72,67
DA:73,13
DA:74,11
DA:75,11
DA:77,54
DA:78,13
DA:79,11
DA:80,11
DA:81,3
DA:82,8
DA:83,8
DA:84,8
DA:85,8
DA:86,8
DA:88,0
DA:91,41
DA:92,8
DA:93,6
DA:94,5
DA:95,1
DA:96,1
DA:98,33
DA:99,10
DA:100,8
DA:101,8
DA:102,8
DA:104,23
DA:105,13
DA:106,10
DA:107,9
DA:108,9
DA:110,10
DA:111,10
DA:112,8
DA:113,7
DA:114,7
DA:116,0
DA:118,142
BRF:0
BRH:0
LF:104
LH:102
end_of_record
SF:/app/implants/lib/eldritch/eldritch-core/src/interpreter/methods/str.rs
FN:10,_RNvNtNtNtCsjTRrhfWa0WU_13eldritch_core11interpreter7methods3str21handle_string_methods
FN:194,_RNCNCNvNtNtNtCsjTRrhfWa0WU_13eldritch_core11interpreter7methods3str21handle_string_methodssj_00Bb_
FN:275,_RNCNCNvNtNtNtCsjTRrhfWa0WU_13eldritch_core11interpreter7methods3str21handle_string_methodsso_00Bb_
FN:280,_RNCNCNvNtNtNtCsjTRrhfWa0WU_13eldritch_core11interpreter7methods3str21handle_string_methodssp_00Bb_
FN:290,_RNCNCNvNtNtNtCsjTRrhfWa0WU_13eldritch_core11interpreter7methods3str21handle_string_methodssr_00Bb_
FN:296,_RNCNCNvNtNtNtCsjTRrhfWa0WU_13eldritch_core11interpreter7methods3str21handle_string_methodsss_00Bb_
FN:302,_RNCNCNvNtNtNtCsjTRrhfWa0WU_13eldritch_core11interpreter7methods3str21handle_string_methodsst_00Bb_
FN:308,_RNCNCNvNtNtNtCsjTRrhfWa0WU_13eldritch_core11interpreter7methods3str21handle_string_methodssu_00Bb_
FN:314,_RNCNCNvNtNtNtCsjTRrhfWa0WU_13eldritch_core11interpreter7methods3str21handle_string_methodssv_00Bb_
FN:320,_RNCNCNvNtNtNtCsjTRrhfWa0WU_13eldritch_core11interpreter7methods3str21handle_string_methodssw_00Bb_
FN:19,_RNCNvNtNtNtCsjTRrhfWa0WU_13eldritch_core11interpreter7methods3str21handle_string_methods0B9_
FN:37,_RNCNvNtNtNtCsjTRrhfWa0WU_13eldritch_core11interpreter7methods3str21handle_string_methodss0_0B9_
FN:40,_RNCNvNtNtNtCsjTRrhfWa0WU_13eldritch_core11interpreter7methods3str21handle_string_methodss1_0B9_
FN:44,_RNCNvNtNtNtCsjTRrhfWa0WU_13eldritch_core11interpreter7methods3str21handle_string_methodss2_0B9_
FN:54,_RNCNvNtNtNtCsjTRrhfWa0WU_13eldritch_core11interpreter7methods3str21handle_string_methodss3_0B9_
FN:64,_RNCNvNtNtNtCsjTRrhfWa0WU_13eldritch_core11interpreter7methods3str21handle_string_methodss4_0B9_
FN:74,_RNCNvNtNtNtCsjTRrhfWa0WU_13eldritch_core11interpreter7methods3str21handle_string_methodss5_0B9_
FN:78,_RNCNvNtNtNtCsjTRrhfWa0WU_13eldritch_core11interpreter7methods3str21handle_string_methodss6_0B9_
FN:82,_RNCNvNtNtNtCsjTRrhfWa0WU_13eldritch_core11interpreter7methods3str21handle_string_methodss7_0B9_
FN:93,_RNCNvNtNtNtCsjTRrhfWa0WU_13eldritch_core11interpreter7methods3str21handle_string_methodss8_0B9_
FN:112,_RNCNvNtNtNtCsjTRrhfWa0WU_13eldritch_core11interpreter7methods3str21handle_string_methodss9_0B9_
FN:24,_RNCNvNtNtNtCsjTRrhfWa0WU_13eldritch_core11interpreter7methods3str21handle_string_methodss_0B9_
FN:117,_RNCNvNtNtNtCsjTRrhfWa0WU_13eldritch_core11interpreter7methods3str21handle_string_methodssa_0B9_
FN:122,_RNCNvNtNtNtCsjTRrhfWa0WU_13eldritch_core11interpreter7methods3str21handle_string_methodssb_0B9_
FN:131,_RNCNvNtNtNtCsjTRrhfWa0WU_13eldritch_core11interpreter7methods3str21handle_string_methodssc_0B9_
FN:140,_RNCNvNtNtNtCsjTRrhfWa0WU_13eldritch_core11interpreter7methods3str21handle_string_methodssd_0B9_
FN:148,_RNCNvNtNtNtCsjTRrhfWa0WU_13eldritch_core11interpreter7methods3str21handle_string_methodsse_0B9_
FN:156,_RNCNvNtNtNtCsjTRrhfWa0WU_13eldritch_core11interpreter7methods3str21handle_string_methodssf_0B9_
FN:164,_RNCNvNtNtNtCsjTRrhfWa0WU_13eldritch_core11interpreter7methods3str21handle_string_methodssg_0B9_
FN:172,_RNCNvNtNtNtCsjTRrhfWa0WU_13eldritch_core11interpreter7methods3str21handle_string_methodssh_0B9_
FN:181,_RNCNvNtNtNtCsjTRrhfWa0WU_13eldritch_core11interpreter7methods3str21handle_string_methodssi_0B9_
FN:187,_RNCNvNtNtNtCsjTRrhfWa0WU_13eldritch_core11interpreter7methods3str21handle_string_methodssj_0B9_
FN:204,_RNCNvNtNtNtCsjTRrhfWa0WU_13eldritch_core11interpreter7methods3str21handle_string_methodssk_0B9_
FN:224,_RNCNvNtNtNtCsjTRrhfWa0WU_13eldritch_core11interpreter7methods3str21handle_string_methodssl_0B9_
FN:242,_RNCNvNtNtNtCsjTRrhfWa0WU_13eldritch_core11interpreter7methods3str21handle_string_methodssm_0B9_
FN:268,_RNCNvNtNtNtCsjTRrhfWa0WU_13eldritch_core11interpreter7methods3str21handle_string_methodssn_0B9_
FN:273,_RNCNvNtNtNtCsjTRrhfWa0WU_13eldritch_core11interpreter7methods3str21handle_string_methodsso_0B9_
FN:278,_RNCNvNtNtNtCsjTRrhfWa0WU_13eldritch_core11interpreter7methods3str21handle_string_methodssp_0B9_
FN:283,_RNCNvNtNtNtCsjTRrhfWa0WU_13eldritch_core11interpreter7methods3str21handle_string_methodssq_0B9_
FN:287,_RNCNvNtNtNtCsjTRrhfWa0WU_13eldritch_core11interpreter7methods3str21handle_string_methodssr_0B9_
FN:293,_RNCNvNtNtNtCsjTRrhfWa0WU_13eldritch_core11interpreter7methods3str21handle_string_methodsss_0B9_
FN:299,_RNCNvNtNtNtCsjTRrhfWa0WU_13eldritch_core11interpreter7methods3str21handle_string_methodsst_0B9_
FN:305,_RNCNvNtNtNtCsjTRrhfWa0WU_13eldritch_core11interpreter7methods3str21handle_string_methodssu_0B9_
FN:311,_RNCNvNtNtNtCsjTRrhfWa0WU_13eldritch_core11interpreter7methods3str21handle_string_methodssv_0B9_
FN:317,_RNCNvNtNtNtCsjTRrhfWa0WU_13eldritch_core11interpreter7methods3str21handle_string_methodssw_0B9_
FN:323,_RNCNvNtNtNtCsjTRrhfWa0WU_13eldritch_core11interpreter7methods3str21handle_string_methodssx_0B9_
FN:194,_RNCNCNvNtNtNtCs3OupGlkSanV_13eldritch_core11interpreter7methods3str21handle_string_methodssj_00Bb_
FN:275,_RNCNCNvNtNtNtCs3OupGlkSanV_13eldritch_core11interpreter7methods3str21handle_string_methodsso_00Bb_
FN:280,_RNCNCNvNtNtNtCs3OupGlkSanV_13eldritch_core11interpreter7methods3str21handle_string_methodssp_00Bb_
FN:290,_RNCNCNvNtNtNtCs3OupGlkSanV_13eldritch_core11interpreter7methods3str21handle_string_methodssr_00Bb_
FN:296,_RNCNCNvNtNtNtCs3OupGlkSanV_13eldritch_core11interpreter7methods3str21handle_string_methodsss_00Bb_
FN:302,_RNCNCNvNtNtNtCs3OupGlkSanV_13eldritch_core11interpreter7methods3str21handle_string_methodsst_00Bb_
FN:308,_RNCNCNvNtNtNtCs3OupGlkSanV_13eldritch_core11interpreter7methods3str21handle_string_methodssu_00Bb_
FN:314,_RNCNCNvNtNtNtCs3OupGlkSanV_13eldritch_core11interpreter7methods3str21handle_string_methodssv_00Bb_
FN:320,_RNCNCNvNtNtNtCs3OupGlkSanV_13eldritch_core11interpreter7methods3str21handle_string_methodssw_00Bb_
FN:19,_RNCNvNtNtNtCs3OupGlkSanV_13eldritch_core11interpreter7methods3str21handle_string_methods0B9_
FN:37,_RNCNvNtNtNtCs3OupGlkSanV_13eldritch_core11interpreter7methods3str21handle_string_methodss0_0B9_
FN:40,_RNCNvNtNtNtCs3OupGlkSanV_13eldritch_core11interpreter7methods3str21handle_string_methodss1_0B9_
FN:44,_RNCNvNtNtNtCs3OupGlkSanV_13eldritch_core11interpreter7methods3str21handle_string_methodss2_0B9_
FN:54,_RNCNvNtNtNtCs3OupGlkSanV_13eldritch_core11interpreter7methods3str21handle_string_methodss3_0B9_
FN:64,_RNCNvNtNtNtCs3OupGlkSanV_13eldritch_core11interpreter7methods3str21handle_string_methodss4_0B9_
FN:74,_RNCNvNtNtNtCs3OupGlkSanV_13eldritch_core11interpreter7methods3str21handle_string_methodss5_0B9_
FN:78,_RNCNvNtNtNtCs3OupGlkSanV_13eldritch_core11interpreter7methods3str21handle_string_methodss6_0B9_
FN:82,_RNCNvNtNtNtCs3OupGlkSanV_13eldritch_core11interpreter7methods3str21handle_string_methodss7_0B9_
FN:93,_RNCNvNtNtNtCs3OupGlkSanV_13eldritch_core11interpreter7methods3str21handle_string_methodss8_0B9_
FN:112,_RNCNvNtNtNtCs3OupGlkSanV_13eldritch_core11interpreter7methods3str21handle_string_methodss9_0B9_
FN:24,_RNCNvNtNtNtCs3OupGlkSanV_13eldritch_core11interpreter7methods3str21handle_string_methodss_0B9_
FN:117,_RNCNvNtNtNtCs3OupGlkSanV_13eldritch_core11interpreter7methods3str21handle_string_methodssa_0B9_
FN:122,_RNCNvNtNtNtCs3OupGlkSanV_13eldritch_core11interpreter7methods3str21handle_string_methodssb_0B9_
FN:131,_RNCNvNtNtNtCs3OupGlkSanV_13eldritch_core11interpreter7methods3str21handle_string_methodssc_0B9_
FN:140,_RNCNvNtNtNtCs3OupGlkSanV_13eldritch_core11interpreter7methods3str21handle_string_methodssd_0B9_
FN:148,_RNCNvNtNtNtCs3OupGlkSanV_13eldritch_core11interpreter7methods3str21handle_string_methodsse_0B9_
FN:156,_RNCNvNtNtNtCs3OupGlkSanV_13eldritch_core11interpreter7methods3str21handle_string_methodssf_0B9_
FN:164,_RNCNvNtNtNtCs3OupGlkSanV_13eldritch_core11interpreter7methods3str21handle_string_methodssg_0B9_
FN:172,_RNCNvNtNtNtCs3OupGlkSanV_13eldritch_core11interpreter7methods3str21handle_string_methodssh_0B9_
FN:181,_RNCNvNtNtNtCs3OupGlkSanV_13eldritch_core11interpreter7methods3str21handle_string_methodssi_0B9_
FN:187,_RNCNvNtNtNtCs3OupGlkSanV_13eldritch_core11interpreter7methods3str21handle_string_methodssj_0B9_
FN:204,_RNCNvNtNtNtCs3OupGlkSanV_13eldritch_core11interpreter7methods3str21handle_string_methodssk_0B9_
FN:224,_RNCNvNtNtNtCs3OupGlkSanV_13eldritch_core11interpreter7methods3str21handle_string_methodssl_0B9_
FN:242,_RNCNvNtNtNtCs3OupGlkSanV_13eldritch_core11interpreter7methods3str21handle_string_methodssm_0B9_
FN:268,_RNCNvNtNtNtCs3OupGlkSanV_13eldritch_core11interpreter7methods3str21handle_string_methodssn_0B9_
FN:273,_RNCNvNtNtNtCs3OupGlkSanV_13eldritch_core11interpreter7methods3str21handle_string_methodsso_0B9_
FN:278,_RNCNvNtNtNtCs3OupGlkSanV_13eldritch_core11interpreter7methods3str21handle_string_methodssp_0B9_
FN:283,_RNCNvNtNtNtCs3OupGlkSanV_13eldritch_core11interpreter7methods3str21handle_string_methodssq_0B9_
FN:287,_RNCNvNtNtNtCs3OupGlkSanV_13eldritch_core11interpreter7methods3str21handle_string_methodssr_0B9_
FN:293,_RNCNvNtNtNtCs3OupGlkSanV_13eldritch_core11interpreter7methods3str21handle_string_methodsss_0B9_
FN:299,_RNCNvNtNtNtCs3OupGlkSanV_13eldritch_core11interpreter7methods3str21handle_string_methodsst_0B9_
FN:305,_RNCNvNtNtNtCs3OupGlkSanV_13eldritch_core11interpreter7methods3str21handle_string_methodssu_0B9_
FN:311,_RNCNvNtNtNtCs3OupGlkSanV_13eldritch_core11interpreter7methods3str21handle_string_methodssv_0B9_
FN:317,_RNCNvNtNtNtCs3OupGlkSanV_13eldritch_core11interpreter7methods3str21handle_string_methodssw_0B9_
FN:323,_RNCNvNtNtNtCs3OupGlkSanV_13eldritch_core11interpreter7methods3str21handle_string_methodssx_0B9_
FN:10,_RNvNtNtNtCs3OupGlkSanV_13eldritch_core11interpreter7methods3str21handle_string_methods
FNDA:181,_RNvNtNtNtCsjTRrhfWa0WU_13eldritch_core11interpreter7methods3str21handle_string_methods
FNDA:4,_RNCNCNvNtNtNtCsjTRrhfWa0WU_13eldritch_core11interpreter7methods3str21handle_string_methodssj_00Bb_
FNDA:6,_RNCNCNvNtNtNtCsjTRrhfWa0WU_13eldritch_core11interpreter7methods3str21handle_string_methodsso_00Bb_
FNDA:10,_RNCNCNvNtNtNtCsjTRrhfWa0WU_13eldritch_core11interpreter7methods3str21handle_string_methodssp_00Bb_
FNDA:11,_RNCNCNvNtNtNtCsjTRrhfWa0WU_13eldritch_core11interpreter7methods3str21handle_string_methodssr_00Bb_
FNDA:7,_RNCNCNvNtNtNtCsjTRrhfWa0WU_13eldritch_core11interpreter7methods3str21handle_string_methodsss_00Bb_
FNDA:10,_RNCNCNvNtNtNtCsjTRrhfWa0WU_13eldritch_core11interpreter7methods3str21handle_string_methodsst_00Bb_
FNDA:5,_RNCNCNvNtNtNtCsjTRrhfWa0WU_13eldritch_core11interpreter7methods3str21handle_string_methodssu_00Bb_
FNDA:5,_RNCNCNvNtNtNtCsjTRrhfWa0WU_13eldritch_core11interpreter7methods3str21handle_string_methodssv_00Bb_
FNDA:6,_RNCNCNvNtNtNtCsjTRrhfWa0WU_13eldritch_core11interpreter7methods3str21handle_string_methodssw_00Bb_
FNDA:2,_RNCNvNtNtNtCsjTRrhfWa0WU_13eldritch_core11interpreter7methods3str21handle_string_methods0B9_
FNDA:6,_RNCNvNtNtNtCsjTRrhfWa0WU_13eldritch_core11interpreter7methods3str21handle_string_methodss0_0B9_
FNDA:14,_RNCNvNtNtNtCsjTRrhfWa0WU_13eldritch_core11interpreter7methods3str21handle_string_methodss1_0B9_
FNDA:9,_RNCNvNtNtNtCsjTRrhfWa0WU_13eldritch_core11interpreter7methods3str21handle_string_methodss2_0B9_
FNDA:6,_RNCNvNtNtNtCsjTRrhfWa0WU_13eldritch_core11interpreter7methods3str21handle_string_methodss3_0B9_
FNDA:6,_RNCNvNtNtNtCsjTRrhfWa0WU_13eldritch_core11interpreter7methods3str21handle_string_methodss4_0B9_
FNDA:1,_RNCNvNtNtNtCsjTRrhfWa0WU_13eldritch_core11interpreter7methods3str21handle_string_methodss5_0B9_
FNDA:4,_RNCNvNtNtNtCsjTRrhfWa0WU_13eldritch_core11interpreter7methods3str21handle_string_methodss6_0B9_
FNDA:1,_RNCNvNtNtNtCsjTRrhfWa0WU_13eldritch_core11interpreter7methods3str21handle_string_methodss7_0B9_
FNDA:8,_RNCNvNtNtNtCsjTRrhfWa0WU_13eldritch_core11interpreter7methods3str21handle_string_methodss8_0B9_
FNDA:4,_RNCNvNtNtNtCsjTRrhfWa0WU_13eldritch_core11interpreter7methods3str21handle_string_methodss9_0B9_
FNDA:4,_RNCNvNtNtNtCsjTRrhfWa0WU_13eldritch_core11interpreter7methods3str21handle_string_methodss_0B9_
FNDA:4,_RNCNvNtNtNtCsjTRrhfWa0WU_13eldritch_core11interpreter7methods3str21handle_string_methodssa_0B9_
FNDA:6,_RNCNvNtNtNtCsjTRrhfWa0WU_13eldritch_core11interpreter7methods3str21handle_string_methodssb_0B9_
FNDA:6,_RNCNvNtNtNtCsjTRrhfWa0WU_13eldritch_core11interpreter7methods3str21handle_string_methodssc_0B9_
FNDA:4,_RNCNvNtNtNtCsjTRrhfWa0WU_13eldritch_core11interpreter7methods3str21handle_string_methodssd_0B9_
FNDA:3,_RNCNvNtNtNtCsjTRrhfWa0WU_13eldritch_core11interpreter7methods3str21handle_string_methodsse_0B9_
FNDA:2,_RNCNvNtNtNtCsjTRrhfWa0WU_13eldritch_core11interpreter7methods3str21handle_string_methodssf_0B9_
FNDA:3,_RNCNvNtNtNtCsjTRrhfWa0WU_13eldritch_core11interpreter7methods3str21handle_string_methodssg_0B9_
FNDA:4,_RNCNvNtNtNtCsjTRrhfWa0WU_13eldritch_core11interpreter7methods3str21handle_string_methodssh_0B9_
FNDA:5,_RNCNvNtNtNtCsjTRrhfWa0WU_13eldritch_core11interpreter7methods3str21handle_string_methodssi_0B9_
FNDA:9,_RNCNvNtNtNtCsjTRrhfWa0WU_13eldritch_core11interpreter7methods3str21handle_string_methodssj_0B9_
FNDA:14,_RNCNvNtNtNtCsjTRrhfWa0WU_13eldritch_core11interpreter7methods3str21handle_string_methodssk_0B9_
FNDA:9,_RNCNvNtNtNtCsjTRrhfWa0WU_13eldritch_core11interpreter7methods3str21handle_string_methodssl_0B9_
FNDA:8,_RNCNvNtNtNtCsjTRrhfWa0WU_13eldritch_core11interpreter7methods3str21handle_string_methodssm_0B9_
FNDA:9,_RNCNvNtNtNtCsjTRrhfWa0WU_13eldritch_core11interpreter7methods3str21handle_string_methodssn_0B9_
FNDA:4,_RNCNvNtNtNtCsjTRrhfWa0WU_13eldritch_core11interpreter7methods3str21handle_string_methodsso_0B9_
FNDA:5,_RNCNvNtNtNtCsjTRrhfWa0WU_13eldritch_core11interpreter7methods3str21handle_string_methodssp_0B9_
FNDA:1,_RNCNvNtNtNtCsjTRrhfWa0WU_13eldritch_core11interpreter7methods3str21handle_string_methodssq_0B9_
FNDA:6,_RNCNvNtNtNtCsjTRrhfWa0WU_13eldritch_core11interpreter7methods3str21handle_string_methodssr_0B9_
FNDA:5,_RNCNvNtNtNtCsjTRrhfWa0WU_13eldritch_core11interpreter7methods3str21handle_string_methodsss_0B9_
FNDA:5,_RNCNvNtNtNtCsjTRrhfWa0WU_13eldritch_core11interpreter7methods3str21handle_string_methodsst_0B9_
FNDA:4,_RNCNvNtNtNtCsjTRrhfWa0WU_13eldritch_core11interpreter7methods3str21handle_string_methodssu_0B9_
FNDA:4,_RNCNvNtNtNtCsjTRrhfWa0WU_13eldritch_core11interpreter7methods3str21handle_string_methodssv_0B9_
FNDA:6,_RNCNvNtNtNtCsjTRrhfWa0WU_13eldritch_core11interpreter7methods3str21handle_string_methodssw_0B9_
FNDA:7,_RNCNvNtNtNtCsjTRrhfWa0WU_13eldritch_core11interpreter7methods3str21handle_string_methodssx_0B9_
FNDA:0,_RNCNCNvNtNtNtCs3OupGlkSanV_13eldritch_core11interpreter7methods3str21handle_string_methodssj_00Bb_
FNDA:0,_RNCNCNvNtNtNtCs3OupGlkSanV_13eldritch_core11interpreter7methods3str21handle_string_methodsso_00Bb_
FNDA:0,_RNCNCNvNtNtNtCs3OupGlkSanV_13eldritch_core11interpreter7methods3str21handle_string_methodssp_00Bb_
FNDA:0,_RNCNCNvNtNtNtCs3OupGlkSanV_13eldritch_core11interpreter7methods3str21handle_string_methodssr_00Bb_
FNDA:0,_RNCNCNvNtNtNtCs3OupGlkSanV_13eldritch_core11interpreter7methods3str21handle_string_methodsss_00Bb_
FNDA:0,_RNCNCNvNtNtNtCs3OupGlkSanV_13eldritch_core11interpreter7methods3str21handle_string_methodsst_00Bb_
FNDA:0,_RNCNCNvNtNtNtCs3OupGlkSanV_13eldritch_core11interpreter7methods3str21handle_string_methodssu_00Bb_
FNDA:0,_RNCNCNvNtNtNtCs3OupGlkSanV_13eldritch_core11interpreter7methods3str21handle_string_methodssv_00Bb_
FNDA:0,_RNCNCNvNtNtNtCs3OupGlkSanV_13eldritch_core11interpreter7methods3str21handle_string_methodssw_00Bb_
FNDA:0,_RNCNvNtNtNtCs3OupGlkSanV_13eldritch_core11interpreter7methods3str21handle_string_methods0B9_
FNDA:0,_RNCNvNtNtNtCs3OupGlkSanV_13eldritch_core11interpreter7methods3str21handle_string_methodss0_0B9_
FNDA:0,_RNCNvNtNtNtCs3OupGlkSanV_13eldritch_core11interpreter7methods3str21handle_string_methodss1_0B9_
FNDA:0,_RNCNvNtNtNtCs3OupGlkSanV_13eldritch_core11interpreter7methods3str21handle_string_methodss2_0B9_
FNDA:0,_RNCNvNtNtNtCs3OupGlkSanV_13eldritch_core11interpreter7methods3str21handle_string_methodss3_0B9_
FNDA:0,_RNCNvNtNtNtCs3OupGlkSanV_13eldritch_core11interpreter7methods3str21handle_string_methodss4_0B9_
FNDA:0,_RNCNvNtNtNtCs3OupGlkSanV_13eldritch_core11interpreter7methods3str21handle_string_methodss5_0B9_
FNDA:0,_RNCNvNtNtNtCs3OupGlkSanV_13eldritch_core11interpreter7methods3str21handle_string_methodss6_0B9_
FNDA:0,_RNCNvNtNtNtCs3OupGlkSanV_13eldritch_core11interpreter7methods3str21handle_string_methodss7_0B9_
FNDA:0,_RNCNvNtNtNtCs3OupGlkSanV_13eldritch_core11interpreter7methods3str21handle_string_methodss8_0B9_
FNDA:0,_RNCNvNtNtNtCs3OupGlkSanV_13eldritch_core11interpreter7methods3str21handle_string_methodss9_0B9_
FNDA:0,_RNCNvNtNtNtCs3OupGlkSanV_13eldritch_core11interpreter7methods3str21handle_string_methodss_0B9_
FNDA:0,_RNCNvNtNtNtCs3OupGlkSanV_13eldritch_core11interpreter7methods3str21handle_string_methodssa_0B9_
FNDA:0,_RNCNvNtNtNtCs3OupGlkSanV_13eldritch_core11interpreter7methods3str21handle_string_methodssb_0B9_
FNDA:0,_RNCNvNtNtNtCs3OupGlkSanV_13eldritch_core11interpreter7methods3str21handle_string_methodssc_0B9_
FNDA:0,_RNCNvNtNtNtCs3OupGlkSanV_13eldritch_core11interpreter7methods3str21handle_string_methodssd_0B9_
FNDA:0,_RNCNvNtNtNtCs3OupGlkSanV_13eldritch_core11interpreter7methods3str21handle_string_methodsse_0B9_
FNDA:0,_RNCNvNtNtNtCs3OupGlkSanV_13eldritch_core11interpreter7methods3str21handle_string_methodssf_0B9_
FNDA:0,_RNCNvNtNtNtCs3OupGlkSanV_13eldritch_core11interpreter7methods3str21handle_string_methodssg_0B9_
FNDA:0,_RNCNvNtNtNtCs3OupGlkSanV_13eldritch_core11interpreter7methods3str21handle_string_methodssh_0B9_
FNDA:0,_RNCNvNtNtNtCs3OupGlkSanV_13eldritch_core11interpreter7methods3str21handle_string_methodssi_0B9_
FNDA:0,_RNCNvNtNtNtCs3OupGlkSanV_13eldritch_core11interpreter7methods3str21handle_string_methodssj_0B9_
FNDA:0,_RNCNvNtNtNtCs3OupGlkSanV_13eldritch_core11interpreter7methods3str21handle_string_methodssk_0B9_
FNDA:0,_RNCNvNtNtNtCs3OupGlkSanV_13eldritch_core11interpreter7methods3str21handle_string_methodssl_0B9_
FNDA:0,_RNCNvNtNtNtCs3OupGlkSanV_13eldritch_core11interpreter7methods3str21handle_string_methodssm_0B9_
FNDA:0,_RNCNvNtNtNtCs3OupGlkSanV_13eldritch_core11interpreter7methods3str21handle_string_methodssn_0B9_
FNDA:0,_RNCNvNtNtNtCs3OupGlkSanV_13eldritch_core11interpreter7methods3str21handle_string_methodsso_0B9_
FNDA:0,_RNCNvNtNtNtCs3OupGlkSanV_13eldritch_core11interpreter7methods3str21handle_string_methodssp_0B9_
FNDA:0,_RNCNvNtNtNtCs3OupGlkSanV_13eldritch_core11interpreter7methods3str21handle_string_methodssq_0B9_
FNDA:0,_RNCNvNtNtNtCs3OupGlkSanV_13eldritch_core11interpreter7methods3str21handle_string_methodssr_0B9_
FNDA:0,_RNCNvNtNtNtCs3OupGlkSanV_13eldritch_core11interpreter7methods3str21handle_string_methodsss_0B9_
FNDA:0,_RNCNvNtNtNtCs3OupGlkSanV_13eldritch_core11interpreter7methods3str21handle_string_methodsst_0B9_
FNDA:0,_RNCNvNtNtNtCs3OupGlkSanV_13eldritch_core11interpreter7methods3str21handle_string_methodssu_0B9_
FNDA:0,_RNCNvNtNtNtCs3OupGlkSanV_13eldritch_core11interpreter7methods3str21handle_string_methodssv_0B9_
FNDA:0,_RNCNvNtNtNtCs3OupGlkSanV_13eldritch_core11interpreter7methods3str21handle_string_methodssw_0B9_
FNDA:0,_RNCNvNtNtNtCs3OupGlkSanV_13eldritch_core11interpreter7methods3str21handle_string_methodssx_0B9_
FNDA:0,_RNvNtNtNtCs3OupGlkSanV_13eldritch_core11interpreter7methods3str21handle_string_methods
FNF:46
FNH:46
DA:10,181
DA:11,181
DA:12,181
DA:13,181
DA:14,181
DA:15,181
DA:16,181
DA:17,4
DA:18,2
DA:19,2
DA:20,2
DA:22,2
DA:23,2
DA:24,4
DA:25,2
DA:27,4
DA:29,177
DA:30,11
DA:31,6
DA:33,5
DA:35,11
DA:36,4
DA:37,6
DA:38,4
DA:40,14
DA:42,11
DA:44,166
DA:45,9
DA:46,8
DA:47,3
DA:49,5
DA:50,5
DA:51,5
DA:54,157
DA:55,6
DA:56,5
DA:57,2
DA:59,3
DA:60,3
DA:61,3
DA:64,151
DA:65,6
DA:66,5
DA:67,2
DA:69,3
DA:70,3
DA:71,3
DA:74,145
DA:75,1
DA:76,1
DA:78,144
DA:79,4
DA:80,4
DA:82,140
DA:83,1
DA:84,1
DA:85,1
DA:86,0
DA:87,1
DA:88,1
DA:89,1
DA:93,139
DA:94,8
DA:95,8
DA:96,8
DA:97,75
DA:98,75
DA:99,67
DA:100,14
DA:101,14
DA:102,53
DA:103,53
DA:104,53
DA:105,8
DA:106,8
DA:107,8
DA:108,8
DA:110,8
DA:112,131
DA:113,4
DA:114,1
DA:115,1
DA:117,127
DA:118,4
DA:119,1
DA:120,1
DA:122,123
DA:123,6
DA:124,5
DA:125,5
DA:126,4
DA:128,1
DA:131,117
DA:132,6
DA:133,5
DA:134,5
DA:135,4
DA:137,1
DA:140,111
DA:141,4
DA:142,1
DA:143,1
DA:144,1
DA:145,0
DA:148,107
DA:149,3
DA:150,2
DA:151,2
DA:152,1
DA:153,1
DA:156,104
DA:157,2
DA:158,1
DA:159,1
DA:160,1
DA:161,0
DA:164,102
DA:165,3
DA:166,2
DA:167,2
DA:168,1
DA:169,1
DA:172,99
DA:173,4
DA:174,3
DA:175,3
DA:176,1
DA:177,2
DA:178,2
DA:179,2
DA:181,95
DA:182,5
DA:183,1
DA:184,1
DA:185,1
DA:187,90
DA:188,9
DA:189,6
DA:190,3
DA:191,3
DA:192,3
DA:193,3
DA:194,4
DA:195,2
DA:196,2
DA:197,4
DA:198,3
DA:199,3
DA:201,3
DA:204,81
DA:205,14
DA:206,14
DA:207,14
DA:208,14
DA:209,51
DA:210,40
DA:211,13
DA:212,3
DA:213,10
DA:214,10
DA:215,10
DA:216,10
DA:217,27
DA:218,27
DA:219,27
DA:220,27
DA:222,11
DA:224,67
DA:225,9
DA:226,8
DA:227,8
DA:228,5
DA:229,5
DA:230,5
DA:231,5
DA:232,5
DA:233,5
DA:235,3
DA:236,3
DA:237,3
DA:238,3
DA:239,3
DA:242,58
DA:243,8
DA:244,7
DA:245,7
DA:246,5
DA:247,5
DA:248,5
DA:249,5
DA:250,5
DA:251,5
DA:253,2
DA:254,2
DA:255,2
DA:256,2
DA:257,2
DA:260,50
DA:261,3
DA:262,2
DA:264,1
DA:266,3
DA:267,3
DA:268,9
DA:269,3
DA:270,3
DA:271,3
DA:273,47
DA:274,4
DA:275,6
DA:276,4
DA:278,43
DA:279,5
DA:280,10
DA:281,5
DA:283,38
DA:284,1
DA:285,1
DA:287,37
DA:288,6
DA:290,11
DA:293,31
DA:294,5
DA:296,7
DA:299,26
DA:300,5
DA:302,10
DA:305,21
DA:306,4
DA:308,5
DA:311,17
DA:312,4
DA:314,5
DA:317,13
DA:318,6
DA:320,6
DA:323,7
DA:324,7
DA:325,7
DA:326,1
DA:327,6
DA:328,6
DA:329,6
DA:330,29
DA:331,29
DA:332,6
DA:333,1
DA:334,5
DA:335,5
DA:336,5
DA:337,23
DA:338,18
DA:339,2
DA:340,16
DA:341,16
DA:342,5
DA:343,5
DA:344,5
DA:346,3
DA:348,0
DA:350,181
BRF:0
BRH:0
LF:306
LH:302
end_of_record
SF:/app/implants/lib/eldritch/eldritch-core/src/interpreter/operations/arithmetic.rs
FN:11,_RNvNtNtNtCsjTRrhfWa0WU_13eldritch_core11interpreter10operations10arithmetic19apply_arithmetic_op
FN:11,_RNvNtNtNtCs3OupGlkSanV_13eldritch_core11interpreter10operations10arithmetic19apply_arithmetic_op
FN:190,_RNvNtNtNtNtCs3OupGlkSanV_13eldritch_core11interpreter10operations10arithmetic5tests10dummy_span
FN:195,_RNvNtNtNtNtCs3OupGlkSanV_13eldritch_core11interpreter10operations10arithmetic5testss_35test_apply_arithmetic_op_int_basics
FN:344,_RNvNtNtNtNtCs3OupGlkSanV_13eldritch_core11interpreter10operations10arithmetic5testss_36test_apply_arithmetic_op_mixed_types
FN:225,_RNvNtNtNtNtCs3OupGlkSanV_13eldritch_core11interpreter10operations10arithmetic5testss_37test_apply_arithmetic_op_int_div_zero
FN:378,_RNvNtNtNtNtCs3OupGlkSanV_13eldritch_core11interpreter10operations10arithmetic5testss_39test_apply_arithmetic_op_mixed_div_zero
FN:301,_RNvNtNtNtNtCs3OupGlkSanV_13eldritch_core11interpreter10operations10arithmetic5testss_48test_apply_arithmetic_op_modulo_python_semantics
FN:246,_RNvNtNtNtNtCs3OupGlkSanV_13eldritch_core11interpreter10operations10arithmetic5testss_51test_apply_arithmetic_op_floor_div_python_semantics
FNDA:172,_RNvNtNtNtCsjTRrhfWa0WU_13eldritch_core11interpreter10operations10arithmetic19apply_arithmetic_op
FNDA:18,_RNvNtNtNtCs3OupGlkSanV_13eldritch_core11interpreter10operations10arithmetic19apply_arithmetic_op
FNDA:6,_RNvNtNtNtNtCs3OupGlkSanV_13eldritch_core11interpreter10operations10arithmetic5tests10dummy_span
FNDA:1,_RNvNtNtNtNtCs3OupGlkSanV_13eldritch_core11interpreter10operations10arithmetic5testss_35test_apply_arithmetic_op_int_basics
FNDA:1,_RNvNtNtNtNtCs3OupGlkSanV_13eldritch_core11interpreter10operations10arithmetic5testss_36test_apply_arithmetic_op_mixed_types
FNDA:1,_RNvNtNtNtNtCs3OupGlkSanV_13eldritch_core11interpreter10operations10arithmetic5testss_37test_apply_arithmetic_op_int_div_zero
FNDA:1,_RNvNtNtNtNtCs3OupGlkSanV_13eldritch_core11interpreter10operations10arithmetic5testss_39test_apply_arithmetic_op_mixed_div_zero
FNDA:1,_RNvNtNtNtNtCs3OupGlkSanV_13eldritch_core11interpreter10operations10arithmetic5testss_48test_apply_arithmetic_op_modulo_python_semantics
FNDA:1,_RNvNtNtNtNtCs3OupGlkSanV_13eldritch_core11interpreter10operations10arithmetic5testss_51test_apply_arithmetic_op_floor_div_python_semantics
FNF:8
FNH:8
DA:11,190
DA:12,190
DA:13,190
DA:14,190
DA:15,190
DA:16,190
DA:17,190
DA:18,190
DA:19,54
DA:20,7
DA:21,30
DA:22,8
DA:23,8
DA:24,3
DA:25,5
DA:26,5
DA:29,2
DA:30,1
DA:31,1
DA:32,2
DA:33,2
DA:34,1
DA:35,1
DA:36,1
DA:40,3
DA:41,1
DA:42,2
DA:43,3
DA:44,3
DA:45,2
DA:46,1
DA:47,1
DA:50,2
DA:51,2
DA:52,3
DA:53,5
DA:54,5
DA:55,2
DA:56,3
DA:57,3
DA:61,2
DA:62,2
DA:63,0
DA:64,2
DA:67,2
DA:74,3
DA:75,3
DA:76,1
DA:77,2
DA:80,2
DA:87,4
DA:88,4
DA:89,1
DA:90,3
DA:93,3
DA:100,2
DA:101,2
DA:102,0
DA:103,2
DA:106,2
DA:114,2
DA:115,2
DA:116,1
DA:117,1
DA:120,1
DA:129,6
DA:130,6
DA:131,1
DA:132,5
DA:135,5
DA:145,20
DA:146,20
DA:147,2
DA:148,18
DA:149,18
DA:150,18
DA:151,8
DA:152,10
DA:153,18
DA:155,25
DA:156,25
DA:157,2
DA:158,23
DA:159,23
DA:160,23
DA:163,0
DA:164,0
DA:165,0
DA:166,0
DA:167,0
DA:168,0
DA:169,0
DA:170,0
DA:171,0
DA:172,0
DA:173,0
DA:174,0
DA:176,0
DA:177,0
DA:179,0
DA:182,190
DA:190,6
DA:191,6
DA:192,6
DA:195,1
DA:196,1
DA:197,1
DA:199,1
DA:200,1
DA:203,1
DA:204,1
DA:208,1
DA:209,1
DA:213,1
DA:214,1
DA:218,1
DA:219,1
DA:220,1
DA:222,1
DA:225,1
DA:226,1
DA:227,1
DA:229,1
DA:230,1
DA:232,1
DA:233,1
DA:234,1
DA:236,1
DA:237,1
DA:238,1
DA:240,1
DA:241,1
DA:242,1
DA:243,1
DA:246,1
DA:247,1
DA:248,1
DA:251,1
DA:252,1
DA:253,1
DA:254,1
DA:255,1
DA:256,1
DA:257,1
DA:259,1
DA:263,1
DA:264,1
DA:265,1
DA:266,1
DA:267,1
DA:268,1
DA:269,1
DA:271,1
DA:275,1
DA:276,1
DA:277,1
DA:278,1
DA:279,1
DA:280,1
DA:281,1
DA:283,1
DA:287,1
DA:288,1
DA:289,1
DA:290,1
DA:291,1
DA:292,1
DA:293,1
DA:295,1
DA:298,1
DA:301,1
DA:302,1
DA:303,1
DA:306,1
DA:307,1
DA:308,1
DA:309,1
DA:310,1
DA:311,1
DA:312,1
DA:314,1
DA:318,1
DA:319,1
DA:320,1
DA:321,1
DA:322,1
DA:323,1
DA:324,1
DA:326,1
DA:330,1
DA:331,1
DA:332,1
DA:333,1
DA:334,1
DA:335,1
DA:336,1
DA:338,1
DA:341,1
DA:344,1
DA:345,1
DA:346,1
DA:349,1
DA:350,1
DA:351,1
DA:352,1
DA:353,1
DA:354,1
DA:355,1
DA:356,1
DA:358,1
DA:359,0
DA:363,1
DA:364,1
DA:365,1
DA:366,1
DA:367,1
DA:368,1
DA:369,1
DA:370,1
DA:372,1
DA:373,0
DA:375,1
DA:378,1
DA:379,1
DA:380,1
DA:383,1
DA:384,1
DA:385,1
DA:386,1
DA:387,1
DA:388,1
DA:390,1
DA:393,1
DA:394,1
DA:395,1
DA:396,1
DA:397,1
DA:398,1
DA:400,1
DA:401,1
BRF:0
BRH:0
LF:240
LH:221
end_of_record
SF:/app/implants/lib/eldritch/eldritch-core/src/interpreter/operations/bitwise.rs
FN:11,_RNvNtNtNtCsjTRrhfWa0WU_13eldritch_core11interpreter10operations7bitwise16apply_bitwise_op
FN:11,_RNvNtNtNtCs3OupGlkSanV_13eldritch_core11interpreter10operations7bitwise16apply_bitwise_op
FNDA:14,_RNvNtNtNtCsjTRrhfWa0WU_13eldritch_core11interpreter10operations7bitwise16apply_bitwise_op
FNDA:0,_RNvNtNtNtCs3OupGlkSanV_13eldritch_core11interpreter10operations7bitwise16apply_bitwise_op
FNF:1
FNH:1
DA:11,14
DA:12,14
DA:13,14
DA:14,14
DA:15,14
DA:16,14
DA:17,14
DA:18,14
DA:19,10
DA:20,2
DA:21,2
DA:22,2
DA:23,2
DA:24,2
DA:25,0
DA:27,3
DA:30,1
DA:31,1
DA:32,1
DA:36,1
DA:37,1
DA:41,1
DA:42,1
DA:43,1
DA:46,0
DA:47,0
DA:48,0
DA:49,0
DA:52,1
DA:54,1
DA:55,2
DA:56,2
DA:57,2
DA:58,1
DA:60,0
DA:61,0
DA:62,0
DA:63,0
DA:64,0
DA:65,0
DA:66,0
DA:67,0
DA:68,0
DA:69,0
DA:70,0
DA:72,0
DA:73,0
DA:75,0
DA:78,14
BRF:0
BRH:0
LF:49
LH:30
end_of_record
SF:/app/implants/lib/eldritch/eldritch-core/src/interpreter/operations/comparison.rs
FN:10,_RNvNtNtNtCsjTRrhfWa0WU_13eldritch_core11interpreter10operations10comparison12values_equal
FN:20,_RNvNtNtNtCsjTRrhfWa0WU_13eldritch_core11interpreter10operations10comparison14compare_values
FN:38,_RNvNtNtNtCsjTRrhfWa0WU_13eldritch_core11interpreter10operations10comparison19apply_comparison_op
FN:10,_RNvNtNtNtCs3OupGlkSanV_13eldritch_core11interpreter10operations10comparison12values_equal
FN:20,_RNvNtNtNtCs3OupGlkSanV_13eldritch_core11interpreter10operations10comparison14compare_values
FN:38,_RNvNtNtNtCs3OupGlkSanV_13eldritch_core11interpreter10operations10comparison19apply_comparison_op
FNDA:357,_RNvNtNtNtCsjTRrhfWa0WU_13eldritch_core11interpreter10operations10comparison12values_equal
FNDA:21,_RNvNtNtNtCsjTRrhfWa0WU_13eldritch_core11interpreter10operations10comparison14compare_values
FNDA:257,_RNvNtNtNtCsjTRrhfWa0WU_13eldritch_core11interpreter10operations10comparison19apply_comparison_op
FNDA:0,_RNvNtNtNtCs3OupGlkSanV_13eldritch_core11interpreter10operations10comparison12values_equal
FNDA:0,_RNvNtNtNtCs3OupGlkSanV_13eldritch_core11interpreter10operations10comparison14compare_values
FNDA:0,_RNvNtNtNtCs3OupGlkSanV_13eldritch_core11interpreter10operations10comparison19apply_comparison_op
FNF:3
FNH:3
DA:10,357
DA:11,357
DA:12,30
DA:13,327
DA:14,327
DA:15,6
DA:16,321
DA:18,357
DA:20,21
DA:21,21
DA:22,0
DA:23,0
DA:25,21
DA:26,20
DA:28,1
DA:29,1
DA:30,1
DA:31,1
DA:32,1
DA:36,21
DA:38,257
DA:39,257
DA:40,257
DA:41,257
DA:42,257
DA:43,257
DA:44,257
DA:46,257
DA:47,189
DA:48,2
DA:49,5
DA:50,182
DA:52,68
DA:53,68
DA:54,35
DA:55,1
DA:56,2
DA:57,32
DA:59,33
DA:61,33
DA:62,0
DA:67,33
DA:68,4
DA:69,4
DA:70,4
DA:71,2
DA:72,1
DA:73,1
DA:74,0
DA:75,0
DA:78,2
DA:79,2
DA:80,2
DA:81,0
DA:82,1
DA:83,0
DA:84,1
DA:85,0
DA:90,27
DA:91,2
DA:92,2
DA:93,2
DA:94,2
DA:95,2
DA:96,2
DA:97,0
DA:98,0
DA:99,0
DA:100,0
DA:102,2
DA:103,2
DA:105,2
DA:107,25
DA:109,25
DA:110,2
DA:111,6
DA:114,5
DA:115,7
DA:118,1
DA:119,12
DA:127,257
BRF:0
BRH:0
LF:81
LH:69
end_of_record
SF:/app/implants/lib/eldritch/eldritch-core/src/interpreter/operations/comprehension.rs
FN:13,_RINvNtNtNtCsjTRrhfWa0WU_13eldritch_core11interpreter10operations13comprehension30evaluate_comprehension_genericNCNvNtNtB6_4eval14comprehensions17evaluate_set_comp0EB8_
FN:13,_RINvNtNtNtCsjTRrhfWa0WU_13eldritch_core11interpreter10operations13comprehension30evaluate_comprehension_genericNCNvNtNtB6_4eval14comprehensions18evaluate_dict_comp0EB8_
FN:13,_RINvNtNtNtCsjTRrhfWa0WU_13eldritch_core11interpreter10operations13comprehension30evaluate_comprehension_genericNCNvNtNtB6_4eval14comprehensions18evaluate_list_comp0EB8_
FN:13,_RINvNtNtNtCs3OupGlkSanV_13eldritch_core11interpreter10operations13comprehension30evaluate_comprehension_genericpEB8_
FNDA:4,_RINvNtNtNtCsjTRrhfWa0WU_13eldritch_core11interpreter10operations13comprehension30evaluate_comprehension_genericNCNvNtNtB6_4eval14comprehensions17evaluate_set_comp0EB8_
FNDA:7,_RINvNtNtNtCsjTRrhfWa0WU_13eldritch_core11interpreter10operations13comprehension30evaluate_comprehension_genericNCNvNtNtB6_4eval14comprehensions18evaluate_dict_comp0EB8_
FNDA:13,_RINvNtNtNtCsjTRrhfWa0WU_13eldritch_core11interpreter10operations13comprehension30evaluate_comprehension_genericNCNvNtNtB6_4eval14comprehensions18evaluate_list_comp0EB8_
FNDA:0,_RINvNtNtNtCs3OupGlkSanV_13eldritch_core11interpreter10operations13comprehension30evaluate_comprehension_genericpEB8_
FNF:1
FNH:1
DA:13,24
DA:14,24
DA:15,24
DA:16,24
DA:17,24
DA:18,24
DA:19,24
DA:20,24
DA:21,24
DA:23,24
DA:25,24
DA:27,24
DA:28,24
DA:29,24
DA:30,24
DA:31,24
DA:32,24
DA:33,24
DA:34,24
DA:35,24
DA:37,82
DA:38,60
DA:39,48
DA:40,48
DA:42,12
DA:43,0
DA:44,11
DA:45,0
DA:47,1
DA:48,1
DA:49,1
DA:50,1
DA:51,1
DA:56,11
DA:57,1
DA:58,1
DA:59,1
DA:60,1
DA:61,1
DA:62,1
DA:63,1
DA:64,1
DA:65,1
DA:67,10
DA:69,21
DA:70,21
DA:71,21
DA:74,58
DA:75,18
DA:76,40
DA:78,58
DA:79,50
DA:80,0
DA:81,0
DA:82,50
DA:83,8
DA:85,22
DA:86,22
DA:87,24
BRF:0
BRH:0
LF:59
LH:55
end_of_record
SF:/app/implants/lib/eldritch/eldritch-core/src/interpreter/operations/slicing.rs
FN:1,_RNvNtNtNtCsjTRrhfWa0WU_13eldritch_core11interpreter10operations7slicing20adjust_slice_indices
FN:67,_RNvNtNtNtNtCs3OupGlkSanV_13eldritch_core11interpreter10operations7slicing5testss_31test_adjust_slice_indices_basic
FN:121,_RNvNtNtNtNtCs3OupGlkSanV_13eldritch_core11interpreter10operations7slicing5testss_39test_adjust_slice_indices_complex_cases
FN:79,_RNvNtNtNtNtCs3OupGlkSanV_13eldritch_core11interpreter10operations7slicing5testss_39test_adjust_slice_indices_negative_step
FN:87,_RNvNtNtNtNtCs3OupGlkSanV_13eldritch_core11interpreter10operations7slicing5testss_42test_adjust_slice_indices_negative_indices
FN:109,_RNvNtNtNtNtCs3OupGlkSanV_13eldritch_core11interpreter10operations7slicing5testss_53test_adjust_slice_indices_out_of_bounds_negative_step
FN:97,_RNvNtNtNtNtCs3OupGlkSanV_13eldritch_core11interpreter10operations7slicing5testss_53test_adjust_slice_indices_out_of_bounds_positive_step
FN:1,_RNvNtNtNtCs3OupGlkSanV_13eldritch_core11interpreter10operations7slicing20adjust_slice_indices
FNDA:60,_RNvNtNtNtCsjTRrhfWa0WU_13eldritch_core11interpreter10operations7slicing20adjust_slice_indices
FNDA:1,_RNvNtNtNtNtCs3OupGlkSanV_13eldritch_core11interpreter10operations7slicing5testss_31test_adjust_slice_indices_basic
FNDA:1,_RNvNtNtNtNtCs3OupGlkSanV_13eldritch_core11interpreter10operations7slicing5testss_39test_adjust_slice_indices_complex_cases
FNDA:1,_RNvNtNtNtNtCs3OupGlkSanV_13eldritch_core11interpreter10operations7slicing5testss_39test_adjust_slice_indices_negative_step
FNDA:1,_RNvNtNtNtNtCs3OupGlkSanV_13eldritch_core11interpreter10operations7slicing5testss_42test_adjust_slice_indices_negative_indices
FNDA:1,_RNvNtNtNtNtCs3OupGlkSanV_13eldritch_core11interpreter10operations7slicing5testss_53test_adjust_slice_indices_out_of_bounds_negative_step
FNDA:1,_RNvNtNtNtNtCs3OupGlkSanV_13eldritch_core11interpreter10operations7slicing5testss_53test_adjust_slice_indices_out_of_bounds_positive_step
FNDA:18,_RNvNtNtNtCs3OupGlkSanV_13eldritch_core11interpreter10operations7slicing20adjust_slice_indices
FNF:7
FNH:7
DA:1,78
DA:2,78
DA:3,78
DA:4,78
DA:5,78
DA:6,78
DA:7,78
DA:8,42
DA:9,42
DA:10,13
DA:11,29
DA:12,42
DA:13,7
DA:14,1
DA:15,6
DA:16,1
DA:18,5
DA:20,35
DA:21,5
DA:22,30
DA:23,5
DA:25,25
DA:27,36
DA:28,15
DA:30,21
DA:33,78
DA:34,31
DA:35,31
DA:36,8
DA:37,23
DA:38,31
DA:39,6
DA:40,1
DA:41,5
DA:42,0
DA:44,5
DA:46,25
DA:47,3
DA:48,22
DA:49,2
DA:51,20
DA:53,47
DA:54,16
DA:56,31
DA:59,78
DA:60,78
DA:67,1
DA:69,1
DA:71,1
DA:73,1
DA:75,1
DA:76,1
DA:79,1
DA:81,1
DA:83,1
DA:84,1
DA:87,1
DA:89,1
DA:91,1
DA:93,1
DA:94,1
DA:97,1
DA:99,1
DA:101,1
DA:103,1
DA:105,1
DA:106,1
DA:109,1
DA:111,1
DA:113,1
DA:117,1
DA:118,1
DA:121,1
DA:124,1
DA:126,1
DA:127,1
BRF:0
BRH:0
LF:76
LH:75
end_of_record
SF:/app/implants/lib/eldritch/eldritch-core/src/interpreter/printer.rs
FN:73,_RNvMs_NtNtCsjTRrhfWa0WU_13eldritch_core11interpreter7printerNtB4_13BufferPrinter10get_stderr
FN:69,_RNvMs_NtNtCsjTRrhfWa0WU_13eldritch_core11interpreter7printerNtB4_13BufferPrinter10get_stdout
FN:62,_RNvMs_NtNtCsjTRrhfWa0WU_13eldritch_core11interpreter7printerNtB4_13BufferPrinter3new
FN:82,_RNvMs_NtNtCsjTRrhfWa0WU_13eldritch_core11interpreter7printerNtB4_13BufferPrinter4read
FN:77,_RNvMs_NtNtCsjTRrhfWa0WU_13eldritch_core11interpreter7printerNtB4_13BufferPrinter5clear
FN:99,_RNvMs_NtNtCsjTRrhfWa0WU_13eldritch_core11interpreter7printerNtB4_13BufferPrinter8read_err
FN:95,_RNvMs_NtNtCsjTRrhfWa0WU_13eldritch_core11interpreter7printerNtB4_13BufferPrinter8read_out
FN:41,_RNvXNtNtCsjTRrhfWa0WU_13eldritch_core11interpreter7printerNtB2_13StdoutPrinterNtB2_7Printer9print_err
FN:30,_RNvXNtNtCsjTRrhfWa0WU_13eldritch_core11interpreter7printerNtB2_13StdoutPrinterNtB2_7Printer9print_out
FN:105,_RNvXs0_NtNtCsjTRrhfWa0WU_13eldritch_core11interpreter7printerNtB5_13BufferPrinterNtNtCs4Vq2ZLagKfv_4core7default7Default7default
FN:119,_RNvXs1_NtNtCsjTRrhfWa0WU_13eldritch_core11interpreter7printerNtB5_13BufferPrinterNtB5_7Printer9print_err
FN:111,_RNvXs1_NtNtCsjTRrhfWa0WU_13eldritch_core11interpreter7printerNtB5_13BufferPrinterNtB5_7Printer9print_out
FN:73,_RNvMs_NtNtCs3OupGlkSanV_13eldritch_core11interpreter7printerNtB4_13BufferPrinter10get_stderr
FN:69,_RNvMs_NtNtCs3OupGlkSanV_13eldritch_core11interpreter7printerNtB4_13BufferPrinter10get_stdout
FN:62,_RNvMs_NtNtCs3OupGlkSanV_13eldritch_core11interpreter7printerNtB4_13BufferPrinter3new
FN:82,_RNvMs_NtNtCs3OupGlkSanV_13eldritch_core11interpreter7printerNtB4_13BufferPrinter4read
FN:77,_RNvMs_NtNtCs3OupGlkSanV_13eldritch_core11interpreter7printerNtB4_13BufferPrinter5clear
FN:99,_RNvMs_NtNtCs3OupGlkSanV_13eldritch_core11interpreter7printerNtB4_13BufferPrinter8read_err
FN:95,_RNvMs_NtNtCs3OupGlkSanV_13eldritch_core11interpreter7printerNtB4_13BufferPrinter8read_out
FN:105,_RNvXs0_NtNtCs3OupGlkSanV_13eldritch_core11interpreter7printerNtB5_13BufferPrinterNtNtCs4Vq2ZLagKfv_4core7default7Default7default
FN:119,_RNvXs1_NtNtCs3OupGlkSanV_13eldritch_core11interpreter7printerNtB5_13BufferPrinterNtB5_7Printer9print_err
FN:111,_RNvXs1_NtNtCs3OupGlkSanV_13eldritch_core11interpreter7printerNtB5_13BufferPrinterNtB5_7Printer9print_out
FN:41,_RNvXNtNtCs3OupGlkSanV_13eldritch_core11interpreter7printerNtB2_13StdoutPrinterNtB2_7Printer9print_err
FN:30,_RNvXNtNtCs3OupGlkSanV_13eldritch_core11interpreter7printerNtB2_13StdoutPrinterNtB2_7Printer9print_out
FNDA:0,_RNvMs_NtNtCsjTRrhfWa0WU_13eldritch_core11interpreter7printerNtB4_13BufferPrinter10get_stderr
FNDA:0,_RNvMs_NtNtCsjTRrhfWa0WU_13eldritch_core11interpreter7printerNtB4_13BufferPrinter10get_stdout
FNDA:19,_RNvMs_NtNtCsjTRrhfWa0WU_13eldritch_core11interpreter7printerNtB4_13BufferPrinter3new
FNDA:6,_RNvMs_NtNtCsjTRrhfWa0WU_13eldritch_core11interpreter7printerNtB4_13BufferPrinter4read
FNDA:0,_RNvMs_NtNtCsjTRrhfWa0WU_13eldritch_core11interpreter7printerNtB4_13BufferPrinter5clear
FNDA:5,_RNvMs_NtNtCsjTRrhfWa0WU_13eldritch_core11interpreter7printerNtB4_13BufferPrinter8read_err
FNDA:7,_RNvMs_NtNtCsjTRrhfWa0WU_13eldritch_core11interpreter7printerNtB4_13BufferPrinter8read_out
FNDA:0,_RNvXNtNtCsjTRrhfWa0WU_13eldritch_core11interpreter7printerNtB2_13StdoutPrinterNtB2_7Printer9print_err
FNDA:20,_RNvXNtNtCsjTRrhfWa0WU_13eldritch_core11interpreter7printerNtB2_13StdoutPrinterNtB2_7Printer9print_out
FNDA:0,_RNvXs0_NtNtCsjTRrhfWa0WU_13eldritch_core11interpreter7printerNtB5_13BufferPrinterNtNtCs4Vq2ZLagKfv_4core7default7Default7default
FNDA:2,_RNvXs1_NtNtCsjTRrhfWa0WU_13eldritch_core11interpreter7printerNtB5_13BufferPrinterNtB5_7Printer9print_err
FNDA:14,_RNvXs1_NtNtCsjTRrhfWa0WU_13eldritch_core11interpreter7printerNtB5_13BufferPrinterNtB5_7Printer9print_out
FNDA:0,_RNvMs_NtNtCs3OupGlkSanV_13eldritch_core11interpreter7printerNtB4_13BufferPrinter10get_stderr
FNDA:0,_RNvMs_NtNtCs3OupGlkSanV_13eldritch_core11interpreter7printerNtB4_13BufferPrinter10get_stdout
FNDA:0,_RNvMs_NtNtCs3OupGlkSanV_13eldritch_core11interpreter7printerNtB4_13BufferPrinter3new
FNDA:0,_RNvMs_NtNtCs3OupGlkSanV_13eldritch_core11interpreter7printerNtB4_13BufferPrinter4read
FNDA:0,_RNvMs_NtNtCs3OupGlkSanV_13eldritch_core11interpreter7printerNtB4_13BufferPrinter5clear
FNDA:0,_RNvMs_NtNtCs3OupGlkSanV_13eldritch_core11interpreter7printerNtB4_13BufferPrinter8read_err
FNDA:0,_RNvMs_NtNtCs3OupGlkSanV_13eldritch_core11interpreter7printerNtB4_13BufferPrinter8read_out
FNDA:0,_RNvXs0_NtNtCs3OupGlkSanV_13eldritch_core11interpreter7printerNtB5_13BufferPrinterNtNtCs4Vq2ZLagKfv_4core7default7Default7default
FNDA:0,_RNvXs1_NtNtCs3OupGlkSanV_13eldritch_core11interpreter7printerNtB5_13BufferPrinterNtB5_7Printer9print_err
FNDA:0,_RNvXs1_NtNtCs3OupGlkSanV_13eldritch_core11interpreter7printerNtB5_13BufferPrinterNtB5_7Printer9print_out
FNDA:0,_RNvXNtNtCs3OupGlkSanV_13eldritch_core11interpreter7printerNtB2_13StdoutPrinterNtB2_7Printer9print_err
FNDA:0,_RNvXNtNtCs3OupGlkSanV_13eldritch_core11interpreter7printerNtB2_13StdoutPrinterNtB2_7Printer9print_out
FNF:12
FNH:7
DA:30,20
DA:32,20
DA:33,20
DA:34,20
DA:39,20
DA:41,0
DA:43,0
DA:44,0
DA:45,0
DA:50,0
DA:62,19
DA:63,19
DA:64,19
DA:65,19
DA:66,19
DA:67,19
DA:69,0
DA:70,0
DA:71,0
DA:73,0
DA:74,0
DA:75,0
DA:77,0
DA:78,0
DA:79,0
DA:80,0
DA:82,6
DA:83,6
DA:84,6
DA:85,6
DA:86,6
DA:87,0
DA:88,0
DA:91,0
DA:93,6
DA:95,7
DA:96,7
DA:97,7
DA:99,5
DA:100,5
DA:101,5
DA:105,0
DA:106,0
DA:107,0
DA:111,14
DA:112,14
DA:113,14
DA:114,4
DA:115,10
DA:116,14
DA:117,14
DA:119,2
DA:120,2
DA:121,2
DA:122,0
DA:123,2
DA:124,2
DA:125,2
BRF:0
BRH:0
LF:58
LH:36
end_of_record
SF:/app/implants/lib/eldritch/eldritch-core/src/lexer.rs
FN:258,_RNCNvMNtCsjTRrhfWa0WU_13eldritch_core5lexerNtB4_5Lexer6string0B6_
FN:86,_RNvMNtCsjTRrhfWa0WU_13eldritch_core5lexerNtB2_5Lexer10identifier
FN:58,_RNvMNtCsjTRrhfWa0WU_13eldritch_core5lexerNtB2_5Lexer10match_char
FN:344,_RNvMNtCsjTRrhfWa0WU_13eldritch_core5lexerNtB2_5Lexer10next_token
FN:73,_RNvMNtCsjTRrhfWa0WU_13eldritch_core5lexerNtB2_5Lexer11error_token
FN:326,_RNvMNtCsjTRrhfWa0WU_13eldritch_core5lexerNtB2_5Lexer11scan_tokens
FN:80,_RNvMNtCsjTRrhfWa0WU_13eldritch_core5lexerNtB2_5Lexer12skip_comment
FN:270,_RNvMNtCsjTRrhfWa0WU_13eldritch_core5lexerNtB2_5Lexer19create_string_token
FN:277,_RNvMNtCsjTRrhfWa0WU_13eldritch_core5lexerNtB2_5Lexer27tokenize_fstring_expression
FN:19,_RNvMNtCsjTRrhfWa0WU_13eldritch_core5lexerNtB2_5Lexer3new
FN:44,_RNvMNtCsjTRrhfWa0WU_13eldritch_core5lexerNtB2_5Lexer4peek
FN:98,_RNvMNtCsjTRrhfWa0WU_13eldritch_core5lexerNtB2_5Lexer6number
FN:121,_RNvMNtCsjTRrhfWa0WU_13eldritch_core5lexerNtB2_5Lexer6string
FN:38,_RNvMNtCsjTRrhfWa0WU_13eldritch_core5lexerNtB2_5Lexer7advance
FN:66,_RNvMNtCsjTRrhfWa0WU_13eldritch_core5lexerNtB2_5Lexer9add_token
FN:34,_RNvMNtCsjTRrhfWa0WU_13eldritch_core5lexerNtB2_5Lexer9is_at_end
FN:51,_RNvMNtCsjTRrhfWa0WU_13eldritch_core5lexerNtB2_5Lexer9peek_next
FN:258,_RNCNvMNtCs3OupGlkSanV_13eldritch_core5lexerNtB4_5Lexer6string0B6_
FN:86,_RNvMNtCs3OupGlkSanV_13eldritch_core5lexerNtB2_5Lexer10identifier
FN:58,_RNvMNtCs3OupGlkSanV_13eldritch_core5lexerNtB2_5Lexer10match_char
FN:344,_RNvMNtCs3OupGlkSanV_13eldritch_core5lexerNtB2_5Lexer10next_token
FN:73,_RNvMNtCs3OupGlkSanV_13eldritch_core5lexerNtB2_5Lexer11error_token
FN:326,_RNvMNtCs3OupGlkSanV_13eldritch_core5lexerNtB2_5Lexer11scan_tokens
FN:80,_RNvMNtCs3OupGlkSanV_13eldritch_core5lexerNtB2_5Lexer12skip_comment
FN:270,_RNvMNtCs3OupGlkSanV_13eldritch_core5lexerNtB2_5Lexer19create_string_token
FN:277,_RNvMNtCs3OupGlkSanV_13eldritch_core5lexerNtB2_5Lexer27tokenize_fstring_expression
FN:19,_RNvMNtCs3OupGlkSanV_13eldritch_core5lexerNtB2_5Lexer3new
FN:44,_RNvMNtCs3OupGlkSanV_13eldritch_core5lexerNtB2_5Lexer4peek
FN:98,_RNvMNtCs3OupGlkSanV_13eldritch_core5lexerNtB2_5Lexer6number
FN:121,_RNvMNtCs3OupGlkSanV_13eldritch_core5lexerNtB2_5Lexer6string
FN:38,_RNvMNtCs3OupGlkSanV_13eldritch_core5lexerNtB2_5Lexer7advance
FN:66,_RNvMNtCs3OupGlkSanV_13eldritch_core5lexerNtB2_5Lexer9add_token
FN:34,_RNvMNtCs3OupGlkSanV_13eldritch_core5lexerNtB2_5Lexer9is_at_end
FN:51,_RNvMNtCs3OupGlkSanV_13eldritch_core5lexerNtB2_5Lexer9peek_next
FNDA:119,_RNCNvMNtCsjTRrhfWa0WU_13eldritch_core5lexerNtB4_5Lexer6string0B6_
FNDA:4588,_RNvMNtCsjTRrhfWa0WU_13eldritch_core5lexerNtB2_5Lexer10identifier
FNDA:1439,_RNvMNtCsjTRrhfWa0WU_13eldritch_core5lexerNtB2_5Lexer10match_char
FNDA:23372,_RNvMNtCsjTRrhfWa0WU_13eldritch_core5lexerNtB2_5Lexer10next_token
FNDA:9,_RNvMNtCsjTRrhfWa0WU_13eldritch_core5lexerNtB2_5Lexer11error_token
FNDA:928,_RNvMNtCsjTRrhfWa0WU_13eldritch_core5lexerNtB2_5Lexer11scan_tokens
FNDA:253,_RNvMNtCsjTRrhfWa0WU_13eldritch_core5lexerNtB2_5Lexer12skip_comment
FNDA:23,_RNvMNtCsjTRrhfWa0WU_13eldritch_core5lexerNtB2_5Lexer19create_string_token
FNDA:22,_RNvMNtCsjTRrhfWa0WU_13eldritch_core5lexerNtB2_5Lexer27tokenize_fstring_expression
FNDA:928,_RNvMNtCsjTRrhfWa0WU_13eldritch_core5lexerNtB2_5Lexer3new
FNDA:124619,_RNvMNtCsjTRrhfWa0WU_13eldritch_core5lexerNtB2_5Lexer4peek
FNDA:2382,_RNvMNtCsjTRrhfWa0WU_13eldritch_core5lexerNtB2_5Lexer6number
FNDA:1197,_RNvMNtCsjTRrhfWa0WU_13eldritch_core5lexerNtB2_5Lexer6string
FNDA:67055,_RNvMNtCsjTRrhfWa0WU_13eldritch_core5lexerNtB2_5Lexer7advance
FNDA:23134,_RNvMNtCsjTRrhfWa0WU_13eldritch_core5lexerNtB2_5Lexer9add_token
FNDA:171302,_RNvMNtCsjTRrhfWa0WU_13eldritch_core5lexerNtB2_5Lexer9is_at_end
FNDA:328,_RNvMNtCsjTRrhfWa0WU_13eldritch_core5lexerNtB2_5Lexer9peek_next
FNDA:0,_RNCNvMNtCs3OupGlkSanV_13eldritch_core5lexerNtB4_5Lexer6string0B6_
FNDA:0,_RNvMNtCs3OupGlkSanV_13eldritch_core5lexerNtB2_5Lexer10identifier
FNDA:0,_RNvMNtCs3OupGlkSanV_13eldritch_core5lexerNtB2_5Lexer10match_char
FNDA:0,_RNvMNtCs3OupGlkSanV_13eldritch_core5lexerNtB2_5Lexer10next_token
FNDA:0,_RNvMNtCs3OupGlkSanV_13eldritch_core5lexerNtB2_5Lexer11error_token
FNDA:0,_RNvMNtCs3OupGlkSanV_13eldritch_core5lexerNtB2_5Lexer11scan_tokens
FNDA:0,_RNvMNtCs3OupGlkSanV_13eldritch_core5lexerNtB2_5Lexer12skip_comment
FNDA:0,_RNvMNtCs3OupGlkSanV_13eldritch_core5lexerNtB2_5Lexer19create_string_token
FNDA:0,_RNvMNtCs3OupGlkSanV_13eldritch_core5lexerNtB2_5Lexer27tokenize_fstring_expression
FNDA:0,_RNvMNtCs3OupGlkSanV_13eldritch_core5lexerNtB2_5Lexer3new
FNDA:0,_RNvMNtCs3OupGlkSanV_13eldritch_core5lexerNtB2_5Lexer4peek
FNDA:0,_RNvMNtCs3OupGlkSanV_13eldritch_core5lexerNtB2_5Lexer6number
FNDA:0,_RNvMNtCs3OupGlkSanV_13eldritch_core5lexerNtB2_5Lexer6string
FNDA:0,_RNvMNtCs3OupGlkSanV_13eldritch_core5lexerNtB2_5Lexer7advance
FNDA:0,_RNvMNtCs3OupGlkSanV_13eldritch_core5lexerNtB2_5Lexer9add_token
FNDA:0,_RNvMNtCs3OupGlkSanV_13eldritch_core5lexerNtB2_5Lexer9is_at_end
FNDA:0,_RNvMNtCs3OupGlkSanV_13eldritch_core5lexerNtB2_5Lexer9peek_next
FNF:17
FNH:17
DA:19,928
DA:20,928
DA:21,928
DA:23,928
DA:24,928
DA:25,928
DA:26,928
DA:27,928
DA:28,928
DA:29,928
DA:30,928
DA:31,928
DA:32,928
DA:34,171302
DA:35,171302
DA:36,171302
DA:38,67055
DA:39,67055
DA:40,67055
DA:41,67055
DA:42,67055
DA:44,124619
DA:45,124619
DA:46,1856
DA:47,122763
DA:48,122763
DA:49,124619
DA:51,328
DA:52,328
DA:53,0
DA:54,328
DA:55,328
DA:56,328
DA:58,1439
DA:59,1439
DA:60,1151
DA:61,288
DA:62,288
DA:63,288
DA:64,1439
DA:66,23134
DA:67,23134
DA:68,23134
DA:69,23134
DA:70,23134
DA:71,23134
DA:73,9
DA:74,9
DA:75,9
DA:76,9
DA:77,9
DA:78,9
DA:80,253
DA:81,7994
DA:82,7741
DA:83,7741
DA:84,253
DA:86,4588
DA:87,21692
DA:88,17104
DA:89,17104
DA:90,4588
DA:91,4588
DA:92,624
DA:94,3964
DA:96,4588
DA:98,2382
DA:99,2682
DA:100,300
DA:101,300
DA:103,2382
DA:105,120
DA:107,253
DA:108,133
DA:109,133
DA:111,120
DA:112,120
DA:113,120
DA:114,2262
DA:116,2262
DA:117,2262
DA:118,2262
DA:119,2382
DA:121,1197
DA:122,1197
DA:123,1197
DA:124,1197
DA:125,1197
DA:126,1197
DA:127,1197
DA:128,1197
DA:129,59
DA:130,1138
DA:131,1138
DA:132,1138
DA:134,1197
DA:135,1197
DA:137,1197
DA:138,10
DA:139,10
DA:140,10
DA:142,1187
DA:146,12319
DA:147,1
DA:148,1
DA:149,1
DA:150,1
DA:151,12318
DA:153,12318
DA:155,12318
DA:156,1275
DA:157,92
DA:158,11
DA:159,11
DA:161,10
DA:162,10
DA:163,10
DA:164,10
DA:165,82
DA:167,1183
DA:168,1183
DA:170,11043
DA:172,11125
DA:173,214
DA:174,3
DA:175,3
DA:176,3
DA:177,3
DA:178,211
DA:179,211
DA:180,10911
DA:182,11122
DA:183,22
DA:184,18
DA:185,18
DA:186,18
DA:187,22
DA:188,22
DA:189,22
DA:190,22
DA:191,11100
DA:193,11100
DA:194,82
DA:195,82
DA:196,0
DA:197,82
DA:199,82
DA:200,19
DA:201,19
DA:202,2
DA:203,2
DA:204,2
DA:205,2
DA:207,17
DA:208,17
DA:209,2
DA:210,2
DA:211,15
DA:214,63
DA:215,63
DA:216,33
DA:217,2
DA:218,1
DA:219,7
DA:220,13
DA:221,1
DA:222,1
DA:223,1
DA:224,1
DA:227,3
DA:228,9
DA:229,6
DA:230,6
DA:231,6
DA:233,3
DA:234,3
DA:235,3
DA:236,3
DA:237,0
DA:238,0
DA:239,0
DA:240,0
DA:243,0
DA:244,0
DA:245,0
DA:246,0
DA:249,2
DA:252,11018
DA:253,11018
DA:254,11018
DA:257,1193
DA:258,119
DA:259,33
DA:260,1160
DA:261,15
DA:262,5
DA:263,10
DA:264,15
DA:266,1145
DA:268,1197
DA:270,23
DA:271,23
DA:272,23
DA:273,23
DA:274,23
DA:275,23
DA:277,22
DA:278,22
DA:279,22
DA:280,22
DA:282,152
DA:283,130
DA:284,1
DA:285,129
DA:286,22
DA:287,107
DA:288,130
DA:289,109
DA:290,109
DA:293,22
DA:294,1
DA:295,1
DA:296,1
DA:297,1
DA:298,21
DA:300,21
DA:301,21
DA:302,21
DA:305,21
DA:306,69
DA:307,69
DA:308,21
DA:309,21
DA:310,0
DA:311,0
DA:312,0
DA:313,0
DA:314,27
DA:318,21
DA:320,21
DA:321,21
DA:322,21
DA:323,21
DA:324,22
DA:326,928
DA:327,928
DA:329,22146
DA:330,22146
DA:332,953
DA:333,25
DA:334,25
DA:335,25
DA:336,928
DA:337,928
DA:339,21218
DA:342,928
DA:344,23372
DA:345,23372
DA:346,14
DA:347,23358
DA:349,23358
DA:351,23429
DA:352,71
DA:353,71
DA:354,71
DA:356,23358
DA:357,3675
DA:358,5109
DA:359,1434
DA:360,1434
DA:361,1434
DA:362,3675
DA:363,927
DA:364,2748
DA:366,2748
DA:367,1816
DA:368,1816
DA:369,124
DA:370,124
DA:371,1692
DA:372,85
DA:373,184
DA:374,99
DA:375,99
DA:376,99
DA:377,85
DA:378,1
DA:379,1
DA:380,1
DA:381,1
DA:382,84
DA:383,84
DA:384,84
DA:385,84
DA:386,98
DA:387,14
DA:388,14
DA:389,84
DA:390,0
DA:391,1607
DA:393,932
DA:394,932
DA:395,932
DA:397,19683
DA:399,26591
DA:400,5301
DA:401,5301
DA:402,21290
DA:403,21290
DA:404,1
DA:405,21289
DA:407,21289
DA:409,3956
DA:411,2155
DA:412,2155
DA:415,2155
DA:416,2155
DA:417,2155
DA:418,2155
DA:421,683
DA:422,683
DA:425,683
DA:426,683
DA:427,683
DA:428,683
DA:431,250
DA:432,250
DA:435,249
DA:436,249
DA:437,249
DA:438,249
DA:440,1687
DA:441,378
DA:444,568
DA:445,13
DA:446,26
DA:447,13
DA:448,13
DA:449,13
DA:450,13
DA:451,13
DA:453,555
DA:456,113
DA:458,133
DA:459,14
DA:461,119
DA:465,107
DA:466,2
DA:467,105
DA:468,2
DA:470,103
DA:474,55
DA:475,5
DA:476,50
DA:477,3
DA:479,47
DA:483,47
DA:484,25
DA:485,2
DA:487,23
DA:489,22
DA:490,2
DA:492,20
DA:496,44
DA:497,2
DA:499,42
DA:502,4
DA:503,5
DA:504,4
DA:505,6
DA:507,748
DA:508,194
DA:510,554
DA:514,24
DA:515,3
DA:516,21
DA:517,4
DA:519,17
DA:523,18
DA:524,3
DA:525,15
DA:526,4
DA:528,11
DA:532,25
DA:533,23
DA:535,2
DA:536,2
DA:537,2
DA:538,2
DA:542,253
DA:543,253
DA:546,2727
DA:547,2727
DA:548,41
DA:549,2686
DA:550,2686
DA:552,1138
DA:554,181
DA:555,33
DA:556,33
DA:557,33
DA:559,148
DA:560,148
DA:564,260
DA:565,15
DA:566,15
DA:567,15
DA:569,245
DA:570,245
DA:574,251
DA:575,11
DA:576,11
DA:577,11
DA:579,240
DA:580,240
DA:583,6338
DA:584,3956
DA:585,1
DA:586,1
DA:587,1
DA:588,1
DA:590,23372
BRF:0
BRH:0
LF:423
LH:408
end_of_record
SF:/app/implants/lib/eldritch/eldritch-core/src/parser/expr.rs
FN:272,_RNvMNtNtCsjTRrhfWa0WU_13eldritch_core6parser4exprNtB4_6Parser10bitwise_or
FN:230,_RNvMNtNtCsjTRrhfWa0WU_13eldritch_core6parser4exprNtB4_6Parser10comparison
FN:19,_RNvMNtNtCsjTRrhfWa0WU_13eldritch_core6parser4exprNtB4_6Parser10expression
FN:373,_RNvMNtNtCsjTRrhfWa0WU_13eldritch_core6parser4exprNtB4_6Parser10unary_expr
FN:304,_RNvMNtNtCsjTRrhfWa0WU_13eldritch_core6parser4exprNtB4_6Parser11bitwise_and
FN:288,_RNvMNtNtCsjTRrhfWa0WU_13eldritch_core6parser4exprNtB4_6Parser11bitwise_xor
FN:498,_RNvMNtNtCsjTRrhfWa0WU_13eldritch_core6parser4exprNtB4_6Parser11finish_call
FN:47,_RNvMNtNtCsjTRrhfWa0WU_13eldritch_core6parser4exprNtB4_6Parser17lambda_expression
FN:911,_RNvMNtNtCsjTRrhfWa0WU_13eldritch_core6parser4exprNtB4_6Parser21parse_fstring_content
FN:69,_RNvMNtNtCsjTRrhfWa0WU_13eldritch_core6parser4exprNtB4_6Parser21parse_function_params
FN:388,_RNvMNtNtCsjTRrhfWa0WU_13eldritch_core6parser4exprNtB4_6Parser4call
FN:336,_RNvMNtNtCsjTRrhfWa0WU_13eldritch_core6parser4exprNtB4_6Parser4term
FN:320,_RNvMNtNtCsjTRrhfWa0WU_13eldritch_core6parser4exprNtB4_6Parser5shift
FN:352,_RNvMNtNtCsjTRrhfWa0WU_13eldritch_core6parser4exprNtB4_6Parser6factor
FN:548,_RNvMNtNtCsjTRrhfWa0WU_13eldritch_core6parser4exprNtB4_6Parser7primary
FN:214,_RNvMNtNtCsjTRrhfWa0WU_13eldritch_core6parser4exprNtB4_6Parser8equality
FN:167,_RNvMNtNtCsjTRrhfWa0WU_13eldritch_core6parser4exprNtB4_6Parser8logic_or
FN:183,_RNvMNtNtCsjTRrhfWa0WU_13eldritch_core6parser4exprNtB4_6Parser9logic_and
FN:199,_RNvMNtNtCsjTRrhfWa0WU_13eldritch_core6parser4exprNtB4_6Parser9logic_not
FN:14,_RNvMNtNtCsjTRrhfWa0WU_13eldritch_core6parser4exprNtB4_6Parser9make_expr
FN:29,_RNCNvMNtNtCsjTRrhfWa0WU_13eldritch_core6parser4exprNtB6_6Parser10expression0B8_
FN:541,_RNCNvMNtNtCsjTRrhfWa0WU_13eldritch_core6parser4exprNtB6_6Parser11finish_call0B8_
FN:53,_RNCNvMNtNtCsjTRrhfWa0WU_13eldritch_core6parser4exprNtB6_6Parser17lambda_expression0B8_
FN:939,_RNCNvMNtNtCsjTRrhfWa0WU_13eldritch_core6parser4exprNtB6_6Parser21parse_fstring_content0B8_
FN:79,_RNCNvMNtNtCsjTRrhfWa0WU_13eldritch_core6parser4exprNtB6_6Parser21parse_function_params0B8_
FN:118,_RNCNvMNtNtCsjTRrhfWa0WU_13eldritch_core6parser4exprNtB6_6Parser21parse_function_paramss0_0B8_
FN:141,_RNCNvMNtNtCsjTRrhfWa0WU_13eldritch_core6parser4exprNtB6_6Parser21parse_function_paramss1_0B8_
FN:142,_RNCNvMNtNtCsjTRrhfWa0WU_13eldritch_core6parser4exprNtB6_6Parser21parse_function_paramss2_0B8_
FN:98,_RNCNvMNtNtCsjTRrhfWa0WU_13eldritch_core6parser4exprNtB6_6Parser21parse_function_paramss_0B8_
FN:453,_RNCNvMNtNtCsjTRrhfWa0WU_13eldritch_core6parser4exprNtB6_6Parser4call0B8_
FN:613,_RNCNvMNtNtCsjTRrhfWa0WU_13eldritch_core6parser4exprNtB6_6Parser7primary0B8_
FN:645,_RNCNvMNtNtCsjTRrhfWa0WU_13eldritch_core6parser4exprNtB6_6Parser7primarys0_0B8_
FN:659,_RNCNvMNtNtCsjTRrhfWa0WU_13eldritch_core6parser4exprNtB6_6Parser7primarys1_0B8_
FN:666,_RNCNvMNtNtCsjTRrhfWa0WU_13eldritch_core6parser4exprNtB6_6Parser7primarys2_0B8_
FN:713,_RNCNvMNtNtCsjTRrhfWa0WU_13eldritch_core6parser4exprNtB6_6Parser7primarys3_0B8_
FN:761,_RNCNvMNtNtCsjTRrhfWa0WU_13eldritch_core6parser4exprNtB6_6Parser7primarys4_0B8_
FN:786,_RNCNvMNtNtCsjTRrhfWa0WU_13eldritch_core6parser4exprNtB6_6Parser7primarys5_0B8_
FN:800,_RNCNvMNtNtCsjTRrhfWa0WU_13eldritch_core6parser4exprNtB6_6Parser7primarys6_0B8_
FN:808,_RNCNvMNtNtCsjTRrhfWa0WU_13eldritch_core6parser4exprNtB6_6Parser7primarys7_0B8_
FN:830,_RNCNvMNtNtCsjTRrhfWa0WU_13eldritch_core6parser4exprNtB6_6Parser7primarys8_0B8_
FN:840,_RNCNvMNtNtCsjTRrhfWa0WU_13eldritch_core6parser4exprNtB6_6Parser7primarys9_0B8_
FN:621,_RNCNvMNtNtCsjTRrhfWa0WU_13eldritch_core6parser4exprNtB6_6Parser7primarys_0B8_
FN:851,_RNCNvMNtNtCsjTRrhfWa0WU_13eldritch_core6parser4exprNtB6_6Parser7primarysa_0B8_
FN:865,_RNCNvMNtNtCsjTRrhfWa0WU_13eldritch_core6parser4exprNtB6_6Parser7primarysb_0B8_
FN:872,_RNCNvMNtNtCsjTRrhfWa0WU_13eldritch_core6parser4exprNtB6_6Parser7primarysc_0B8_
FN:900,_RNCNvMNtNtCsjTRrhfWa0WU_13eldritch_core6parser4exprNtB6_6Parser7primarysd_0B8_
FN:29,_RNCNvMNtNtCs3OupGlkSanV_13eldritch_core6parser4exprNtB6_6Parser10expression0B8_
FN:541,_RNCNvMNtNtCs3OupGlkSanV_13eldritch_core6parser4exprNtB6_6Parser11finish_call0B8_
FN:53,_RNCNvMNtNtCs3OupGlkSanV_13eldritch_core6parser4exprNtB6_6Parser17lambda_expression0B8_
FN:939,_RNCNvMNtNtCs3OupGlkSanV_13eldritch_core6parser4exprNtB6_6Parser21parse_fstring_content0B8_
FN:79,_RNCNvMNtNtCs3OupGlkSanV_13eldritch_core6parser4exprNtB6_6Parser21parse_function_params0B8_
FN:118,_RNCNvMNtNtCs3OupGlkSanV_13eldritch_core6parser4exprNtB6_6Parser21parse_function_paramss0_0B8_
FN:141,_RNCNvMNtNtCs3OupGlkSanV_13eldritch_core6parser4exprNtB6_6Parser21parse_function_paramss1_0B8_
FN:142,_RNCNvMNtNtCs3OupGlkSanV_13eldritch_core6parser4exprNtB6_6Parser21parse_function_paramss2_0B8_
FN:98,_RNCNvMNtNtCs3OupGlkSanV_13eldritch_core6parser4exprNtB6_6Parser21parse_function_paramss_0B8_
FN:453,_RNCNvMNtNtCs3OupGlkSanV_13eldritch_core6parser4exprNtB6_6Parser4call0B8_
FN:613,_RNCNvMNtNtCs3OupGlkSanV_13eldritch_core6parser4exprNtB6_6Parser7primary0B8_
FN:645,_RNCNvMNtNtCs3OupGlkSanV_13eldritch_core6parser4exprNtB6_6Parser7primarys0_0B8_
FN:659,_RNCNvMNtNtCs3OupGlkSanV_13eldritch_core6parser4exprNtB6_6Parser7primarys1_0B8_
FN:666,_RNCNvMNtNtCs3OupGlkSanV_13eldritch_core6parser4exprNtB6_6Parser7primarys2_0B8_
FN:713,_RNCNvMNtNtCs3OupGlkSanV_13eldritch_core6parser4exprNtB6_6Parser7primarys3_0B8_
FN:761,_RNCNvMNtNtCs3OupGlkSanV_13eldritch_core6parser4exprNtB6_6Parser7primarys4_0B8_
FN:786,_RNCNvMNtNtCs3OupGlkSanV_13eldritch_core6parser4exprNtB6_6Parser7primarys5_0B8_
FN:800,_RNCNvMNtNtCs3OupGlkSanV_13eldritch_core6parser4exprNtB6_6Parser7primarys6_0B8_
FN:808,_RNCNvMNtNtCs3OupGlkSanV_13eldritch_core6parser4exprNtB6_6Parser7primarys7_0B8_
FN:830,_RNCNvMNtNtCs3OupGlkSanV_13eldritch_core6parser4exprNtB6_6Parser7primarys8_0B8_
FN:840,_RNCNvMNtNtCs3OupGlkSanV_13eldritch_core6parser4exprNtB6_6Parser7primarys9_0B8_
FN:621,_RNCNvMNtNtCs3OupGlkSanV_13eldritch_core6parser4exprNtB6_6Parser7primarys_0B8_
FN:851,_RNCNvMNtNtCs3OupGlkSanV_13eldritch_core6parser4exprNtB6_6Parser7primarysa_0B8_
FN:865,_RNCNvMNtNtCs3OupGlkSanV_13eldritch_core6parser4exprNtB6_6Parser7primarysb_0B8_
FN:872,_RNCNvMNtNtCs3OupGlkSanV_13eldritch_core6parser4exprNtB6_6Parser7primarysc_0B8_
FN:900,_RNCNvMNtNtCs3OupGlkSanV_13eldritch_core6parser4exprNtB6_6Parser7primarysd_0B8_
FN:272,_RNvMNtNtCs3OupGlkSanV_13eldritch_core6parser4exprNtB4_6Parser10bitwise_or
FN:230,_RNvMNtNtCs3OupGlkSanV_13eldritch_core6parser4exprNtB4_6Parser10comparison
FN:19,_RNvMNtNtCs3OupGlkSanV_13eldritch_core6parser4exprNtB4_6Parser10expression
FN:373,_RNvMNtNtCs3OupGlkSanV_13eldritch_core6parser4exprNtB4_6Parser10unary_expr
FN:304,_RNvMNtNtCs3OupGlkSanV_13eldritch_core6parser4exprNtB4_6Parser11bitwise_and
FN:288,_RNvMNtNtCs3OupGlkSanV_13eldritch_core6parser4exprNtB4_6Parser11bitwise_xor
FN:498,_RNvMNtNtCs3OupGlkSanV_13eldritch_core6parser4exprNtB4_6Parser11finish_call
FN:47,_RNvMNtNtCs3OupGlkSanV_13eldritch_core6parser4exprNtB4_6Parser17lambda_expression
FN:911,_RNvMNtNtCs3OupGlkSanV_13eldritch_core6parser4exprNtB4_6Parser21parse_fstring_content
FN:69,_RNvMNtNtCs3OupGlkSanV_13eldritch_core6parser4exprNtB4_6Parser21parse_function_params
FN:388,_RNvMNtNtCs3OupGlkSanV_13eldritch_core6parser4exprNtB4_6Parser4call
FN:336,_RNvMNtNtCs3OupGlkSanV_13eldritch_core6parser4exprNtB4_6Parser4term
FN:320,_RNvMNtNtCs3OupGlkSanV_13eldritch_core6parser4exprNtB4_6Parser5shift
FN:352,_RNvMNtNtCs3OupGlkSanV_13eldritch_core6parser4exprNtB4_6Parser6factor
FN:548,_RNvMNtNtCs3OupGlkSanV_13eldritch_core6parser4exprNtB4_6Parser7primary
FN:214,_RNvMNtNtCs3OupGlkSanV_13eldritch_core6parser4exprNtB4_6Parser8equality
FN:167,_RNvMNtNtCs3OupGlkSanV_13eldritch_core6parser4exprNtB4_6Parser8logic_or
FN:183,_RNvMNtNtCs3OupGlkSanV_13eldritch_core6parser4exprNtB4_6Parser9logic_and
FN:199,_RNvMNtNtCs3OupGlkSanV_13eldritch_core6parser4exprNtB4_6Parser9logic_not
FN:14,_RNvMNtNtCs3OupGlkSanV_13eldritch_core6parser4exprNtB4_6Parser9make_expr
FNDA:7361,_RNvMNtNtCsjTRrhfWa0WU_13eldritch_core6parser4exprNtB4_6Parser10bitwise_or
FNDA:7243,_RNvMNtNtCsjTRrhfWa0WU_13eldritch_core6parser4exprNtB4_6Parser10comparison
FNDA:6990,_RNvMNtNtCsjTRrhfWa0WU_13eldritch_core6parser4exprNtB4_6Parser10expression
FNDA:7718,_RNvMNtNtCsjTRrhfWa0WU_13eldritch_core6parser4exprNtB4_6Parser10unary_expr
FNDA:7368,_RNvMNtNtCsjTRrhfWa0WU_13eldritch_core6parser4exprNtB4_6Parser11bitwise_and
FNDA:7365,_RNvMNtNtCsjTRrhfWa0WU_13eldritch_core6parser4exprNtB4_6Parser11bitwise_xor
FNDA:1907,_RNvMNtNtCsjTRrhfWa0WU_13eldritch_core6parser4exprNtB4_6Parser11finish_call
FNDA:11,_RNvMNtNtCsjTRrhfWa0WU_13eldritch_core6parser4exprNtB4_6Parser17lambda_expression
FNDA:12,_RNvMNtNtCsjTRrhfWa0WU_13eldritch_core6parser4exprNtB4_6Parser21parse_fstring_content
FNDA:66,_RNvMNtNtCsjTRrhfWa0WU_13eldritch_core6parser4exprNtB4_6Parser21parse_function_params
FNDA:7621,_RNvMNtNtCsjTRrhfWa0WU_13eldritch_core6parser4exprNtB4_6Parser4call
FNDA:7375,_RNvMNtNtCsjTRrhfWa0WU_13eldritch_core6parser4exprNtB4_6Parser4term
FNDA:7371,_RNvMNtNtCsjTRrhfWa0WU_13eldritch_core6parser4exprNtB4_6Parser5shift
FNDA:7504,_RNvMNtNtCsjTRrhfWa0WU_13eldritch_core6parser4exprNtB4_6Parser6factor
FNDA:7621,_RNvMNtNtCsjTRrhfWa0WU_13eldritch_core6parser4exprNtB4_6Parser7primary
FNDA:7028,_RNvMNtNtCsjTRrhfWa0WU_13eldritch_core6parser4exprNtB4_6Parser8equality
FNDA:7009,_RNvMNtNtCsjTRrhfWa0WU_13eldritch_core6parser4exprNtB4_6Parser8logic_or
FNDA:7021,_RNvMNtNtCsjTRrhfWa0WU_13eldritch_core6parser4exprNtB4_6Parser9logic_and
FNDA:7057,_RNvMNtNtCsjTRrhfWa0WU_13eldritch_core6parser4exprNtB4_6Parser9logic_not
FNDA:10985,_RNvMNtNtCsjTRrhfWa0WU_13eldritch_core6parser4exprNtB4_6Parser9make_expr
FNDA:3,_RNCNvMNtNtCsjTRrhfWa0WU_13eldritch_core6parser4exprNtB6_6Parser10expression0B8_
FNDA:1907,_RNCNvMNtNtCsjTRrhfWa0WU_13eldritch_core6parser4exprNtB6_6Parser11finish_call0B8_
FNDA:10,_RNCNvMNtNtCsjTRrhfWa0WU_13eldritch_core6parser4exprNtB6_6Parser17lambda_expression0B8_
FNDA:19,_RNCNvMNtNtCsjTRrhfWa0WU_13eldritch_core6parser4exprNtB6_6Parser21parse_fstring_content0B8_
FNDA:8,_RNCNvMNtNtCsjTRrhfWa0WU_13eldritch_core6parser4exprNtB6_6Parser21parse_function_params0B8_
FNDA:73,_RNCNvMNtNtCsjTRrhfWa0WU_13eldritch_core6parser4exprNtB6_6Parser21parse_function_paramss0_0B8_
FNDA:49,_RNCNvMNtNtCsjTRrhfWa0WU_13eldritch_core6parser4exprNtB6_6Parser21parse_function_paramss1_0B8_
FNDA:49,_RNCNvMNtNtCsjTRrhfWa0WU_13eldritch_core6parser4exprNtB6_6Parser21parse_function_paramss2_0B8_
FNDA:3,_RNCNvMNtNtCsjTRrhfWa0WU_13eldritch_core6parser4exprNtB6_6Parser21parse_function_paramss_0B8_
FNDA:184,_RNCNvMNtNtCsjTRrhfWa0WU_13eldritch_core6parser4exprNtB6_6Parser4call0B8_
FNDA:107,_RNCNvMNtNtCsjTRrhfWa0WU_13eldritch_core6parser4exprNtB6_6Parser7primary0B8_
FNDA:18,_RNCNvMNtNtCsjTRrhfWa0WU_13eldritch_core6parser4exprNtB6_6Parser7primarys0_0B8_
FNDA:15,_RNCNvMNtNtCsjTRrhfWa0WU_13eldritch_core6parser4exprNtB6_6Parser7primarys1_0B8_
FNDA:14,_RNCNvMNtNtCsjTRrhfWa0WU_13eldritch_core6parser4exprNtB6_6Parser7primarys2_0B8_
FNDA:387,_RNCNvMNtNtCsjTRrhfWa0WU_13eldritch_core6parser4exprNtB6_6Parser7primarys3_0B8_
FNDA:0,_RNCNvMNtNtCsjTRrhfWa0WU_13eldritch_core6parser4exprNtB6_6Parser7primarys4_0B8_
FNDA:12,_RNCNvMNtNtCsjTRrhfWa0WU_13eldritch_core6parser4exprNtB6_6Parser7primarys5_0B8_
FNDA:8,_RNCNvMNtNtCsjTRrhfWa0WU_13eldritch_core6parser4exprNtB6_6Parser7primarys6_0B8_
FNDA:8,_RNCNvMNtNtCsjTRrhfWa0WU_13eldritch_core6parser4exprNtB6_6Parser7primarys7_0B8_
FNDA:37,_RNCNvMNtNtCsjTRrhfWa0WU_13eldritch_core6parser4exprNtB6_6Parser7primarys8_0B8_
FNDA:68,_RNCNvMNtNtCsjTRrhfWa0WU_13eldritch_core6parser4exprNtB6_6Parser7primarys9_0B8_
FNDA:20,_RNCNvMNtNtCsjTRrhfWa0WU_13eldritch_core6parser4exprNtB6_6Parser7primarys_0B8_
FNDA:6,_RNCNvMNtNtCsjTRrhfWa0WU_13eldritch_core6parser4exprNtB6_6Parser7primarysa_0B8_
FNDA:5,_RNCNvMNtNtCsjTRrhfWa0WU_13eldritch_core6parser4exprNtB6_6Parser7primarysb_0B8_
FNDA:5,_RNCNvMNtNtCsjTRrhfWa0WU_13eldritch_core6parser4exprNtB6_6Parser7primarysc_0B8_
FNDA:133,_RNCNvMNtNtCsjTRrhfWa0WU_13eldritch_core6parser4exprNtB6_6Parser7primarysd_0B8_
FNDA:0,_RNCNvMNtNtCs3OupGlkSanV_13eldritch_core6parser4exprNtB6_6Parser10expression0B8_
FNDA:0,_RNCNvMNtNtCs3OupGlkSanV_13eldritch_core6parser4exprNtB6_6Parser11finish_call0B8_
FNDA:0,_RNCNvMNtNtCs3OupGlkSanV_13eldritch_core6parser4exprNtB6_6Parser17lambda_expression0B8_
FNDA:0,_RNCNvMNtNtCs3OupGlkSanV_13eldritch_core6parser4exprNtB6_6Parser21parse_fstring_content0B8_
FNDA:0,_RNCNvMNtNtCs3OupGlkSanV_13eldritch_core6parser4exprNtB6_6Parser21parse_function_params0B8_
FNDA:0,_RNCNvMNtNtCs3OupGlkSanV_13eldritch_core6parser4exprNtB6_6Parser21parse_function_paramss0_0B8_
FNDA:0,_RNCNvMNtNtCs3OupGlkSanV_13eldritch_core6parser4exprNtB6_6Parser21parse_function_paramss1_0B8_
FNDA:0,_RNCNvMNtNtCs3OupGlkSanV_13eldritch_core6parser4exprNtB6_6Parser21parse_function_paramss2_0B8_
FNDA:0,_RNCNvMNtNtCs3OupGlkSanV_13eldritch_core6parser4exprNtB6_6Parser21parse_function_paramss_0B8_
FNDA:0,_RNCNvMNtNtCs3OupGlkSanV_13eldritch_core6parser4exprNtB6_6Parser4call0B8_
FNDA:0,_RNCNvMNtNtCs3OupGlkSanV_13eldritch_core6parser4exprNtB6_6Parser7primary0B8_
FNDA:0,_RNCNvMNtNtCs3OupGlkSanV_13eldritch_core6parser4exprNtB6_6Parser7primarys0_0B8_
FNDA:0,_RNCNvMNtNtCs3OupGlkSanV_13eldritch_core6parser4exprNtB6_6Parser7primarys1_0B8_
FNDA:0,_RNCNvMNtNtCs3OupGlkSanV_13eldritch_core6parser4exprNtB6_6Parser7primarys2_0B8_
FNDA:0,_RNCNvMNtNtCs3OupGlkSanV_13eldritch_core6parser4exprNtB6_6Parser7primarys3_0B8_
FNDA:0,_RNCNvMNtNtCs3OupGlkSanV_13eldritch_core6parser4exprNtB6_6Parser7primarys4_0B8_
FNDA:0,_RNCNvMNtNtCs3OupGlkSanV_13eldritch_core6parser4exprNtB6_6Parser7primarys5_0B8_
FNDA:0,_RNCNvMNtNtCs3OupGlkSanV_13eldritch_core6parser4exprNtB6_6Parser7primarys6_0B8_
FNDA:0,_RNCNvMNtNtCs3OupGlkSanV_13eldritch_core6parser4exprNtB6_6Parser7primarys7_0B8_
FNDA:0,_RNCNvMNtNtCs3OupGlkSanV_13eldritch_core6parser4exprNtB6_6Parser7primarys8_0B8_
FNDA:0,_RNCNvMNtNtCs3OupGlkSanV_13eldritch_core6parser4exprNtB6_6Parser7primarys9_0B8_
FNDA:0,_RNCNvMNtNtCs3OupGlkSanV_13eldritch_core6parser4exprNtB6_6Parser7primarys_0B8_
FNDA:0,_RNCNvMNtNtCs3OupGlkSanV_13eldritch_core6parser4exprNtB6_6Parser7primarysa_0B8_
FNDA:0,_RNCNvMNtNtCs3OupGlkSanV_13eldritch_core6parser4exprNtB6_6Parser7primarysb_0B8_
FNDA:0,_RNCNvMNtNtCs3OupGlkSanV_13eldritch_core6parser4exprNtB6_6Parser7primarysc_0B8_
FNDA:0,_RNCNvMNtNtCs3OupGlkSanV_13eldritch_core6parser4exprNtB6_6Parser7primarysd_0B8_
FNDA:0,_RNvMNtNtCs3OupGlkSanV_13eldritch_core6parser4exprNtB4_6Parser10bitwise_or
FNDA:0,_RNvMNtNtCs3OupGlkSanV_13eldritch_core6parser4exprNtB4_6Parser10comparison
FNDA:0,_RNvMNtNtCs3OupGlkSanV_13eldritch_core6parser4exprNtB4_6Parser10expression
FNDA:0,_RNvMNtNtCs3OupGlkSanV_13eldritch_core6parser4exprNtB4_6Parser10unary_expr
FNDA:0,_RNvMNtNtCs3OupGlkSanV_13eldritch_core6parser4exprNtB4_6Parser11bitwise_and
FNDA:0,_RNvMNtNtCs3OupGlkSanV_13eldritch_core6parser4exprNtB4_6Parser11bitwise_xor
FNDA:0,_RNvMNtNtCs3OupGlkSanV_13eldritch_core6parser4exprNtB4_6Parser11finish_call
FNDA:0,_RNvMNtNtCs3OupGlkSanV_13eldritch_core6parser4exprNtB4_6Parser17lambda_expression
FNDA:0,_RNvMNtNtCs3OupGlkSanV_13eldritch_core6parser4exprNtB4_6Parser21parse_fstring_content
FNDA:0,_RNvMNtNtCs3OupGlkSanV_13eldritch_core6parser4exprNtB4_6Parser21parse_function_params
FNDA:0,_RNvMNtNtCs3OupGlkSanV_13eldritch_core6parser4exprNtB4_6Parser4call
FNDA:0,_RNvMNtNtCs3OupGlkSanV_13eldritch_core6parser4exprNtB4_6Parser4term
FNDA:0,_RNvMNtNtCs3OupGlkSanV_13eldritch_core6parser4exprNtB4_6Parser5shift
FNDA:0,_RNvMNtNtCs3OupGlkSanV_13eldritch_core6parser4exprNtB4_6Parser6factor
FNDA:0,_RNvMNtNtCs3OupGlkSanV_13eldritch_core6parser4exprNtB4_6Parser7primary
FNDA:0,_RNvMNtNtCs3OupGlkSanV_13eldritch_core6parser4exprNtB4_6Parser8equality
FNDA:0,_RNvMNtNtCs3OupGlkSanV_13eldritch_core6parser4exprNtB4_6Parser8logic_or
FNDA:0,_RNvMNtNtCs3OupGlkSanV_13eldritch_core6parser4exprNtB4_6Parser9logic_and
FNDA:0,_RNvMNtNtCs3OupGlkSanV_13eldritch_core6parser4exprNtB4_6Parser9logic_not
FNDA:0,_RNvMNtNtCs3OupGlkSanV_13eldritch_core6parser4exprNtB4_6Parser9make_expr
FNF:46
FNH:45
DA:14,10985
DA:15,10985
DA:16,10985
DA:17,10985
DA:19,6990
DA:21,6990
DA:22,11
DA:23,6979
DA:25,6979
DA:27,6973
DA:28,3
DA:29,3
DA:30,3
DA:31,3
DA:32,3
DA:33,3
DA:34,3
DA:35,3
DA:36,3
DA:37,3
DA:38,3
DA:39,3
DA:40,3
DA:41,3
DA:42,6970
DA:44,6970
DA:45,6990
DA:47,11
DA:48,11
DA:51,11
DA:52,10
DA:53,10
DA:54,10
DA:55,0
DA:56,10
DA:57,10
DA:58,10
DA:59,10
DA:60,10
DA:61,10
DA:62,10
DA:63,10
DA:64,10
DA:65,10
DA:66,11
DA:69,66
DA:70,66
DA:71,66
DA:72,66
DA:73,66
DA:74,66
DA:75,66
DA:77,84
DA:78,8
DA:79,8
DA:80,8
DA:81,5
DA:82,3
DA:83,3
DA:85,0
DA:89,3
DA:90,0
DA:92,3
DA:95,3
DA:96,76
DA:97,3
DA:98,3
DA:99,3
DA:100,0
DA:101,3
DA:102,3
DA:104,0
DA:108,3
DA:109,0
DA:111,3
DA:114,3
DA:116,69
DA:117,73
DA:118,73
DA:119,73
DA:120,4
DA:121,69
DA:122,69
DA:124,0
DA:129,69
DA:130,2
DA:132,67
DA:135,69
DA:136,8
DA:137,8
DA:140,61
DA:141,61
DA:142,61
DA:143,49
DA:144,49
DA:147,61
DA:148,2
DA:149,59
DA:151,59
DA:155,73
DA:156,30
DA:157,43
DA:159,43
DA:160,0
DA:161,43
DA:163,25
DA:164,55
DA:165,66
DA:167,7009
DA:168,7009
DA:169,7015
DA:170,12
DA:171,12
DA:172,12
DA:173,12
DA:174,12
DA:175,12
DA:176,12
DA:177,12
DA:180,7003
DA:181,7009
DA:183,7021
DA:184,7021
DA:185,7022
DA:186,7
DA:187,7
DA:188,7
DA:189,7
DA:190,7
DA:191,7
DA:192,7
DA:193,7
DA:196,7015
DA:197,7021
DA:199,7057
DA:200,7057
DA:201,29
DA:202,29
DA:203,29
DA:204,29
DA:205,29
DA:206,29
DA:207,29
DA:208,29
DA:209,29
DA:210,7028
DA:211,7028
DA:212,7057
DA:214,7028
DA:215,7028
DA:216,7237
DA:217,215
DA:218,215
DA:219,215
DA:220,215
DA:221,215
DA:222,215
DA:223,215
DA:224,215
DA:227,7022
DA:228,7028
DA:230,7243
DA:231,7243
DA:234,7355
DA:235,7355
DA:236,7355
DA:237,7355
DA:238,7355
DA:239,7355
DA:240,7355
DA:241,106
DA:242,7249
DA:246,12
DA:247,12
DA:248,12
DA:250,12
DA:251,12
DA:252,12
DA:254,0
DA:257,7237
DA:260,118
DA:261,118
DA:262,118
DA:263,118
DA:264,118
DA:265,118
DA:266,118
DA:269,7237
DA:270,7243
DA:272,7361
DA:273,7361
DA:274,7359
DA:275,4
DA:276,4
DA:277,4
DA:278,4
DA:279,4
DA:280,4
DA:281,4
DA:282,4
DA:285,7355
DA:286,7361
DA:288,7365
DA:289,7365
DA:290,7362
DA:291,3
DA:292,3
DA:293,3
DA:294,3
DA:295,3
DA:296,3
DA:297,3
DA:298,3
DA:301,7359
DA:302,7365
DA:304,7368
DA:305,7368
DA:306,7365
DA:307,3
DA:308,3
DA:309,3
DA:310,3
DA:311,3
DA:312,3
DA:313,3
DA:314,3
DA:317,7362
DA:318,7368
DA:320,7371
DA:321,7371
DA:322,7369
DA:323,4
DA:324,4
DA:325,4
DA:326,4
DA:327,4
DA:328,4
DA:329,4
DA:330,4
DA:333,7365
DA:334,7371
DA:336,7375
DA:337,7375
DA:338,7498
DA:339,129
DA:340,129
DA:341,127
DA:342,127
DA:343,127
DA:344,127
DA:345,127
DA:346,127
DA:349,7369
DA:350,7375
DA:352,7504
DA:353,7504
DA:354,7615
DA:355,7615
DA:356,7615
DA:357,7615
DA:358,7615
DA:359,7615
DA:360,117
DA:361,117
DA:362,117
DA:363,117
DA:364,117
DA:365,117
DA:366,117
DA:367,117
DA:370,7498
DA:371,7504
DA:373,7718
DA:374,7718
DA:375,97
DA:376,97
DA:377,97
DA:378,97
DA:379,97
DA:380,97
DA:381,97
DA:382,97
DA:383,97
DA:384,7621
DA:385,7621
DA:386,7718
DA:388,7621
DA:389,7621
DA:392,10246
DA:393,1907
DA:394,1907
DA:395,8339
DA:396,184
DA:397,184
DA:398,184
DA:399,184
DA:400,184
DA:402,184
DA:403,35
DA:404,35
DA:405,6
DA:406,29
DA:407,35
DA:408,25
DA:409,10
DA:411,149
DA:414,149
DA:415,1
DA:418,1
DA:419,0
DA:420,1
DA:421,1
DA:422,1
DA:423,1
DA:424,0
DA:427,1
DA:428,1
DA:429,1
DA:430,1
DA:431,1
DA:432,1
DA:433,1
DA:435,148
DA:436,148
DA:437,34
DA:438,34
DA:439,18
DA:440,16
DA:441,34
DA:442,5
DA:444,5
DA:445,29
DA:446,114
DA:451,184
DA:452,184
DA:453,184
DA:454,184
DA:455,0
DA:458,184
DA:459,69
DA:460,69
DA:461,69
DA:462,69
DA:463,69
DA:464,115
DA:465,115
DA:466,115
DA:467,115
DA:468,115
DA:469,115
DA:470,115
DA:471,8155
DA:472,540
DA:474,540
DA:475,540
DA:476,538
DA:477,538
DA:478,538
DA:480,0
DA:482,538
DA:486,2
DA:487,2
DA:490,540
DA:492,7615
DA:495,7615
DA:496,7621
DA:498,1907
DA:499,1907
DA:500,1907
DA:501,1907
DA:503,2351
DA:504,777
DA:506,1574
DA:509,2351
DA:510,0
DA:511,0
DA:512,2351
DA:513,0
DA:514,0
DA:515,2351
DA:517,12
DA:518,12
DA:519,12
DA:521,0
DA:523,12
DA:524,12
DA:525,12
DA:527,2339
DA:530,2351
DA:531,1597
DA:532,754
DA:534,754
DA:535,1
DA:536,753
DA:538,309
DA:539,1907
DA:540,1907
DA:541,1907
DA:542,1907
DA:543,0
DA:545,1907
DA:546,1907
DA:548,7621
DA:549,7621
DA:550,7621
DA:552,7621
DA:553,50
DA:554,7571
DA:555,7571
DA:556,64
DA:557,7507
DA:558,7507
DA:559,23
DA:560,7484
DA:562,7484
DA:563,2239
DA:564,2239
DA:565,5245
DA:567,5245
DA:568,130
DA:569,130
DA:570,5115
DA:572,5115
DA:573,1103
DA:574,1103
DA:575,4012
DA:577,4012
DA:578,32
DA:579,32
DA:580,3980
DA:582,3980
DA:583,12
DA:584,12
DA:585,3968
DA:587,3968
DA:588,3098
DA:589,3098
DA:590,870
DA:592,870
DA:593,138
DA:594,11
DA:595,11
DA:596,127
DA:597,127
DA:598,127
DA:599,107
DA:600,107
DA:602,134
DA:603,1
DA:604,133
DA:605,133
DA:606,133
DA:607,92
DA:608,41
DA:610,14
DA:611,107
DA:612,107
DA:613,107
DA:614,107
DA:615,0
DA:617,107
DA:618,20
DA:619,20
DA:620,20
DA:621,20
DA:622,20
DA:623,0
DA:625,20
DA:626,732
DA:628,732
DA:629,482
DA:630,80
DA:631,80
DA:632,402
DA:637,402
DA:640,402
DA:641,402
DA:642,15
DA:644,18
DA:645,18
DA:646,18
DA:647,0
DA:648,18
DA:649,18
DA:650,18
DA:651,0
DA:654,18
DA:655,15
DA:656,3
DA:659,15
DA:660,14
DA:661,14
DA:662,14
DA:663,3
DA:664,11
DA:665,14
DA:666,14
DA:668,14
DA:669,14
DA:670,14
DA:671,14
DA:672,14
DA:673,14
DA:674,14
DA:675,14
DA:676,14
DA:677,14
DA:678,387
DA:681,387
DA:682,387
DA:684,576
DA:685,3
DA:686,573
DA:687,573
DA:688,572
DA:689,1
DA:690,1
DA:692,2
DA:693,1
DA:694,1
DA:695,1
DA:696,1
DA:697,1
DA:698,1
DA:699,1
DA:700,1
DA:701,1
DA:706,573
DA:707,313
DA:708,260
DA:710,71
DA:711,387
DA:712,387
DA:713,387
DA:714,387
DA:715,0
DA:717,387
DA:720,0
DA:721,0
DA:723,0
DA:724,0
DA:725,0
DA:726,0
DA:727,0
DA:728,0
DA:729,0
DA:730,0
DA:732,0
DA:734,0
DA:735,0
DA:736,0
DA:737,0
DA:738,0
DA:739,0
DA:740,0
DA:741,0
DA:742,0
DA:743,0
DA:744,0
DA:745,0
DA:746,0
DA:747,0
DA:748,0
DA:749,0
DA:750,0
DA:754,0
DA:755,0
DA:756,0
DA:758,0
DA:759,0
DA:760,0
DA:761,0
DA:762,0
DA:763,0
DA:765,0
DA:767,250
DA:769,250
DA:770,245
DA:771,31
DA:773,31
DA:774,214
DA:776,214
DA:778,214
DA:780,76
DA:782,76
DA:783,8
DA:785,12
DA:786,12
DA:787,12
DA:788,0
DA:789,12
DA:790,12
DA:791,12
DA:792,0
DA:795,12
DA:796,8
DA:797,4
DA:800,8
DA:802,8
DA:803,8
DA:804,8
DA:805,2
DA:806,6
DA:807,8
DA:808,8
DA:810,8
DA:811,8
DA:812,8
DA:813,8
DA:814,8
DA:815,8
DA:816,8
DA:817,8
DA:818,8
DA:819,8
DA:820,8
DA:821,68
DA:823,68
DA:824,68
DA:826,37
DA:827,0
DA:828,37
DA:829,37
DA:830,37
DA:831,37
DA:832,37
DA:833,37
DA:834,27
DA:835,10
DA:837,41
DA:838,68
DA:839,68
DA:840,68
DA:841,68
DA:842,0
DA:844,68
DA:847,138
DA:848,5
DA:850,6
DA:851,6
DA:852,6
DA:853,0
DA:854,6
DA:855,6
DA:856,6
DA:857,0
DA:860,6
DA:861,5
DA:862,1
DA:865,5
DA:866,5
DA:867,5
DA:868,5
DA:869,2
DA:870,3
DA:871,5
DA:872,5
DA:874,5
DA:875,5
DA:876,5
DA:877,5
DA:878,5
DA:879,5
DA:880,5
DA:881,5
DA:882,5
DA:883,5
DA:884,133
DA:886,133
DA:887,133
DA:889,97
DA:890,0
DA:891,97
DA:892,97
DA:893,97
DA:894,70
DA:895,27
DA:897,63
DA:898,133
DA:899,133
DA:900,133
DA:901,133
DA:902,0
DA:904,133
DA:906,5
DA:908,5
DA:909,7621
DA:911,12
DA:912,12
DA:913,12
DA:914,12
DA:915,12
DA:916,12
DA:918,12
DA:919,12
DA:921,0
DA:923,12
DA:924,12
DA:925,12
DA:926,12
DA:928,12
DA:929,12
DA:931,52
DA:932,40
DA:933,21
DA:934,21
DA:935,21
DA:936,19
DA:937,19
DA:938,19
DA:939,19
DA:940,19
DA:941,0
DA:943,0
DA:944,0
DA:945,0
DA:946,0
DA:950,12
DA:951,12
BRF:0
BRH:0
LF:729
LH:653
end_of_record
SF:/app/implants/lib/eldritch/eldritch-core/src/parser/mod.rs
FN:101,_RNvMNtCsjTRrhfWa0WU_13eldritch_core6parserNtB2_6Parser11match_token
FN:78,_RNvMNtCsjTRrhfWa0WU_13eldritch_core6parserNtB2_6Parser11synchronize
FN:146,_RNvMNtCsjTRrhfWa0WU_13eldritch_core6parserNtB2_6Parser26validate_assignment_target
FN:16,_RNvMNtCsjTRrhfWa0WU_13eldritch_core6parserNtB2_6Parser3new
FN:24,_RNvMNtCsjTRrhfWa0WU_13eldritch_core6parserNtB2_6Parser4peek
FN:35,_RNvMNtCsjTRrhfWa0WU_13eldritch_core6parserNtB2_6Parser5check
FN:118,_RNvMNtCsjTRrhfWa0WU_13eldritch_core6parserNtB2_6Parser5parse
FN:42,_RNvMNtCsjTRrhfWa0WU_13eldritch_core6parserNtB2_6Parser7advance
FN:111,_RNvMNtCsjTRrhfWa0WU_13eldritch_core6parserNtB2_6Parser9is_at_end
FN:27,_RNvMNtCsjTRrhfWa0WU_13eldritch_core6parserNtB2_6Parser9peek_next
FN:49,_RINvMNtCsjTRrhfWa0WU_13eldritch_core6parserNtB3_6Parser5errorINtNtCs456UZznmu7y_5alloc3vec3VecNtNtB5_3ast5ParamEEB5_
FN:49,_RINvMNtCsjTRrhfWa0WU_13eldritch_core6parserNtB3_6Parser5errorNtNtB5_3ast4ExprEB5_
FN:49,_RINvMNtCsjTRrhfWa0WU_13eldritch_core6parserNtB3_6Parser5errorNtNtB5_3ast4StmtEB5_
FN:49,_RINvMNtCsjTRrhfWa0WU_13eldritch_core6parserNtB3_6Parser5errorRNtNtB5_5token5TokenEB5_
FN:67,_RINvMNtCsjTRrhfWa0WU_13eldritch_core6parserNtB3_6Parser7consumeNCNvMNtB3_4exprBF_10expression0EB5_
FN:67,_RINvMNtCsjTRrhfWa0WU_13eldritch_core6parserNtB3_6Parser7consumeNCNvMNtB3_4exprBF_11finish_call0EB5_
FN:67,_RINvMNtCsjTRrhfWa0WU_13eldritch_core6parserNtB3_6Parser7consumeNCNvMNtB3_4exprBF_17lambda_expression0EB5_
FN:67,_RINvMNtCsjTRrhfWa0WU_13eldritch_core6parserNtB3_6Parser7consumeNCNvMNtB3_4exprBF_21parse_fstring_content0EB5_
FN:67,_RINvMNtCsjTRrhfWa0WU_13eldritch_core6parserNtB3_6Parser7consumeNCNvMNtB3_4exprBF_21parse_function_params0EB5_
FN:67,_RINvMNtCsjTRrhfWa0WU_13eldritch_core6parserNtB3_6Parser7consumeNCNvMNtB3_4exprBF_21parse_function_paramss0_0EB5_
FN:67,_RINvMNtCsjTRrhfWa0WU_13eldritch_core6parserNtB3_6Parser7consumeNCNvMNtB3_4exprBF_21parse_function_paramss_0EB5_
FN:67,_RINvMNtCsjTRrhfWa0WU_13eldritch_core6parserNtB3_6Parser7consumeNCNvMNtB3_4exprBF_4call0EB5_
FN:67,_RINvMNtCsjTRrhfWa0WU_13eldritch_core6parserNtB3_6Parser7consumeNCNvMNtB3_4exprBF_7primary0EB5_
FN:67,_RINvMNtCsjTRrhfWa0WU_13eldritch_core6parserNtB3_6Parser7consumeNCNvMNtB3_4exprBF_7primarys0_0EB5_
FN:67,_RINvMNtCsjTRrhfWa0WU_13eldritch_core6parserNtB3_6Parser7consumeNCNvMNtB3_4exprBF_7primarys1_0EB5_
FN:67,_RINvMNtCsjTRrhfWa0WU_13eldritch_core6parserNtB3_6Parser7consumeNCNvMNtB3_4exprBF_7primarys2_0EB5_
FN:67,_RINvMNtCsjTRrhfWa0WU_13eldritch_core6parserNtB3_6Parser7consumeNCNvMNtB3_4exprBF_7primarys3_0EB5_
FN:67,_RINvMNtCsjTRrhfWa0WU_13eldritch_core6parserNtB3_6Parser7consumeNCNvMNtB3_4exprBF_7primarys4_0EB5_
FN:67,_RINvMNtCsjTRrhfWa0WU_13eldritch_core6parserNtB3_6Parser7consumeNCNvMNtB3_4exprBF_7primarys5_0EB5_
FN:67,_RINvMNtCsjTRrhfWa0WU_13eldritch_core6parserNtB3_6Parser7consumeNCNvMNtB3_4exprBF_7primarys6_0EB5_
FN:67,_RINvMNtCsjTRrhfWa0WU_13eldritch_core6parserNtB3_6Parser7consumeNCNvMNtB3_4exprBF_7primarys7_0EB5_
FN:67,_RINvMNtCsjTRrhfWa0WU_13eldritch_core6parserNtB3_6Parser7consumeNCNvMNtB3_4exprBF_7primarys8_0EB5_
FN:67,_RINvMNtCsjTRrhfWa0WU_13eldritch_core6parserNtB3_6Parser7consumeNCNvMNtB3_4exprBF_7primarys9_0EB5_
FN:67,_RINvMNtCsjTRrhfWa0WU_13eldritch_core6parserNtB3_6Parser7consumeNCNvMNtB3_4exprBF_7primarys_0EB5_
FN:67,_RINvMNtCsjTRrhfWa0WU_13eldritch_core6parserNtB3_6Parser7consumeNCNvMNtB3_4exprBF_7primarysa_0EB5_
FN:67,_RINvMNtCsjTRrhfWa0WU_13eldritch_core6parserNtB3_6Parser7consumeNCNvMNtB3_4exprBF_7primarysb_0EB5_
FN:67,_RINvMNtCsjTRrhfWa0WU_13eldritch_core6parserNtB3_6Parser7consumeNCNvMNtB3_4exprBF_7primarysc_0EB5_
FN:67,_RINvMNtCsjTRrhfWa0WU_13eldritch_core6parserNtB3_6Parser7consumeNCNvMNtB3_4exprBF_7primarysd_0EB5_
FN:67,_RINvMNtCsjTRrhfWa0WU_13eldritch_core6parserNtB3_6Parser7consumeNCNvMNtB3_4stmtBF_12function_def0EB5_
FN:67,_RINvMNtCsjTRrhfWa0WU_13eldritch_core6parserNtB3_6Parser7consumeNCNvMNtB3_4stmtBF_12function_defs0_0EB5_
FN:67,_RINvMNtCsjTRrhfWa0WU_13eldritch_core6parserNtB3_6Parser7consumeNCNvMNtB3_4stmtBF_12function_defs1_0EB5_
FN:67,_RINvMNtCsjTRrhfWa0WU_13eldritch_core6parserNtB3_6Parser7consumeNCNvMNtB3_4stmtBF_12function_defs_0EB5_
FN:67,_RINvMNtCsjTRrhfWa0WU_13eldritch_core6parserNtB3_6Parser7consumeNCNvMNtB3_4stmtBF_12if_statement0EB5_
FN:67,_RINvMNtCsjTRrhfWa0WU_13eldritch_core6parserNtB3_6Parser7consumeNCNvMNtB3_4stmtBF_12if_statements_0EB5_
FN:67,_RINvMNtCsjTRrhfWa0WU_13eldritch_core6parserNtB3_6Parser7consumeNCNvMNtB3_4stmtBF_13for_statement0EB5_
FN:67,_RINvMNtCsjTRrhfWa0WU_13eldritch_core6parserNtB3_6Parser7consumeNCNvMNtB3_4stmtBF_13for_statements0_0EB5_
FN:67,_RINvMNtCsjTRrhfWa0WU_13eldritch_core6parserNtB3_6Parser7consumeNCNvMNtB3_4stmtBF_13for_statements_0EB5_
FN:67,_RINvMNtCsjTRrhfWa0WU_13eldritch_core6parserNtB3_6Parser7consumeNCNvMNtB3_4stmtBF_16return_statement0EB5_
FN:67,_RINvMNtCsjTRrhfWa0WU_13eldritch_core6parserNtB3_6Parser7consumeNCNvMNtB3_4stmtBF_24parse_block_or_statement0EB5_
FN:67,_RINvMNtCsjTRrhfWa0WU_13eldritch_core6parserNtB3_6Parser7consumeNCNvMNtB3_4stmtBF_24parse_block_or_statements_0EB5_
FN:67,_RINvMNtCsjTRrhfWa0WU_13eldritch_core6parserNtB3_6Parser7consumeNCNvMNtB3_4stmtBF_34assignment_or_expression_statement0EB5_
FN:67,_RINvMNtCsjTRrhfWa0WU_13eldritch_core6parserNtB3_6Parser7consumeNCNvMNtB3_4stmtBF_34assignment_or_expression_statements0_0EB5_
FN:67,_RINvMNtCsjTRrhfWa0WU_13eldritch_core6parserNtB3_6Parser7consumeNCNvMNtB3_4stmtBF_34assignment_or_expression_statements_0EB5_
FN:67,_RINvMNtCsjTRrhfWa0WU_13eldritch_core6parserNtB3_6Parser7consumeNCNvMNtB3_4stmtBF_9statement0EB5_
FN:67,_RINvMNtCsjTRrhfWa0WU_13eldritch_core6parserNtB3_6Parser7consumeNCNvMNtB3_4stmtBF_9statements0_0EB5_
FN:67,_RINvMNtCsjTRrhfWa0WU_13eldritch_core6parserNtB3_6Parser7consumeNCNvMNtB3_4stmtBF_9statements_0EB5_
FN:49,_RINvMNtCs3OupGlkSanV_13eldritch_core6parserNtB3_6Parser5errorpEB5_
FN:67,_RINvMNtCs3OupGlkSanV_13eldritch_core6parserNtB3_6Parser7consumepEB5_
FN:101,_RNvMNtCs3OupGlkSanV_13eldritch_core6parserNtB2_6Parser11match_token
FN:78,_RNvMNtCs3OupGlkSanV_13eldritch_core6parserNtB2_6Parser11synchronize
FN:146,_RNvMNtCs3OupGlkSanV_13eldritch_core6parserNtB2_6Parser26validate_assignment_target
FN:16,_RNvMNtCs3OupGlkSanV_13eldritch_core6parserNtB2_6Parser3new
FN:24,_RNvMNtCs3OupGlkSanV_13eldritch_core6parserNtB2_6Parser4peek
FN:35,_RNvMNtCs3OupGlkSanV_13eldritch_core6parserNtB2_6Parser5check
FN:118,_RNvMNtCs3OupGlkSanV_13eldritch_core6parserNtB2_6Parser5parse
FN:42,_RNvMNtCs3OupGlkSanV_13eldritch_core6parserNtB2_6Parser7advance
FN:111,_RNvMNtCs3OupGlkSanV_13eldritch_core6parserNtB2_6Parser9is_at_end
FN:27,_RNvMNtCs3OupGlkSanV_13eldritch_core6parserNtB2_6Parser9peek_next
FNDA:187787,_RNvMNtCsjTRrhfWa0WU_13eldritch_core6parserNtB2_6Parser11match_token
FNDA:19,_RNvMNtCsjTRrhfWa0WU_13eldritch_core6parserNtB2_6Parser11synchronize
FNDA:534,_RNvMNtCsjTRrhfWa0WU_13eldritch_core6parserNtB2_6Parser26validate_assignment_target
FNDA:855,_RNvMNtCsjTRrhfWa0WU_13eldritch_core6parserNtB2_6Parser3new
FNDA:312324,_RNvMNtCsjTRrhfWa0WU_13eldritch_core6parserNtB2_6Parser4peek
FNDA:12723,_RNvMNtCsjTRrhfWa0WU_13eldritch_core6parserNtB2_6Parser5check
FNDA:843,_RNvMNtCsjTRrhfWa0WU_13eldritch_core6parserNtB2_6Parser5parse
FNDA:20663,_RNvMNtCsjTRrhfWa0WU_13eldritch_core6parserNtB2_6Parser7advance
FNDA:40651,_RNvMNtCsjTRrhfWa0WU_13eldritch_core6parserNtB2_6Parser9is_at_end
FNDA:789,_RNvMNtCsjTRrhfWa0WU_13eldritch_core6parserNtB2_6Parser9peek_next
FNDA:2,_RINvMNtCsjTRrhfWa0WU_13eldritch_core6parserNtB3_6Parser5errorINtNtCs456UZznmu7y_5alloc3vec3VecNtNtB5_3ast5ParamEEB5_
FNDA:5,_RINvMNtCsjTRrhfWa0WU_13eldritch_core6parserNtB3_6Parser5errorNtNtB5_3ast4ExprEB5_
FNDA:1,_RINvMNtCsjTRrhfWa0WU_13eldritch_core6parserNtB3_6Parser5errorNtNtB5_3ast4StmtEB5_
FNDA:11,_RINvMNtCsjTRrhfWa0WU_13eldritch_core6parserNtB3_6Parser5errorRNtNtB5_5token5TokenEB5_
FNDA:3,_RINvMNtCsjTRrhfWa0WU_13eldritch_core6parserNtB3_6Parser7consumeNCNvMNtB3_4exprBF_10expression0EB5_
FNDA:1907,_RINvMNtCsjTRrhfWa0WU_13eldritch_core6parserNtB3_6Parser7consumeNCNvMNtB3_4exprBF_11finish_call0EB5_
FNDA:10,_RINvMNtCsjTRrhfWa0WU_13eldritch_core6parserNtB3_6Parser7consumeNCNvMNtB3_4exprBF_17lambda_expression0EB5_
FNDA:19,_RINvMNtCsjTRrhfWa0WU_13eldritch_core6parserNtB3_6Parser7consumeNCNvMNtB3_4exprBF_21parse_fstring_content0EB5_
FNDA:8,_RINvMNtCsjTRrhfWa0WU_13eldritch_core6parserNtB3_6Parser7consumeNCNvMNtB3_4exprBF_21parse_function_params0EB5_
FNDA:73,_RINvMNtCsjTRrhfWa0WU_13eldritch_core6parserNtB3_6Parser7consumeNCNvMNtB3_4exprBF_21parse_function_paramss0_0EB5_
FNDA:3,_RINvMNtCsjTRrhfWa0WU_13eldritch_core6parserNtB3_6Parser7consumeNCNvMNtB3_4exprBF_21parse_function_paramss_0EB5_
FNDA:184,_RINvMNtCsjTRrhfWa0WU_13eldritch_core6parserNtB3_6Parser7consumeNCNvMNtB3_4exprBF_4call0EB5_
FNDA:107,_RINvMNtCsjTRrhfWa0WU_13eldritch_core6parserNtB3_6Parser7consumeNCNvMNtB3_4exprBF_7primary0EB5_
FNDA:18,_RINvMNtCsjTRrhfWa0WU_13eldritch_core6parserNtB3_6Parser7consumeNCNvMNtB3_4exprBF_7primarys0_0EB5_
FNDA:15,_RINvMNtCsjTRrhfWa0WU_13eldritch_core6parserNtB3_6Parser7consumeNCNvMNtB3_4exprBF_7primarys1_0EB5_
FNDA:14,_RINvMNtCsjTRrhfWa0WU_13eldritch_core6parserNtB3_6Parser7consumeNCNvMNtB3_4exprBF_7primarys2_0EB5_
FNDA:387,_RINvMNtCsjTRrhfWa0WU_13eldritch_core6parserNtB3_6Parser7consumeNCNvMNtB3_4exprBF_7primarys3_0EB5_
FNDA:0,_RINvMNtCsjTRrhfWa0WU_13eldritch_core6parserNtB3_6Parser7consumeNCNvMNtB3_4exprBF_7primarys4_0EB5_
FNDA:12,_RINvMNtCsjTRrhfWa0WU_13eldritch_core6parserNtB3_6Parser7consumeNCNvMNtB3_4exprBF_7primarys5_0EB5_
FNDA:8,_RINvMNtCsjTRrhfWa0WU_13eldritch_core6parserNtB3_6Parser7consumeNCNvMNtB3_4exprBF_7primarys6_0EB5_
FNDA:8,_RINvMNtCsjTRrhfWa0WU_13eldritch_core6parserNtB3_6Parser7consumeNCNvMNtB3_4exprBF_7primarys7_0EB5_
FNDA:37,_RINvMNtCsjTRrhfWa0WU_13eldritch_core6parserNtB3_6Parser7consumeNCNvMNtB3_4exprBF_7primarys8_0EB5_
FNDA:68,_RINvMNtCsjTRrhfWa0WU_13eldritch_core6parserNtB3_6Parser7consumeNCNvMNtB3_4exprBF_7primarys9_0EB5_
FNDA:20,_RINvMNtCsjTRrhfWa0WU_13eldritch_core6parserNtB3_6Parser7consumeNCNvMNtB3_4exprBF_7primarys_0EB5_
FNDA:6,_RINvMNtCsjTRrhfWa0WU_13eldritch_core6parserNtB3_6Parser7consumeNCNvMNtB3_4exprBF_7primarysa_0EB5_
FNDA:5,_RINvMNtCsjTRrhfWa0WU_13eldritch_core6parserNtB3_6Parser7consumeNCNvMNtB3_4exprBF_7primarysb_0EB5_
FNDA:5,_RINvMNtCsjTRrhfWa0WU_13eldritch_core6parserNtB3_6Parser7consumeNCNvMNtB3_4exprBF_7primarysc_0EB5_
FNDA:133,_RINvMNtCsjTRrhfWa0WU_13eldritch_core6parserNtB3_6Parser7consumeNCNvMNtB3_4exprBF_7primarysd_0EB5_
FNDA:55,_RINvMNtCsjTRrhfWa0WU_13eldritch_core6parserNtB3_6Parser7consumeNCNvMNtB3_4stmtBF_12function_def0EB5_
FNDA:45,_RINvMNtCsjTRrhfWa0WU_13eldritch_core6parserNtB3_6Parser7consumeNCNvMNtB3_4stmtBF_12function_defs0_0EB5_
FNDA:45,_RINvMNtCsjTRrhfWa0WU_13eldritch_core6parserNtB3_6Parser7consumeNCNvMNtB3_4stmtBF_12function_defs1_0EB5_
FNDA:55,_RINvMNtCsjTRrhfWa0WU_13eldritch_core6parserNtB3_6Parser7consumeNCNvMNtB3_4stmtBF_12function_defs_0EB5_
FNDA:43,_RINvMNtCsjTRrhfWa0WU_13eldritch_core6parserNtB3_6Parser7consumeNCNvMNtB3_4stmtBF_12if_statement0EB5_
FNDA:7,_RINvMNtCsjTRrhfWa0WU_13eldritch_core6parserNtB3_6Parser7consumeNCNvMNtB3_4stmtBF_12if_statements_0EB5_
FNDA:26,_RINvMNtCsjTRrhfWa0WU_13eldritch_core6parserNtB3_6Parser7consumeNCNvMNtB3_4stmtBF_13for_statement0EB5_
FNDA:20,_RINvMNtCsjTRrhfWa0WU_13eldritch_core6parserNtB3_6Parser7consumeNCNvMNtB3_4stmtBF_13for_statements0_0EB5_
FNDA:20,_RINvMNtCsjTRrhfWa0WU_13eldritch_core6parserNtB3_6Parser7consumeNCNvMNtB3_4stmtBF_13for_statements_0EB5_
FNDA:34,_RINvMNtCsjTRrhfWa0WU_13eldritch_core6parserNtB3_6Parser7consumeNCNvMNtB3_4stmtBF_16return_statement0EB5_
FNDA:103,_RINvMNtCsjTRrhfWa0WU_13eldritch_core6parserNtB3_6Parser7consumeNCNvMNtB3_4stmtBF_24parse_block_or_statement0EB5_
FNDA:102,_RINvMNtCsjTRrhfWa0WU_13eldritch_core6parserNtB3_6Parser7consumeNCNvMNtB3_4stmtBF_24parse_block_or_statements_0EB5_
FNDA:514,_RINvMNtCsjTRrhfWa0WU_13eldritch_core6parserNtB3_6Parser7consumeNCNvMNtB3_4stmtBF_34assignment_or_expression_statement0EB5_
FNDA:1511,_RINvMNtCsjTRrhfWa0WU_13eldritch_core6parserNtB3_6Parser7consumeNCNvMNtB3_4stmtBF_34assignment_or_expression_statements0_0EB5_
FNDA:18,_RINvMNtCsjTRrhfWa0WU_13eldritch_core6parserNtB3_6Parser7consumeNCNvMNtB3_4stmtBF_34assignment_or_expression_statements_0EB5_
FNDA:1,_RINvMNtCsjTRrhfWa0WU_13eldritch_core6parserNtB3_6Parser7consumeNCNvMNtB3_4stmtBF_9statement0EB5_
FNDA:20,_RINvMNtCsjTRrhfWa0WU_13eldritch_core6parserNtB3_6Parser7consumeNCNvMNtB3_4stmtBF_9statements0_0EB5_
FNDA:1,_RINvMNtCsjTRrhfWa0WU_13eldritch_core6parserNtB3_6Parser7consumeNCNvMNtB3_4stmtBF_9statements_0EB5_
FNDA:0,_RINvMNtCs3OupGlkSanV_13eldritch_core6parserNtB3_6Parser5errorpEB5_
FNDA:0,_RINvMNtCs3OupGlkSanV_13eldritch_core6parserNtB3_6Parser7consumepEB5_
FNDA:0,_RNvMNtCs3OupGlkSanV_13eldritch_core6parserNtB2_6Parser11match_token
FNDA:0,_RNvMNtCs3OupGlkSanV_13eldritch_core6parserNtB2_6Parser11synchronize
FNDA:0,_RNvMNtCs3OupGlkSanV_13eldritch_core6parserNtB2_6Parser26validate_assignment_target
FNDA:0,_RNvMNtCs3OupGlkSanV_13eldritch_core6parserNtB2_6Parser3new
FNDA:0,_RNvMNtCs3OupGlkSanV_13eldritch_core6parserNtB2_6Parser4peek
FNDA:0,_RNvMNtCs3OupGlkSanV_13eldritch_core6parserNtB2_6Parser5check
FNDA:0,_RNvMNtCs3OupGlkSanV_13eldritch_core6parserNtB2_6Parser5parse
FNDA:0,_RNvMNtCs3OupGlkSanV_13eldritch_core6parserNtB2_6Parser7advance
FNDA:0,_RNvMNtCs3OupGlkSanV_13eldritch_core6parserNtB2_6Parser9is_at_end
FNDA:0,_RNvMNtCs3OupGlkSanV_13eldritch_core6parserNtB2_6Parser9peek_next
FNF:12
FNH:12
DA:16,855
DA:17,855
DA:18,855
DA:19,855
DA:20,855
DA:21,855
DA:22,855
DA:24,312324
DA:25,312324
DA:26,312324
DA:27,789
DA:28,789
DA:29,789
DA:31,0
DA:33,789
DA:35,12723
DA:36,12723
DA:37,0
DA:38,12723
DA:39,12723
DA:40,12723
DA:42,20663
DA:43,20663
DA:44,20663
DA:45,20663
DA:46,20663
DA:47,20663
DA:49,19
DA:50,19
DA:51,19
DA:54,0
DA:55,0
DA:57,0
DA:60,19
DA:61,19
DA:62,19
DA:63,19
DA:64,19
DA:65,19
DA:67,5670
DA:68,5670
DA:69,5670
DA:71,5670
DA:72,5659
DA:74,11
DA:76,5670
DA:78,19
DA:79,19
DA:81,71
DA:82,65
DA:83,3
DA:84,62
DA:86,62
DA:93,10
DA:94,52
DA:97,52
DA:99,19
DA:101,187787
DA:102,457456
DA:103,276917
DA:104,7248
DA:105,7248
DA:106,269669
DA:108,180539
DA:109,187787
DA:111,40651
DA:112,40651
DA:113,0
DA:114,40651
DA:115,40651
DA:116,40651
DA:118,843
DA:119,843
DA:120,2831
DA:121,2439
DA:122,447
DA:123,447
DA:124,1992
DA:125,4
DA:126,1988
DA:127,1988
DA:128,1969
DA:129,19
DA:130,19
DA:131,19
DA:134,19
DA:135,19
DA:136,19
DA:137,19
DA:138,19
DA:142,843
DA:143,843
DA:146,534
DA:147,534
DA:148,534
DA:149,534
DA:151,534
DA:152,523
DA:153,0
DA:154,3
DA:155,0
DA:156,6
DA:157,19
DA:158,13
DA:160,6
DA:162,1
DA:163,1
DA:164,1
DA:165,1
DA:166,1
DA:168,534
BRF:0
BRH:0
LF:111
LH:103
end_of_record
SF:/app/implants/lib/eldritch/eldritch-core/src/parser/stmt.rs
FN:16,_RNvMNtNtCsjTRrhfWa0WU_13eldritch_core6parser4stmtNtB4_6Parser11declaration
FN:24,_RNvMNtNtCsjTRrhfWa0WU_13eldritch_core6parser4stmtNtB4_6Parser12function_def
FN:181,_RNvMNtNtCsjTRrhfWa0WU_13eldritch_core6parser4stmtNtB4_6Parser12if_statement
FN:143,_RNvMNtNtCsjTRrhfWa0WU_13eldritch_core6parser4stmtNtB4_6Parser13for_statement
FN:217,_RNvMNtNtCsjTRrhfWa0WU_13eldritch_core6parser4stmtNtB4_6Parser16return_statement
FN:77,_RNvMNtNtCsjTRrhfWa0WU_13eldritch_core6parser4stmtNtB4_6Parser24parse_block_or_statement
FN:237,_RNvMNtNtCsjTRrhfWa0WU_13eldritch_core6parser4stmtNtB4_6Parser34assignment_or_expression_statement
FN:11,_RNvMNtNtCsjTRrhfWa0WU_13eldritch_core6parser4stmtNtB4_6Parser9make_stmt
FN:104,_RNvMNtNtCsjTRrhfWa0WU_13eldritch_core6parser4stmtNtB4_6Parser9statement
FN:30,_RNCNvMNtNtCsjTRrhfWa0WU_13eldritch_core6parser4stmtNtB6_6Parser12function_def0B8_
FN:48,_RNCNvMNtNtCsjTRrhfWa0WU_13eldritch_core6parser4stmtNtB6_6Parser12function_defs0_0B8_
FN:59,_RNCNvMNtNtCsjTRrhfWa0WU_13eldritch_core6parser4stmtNtB6_6Parser12function_defs1_0B8_
FN:41,_RNCNvMNtNtCsjTRrhfWa0WU_13eldritch_core6parser4stmtNtB6_6Parser12function_defs_0B8_
FN:184,_RNCNvMNtNtCsjTRrhfWa0WU_13eldritch_core6parser4stmtNtB6_6Parser12if_statement0B8_
FN:201,_RNCNvMNtNtCsjTRrhfWa0WU_13eldritch_core6parser4stmtNtB6_6Parser12if_statements_0B8_
FN:147,_RNCNvMNtNtCsjTRrhfWa0WU_13eldritch_core6parser4stmtNtB6_6Parser13for_statement0B8_
FN:169,_RNCNvMNtNtCsjTRrhfWa0WU_13eldritch_core6parser4stmtNtB6_6Parser13for_statements0_0B8_
FN:164,_RNCNvMNtNtCsjTRrhfWa0WU_13eldritch_core6parser4stmtNtB6_6Parser13for_statements_0B8_
FN:230,_RNCNvMNtNtCsjTRrhfWa0WU_13eldritch_core6parser4stmtNtB6_6Parser16return_statement0B8_
FN:80,_RNCNvMNtNtCsjTRrhfWa0WU_13eldritch_core6parser4stmtNtB6_6Parser24parse_block_or_statement0B8_
FN:94,_RNCNvMNtNtCsjTRrhfWa0WU_13eldritch_core6parser4stmtNtB6_6Parser24parse_block_or_statements_0B8_
FN:308,_RNCNvMNtNtCsjTRrhfWa0WU_13eldritch_core6parser4stmtNtB6_6Parser34assignment_or_expression_statement0B8_
FN:352,_RNCNvMNtNtCsjTRrhfWa0WU_13eldritch_core6parser4stmtNtB6_6Parser34assignment_or_expression_statements0_0B8_
FN:343,_RNCNvMNtNtCsjTRrhfWa0WU_13eldritch_core6parser4stmtNtB6_6Parser34assignment_or_expression_statements_0B8_
FN:115,_RNCNvMNtNtCsjTRrhfWa0WU_13eldritch_core6parser4stmtNtB6_6Parser9statement0B8_
FN:133,_RNCNvMNtNtCsjTRrhfWa0WU_13eldritch_core6parser4stmtNtB6_6Parser9statements0_0B8_
FN:123,_RNCNvMNtNtCsjTRrhfWa0WU_13eldritch_core6parser4stmtNtB6_6Parser9statements_0B8_
FN:30,_RNCNvMNtNtCs3OupGlkSanV_13eldritch_core6parser4stmtNtB6_6Parser12function_def0B8_
FN:48,_RNCNvMNtNtCs3OupGlkSanV_13eldritch_core6parser4stmtNtB6_6Parser12function_defs0_0B8_
FN:59,_RNCNvMNtNtCs3OupGlkSanV_13eldritch_core6parser4stmtNtB6_6Parser12function_defs1_0B8_
FN:41,_RNCNvMNtNtCs3OupGlkSanV_13eldritch_core6parser4stmtNtB6_6Parser12function_defs_0B8_
FN:184,_RNCNvMNtNtCs3OupGlkSanV_13eldritch_core6parser4stmtNtB6_6Parser12if_statement0B8_
FN:201,_RNCNvMNtNtCs3OupGlkSanV_13eldritch_core6parser4stmtNtB6_6Parser12if_statements_0B8_
FN:147,_RNCNvMNtNtCs3OupGlkSanV_13eldritch_core6parser4stmtNtB6_6Parser13for_statement0B8_
FN:169,_RNCNvMNtNtCs3OupGlkSanV_13eldritch_core6parser4stmtNtB6_6Parser13for_statements0_0B8_
FN:164,_RNCNvMNtNtCs3OupGlkSanV_13eldritch_core6parser4stmtNtB6_6Parser13for_statements_0B8_
FN:230,_RNCNvMNtNtCs3OupGlkSanV_13eldritch_core6parser4stmtNtB6_6Parser16return_statement0B8_
FN:80,_RNCNvMNtNtCs3OupGlkSanV_13eldritch_core6parser4stmtNtB6_6Parser24parse_block_or_statement0B8_
FN:94,_RNCNvMNtNtCs3OupGlkSanV_13eldritch_core6parser4stmtNtB6_6Parser24parse_block_or_statements_0B8_
FN:308,_RNCNvMNtNtCs3OupGlkSanV_13eldritch_core6parser4stmtNtB6_6Parser34assignment_or_expression_statement0B8_
FN:352,_RNCNvMNtNtCs3OupGlkSanV_13eldritch_core6parser4stmtNtB6_6Parser34assignment_or_expression_statements0_0B8_
FN:343,_RNCNvMNtNtCs3OupGlkSanV_13eldritch_core6parser4stmtNtB6_6Parser34assignment_or_expression_statements_0B8_
FN:115,_RNCNvMNtNtCs3OupGlkSanV_13eldritch_core6parser4stmtNtB6_6Parser9statement0B8_
FN:133,_RNCNvMNtNtCs3OupGlkSanV_13eldritch_core6parser4stmtNtB6_6Parser9statements0_0B8_
FN:123,_RNCNvMNtNtCs3OupGlkSanV_13eldritch_core6parser4stmtNtB6_6Parser9statements_0B8_
FN:16,_RNvMNtNtCs3OupGlkSanV_13eldritch_core6parser4stmtNtB4_6Parser11declaration
FN:24,_RNvMNtNtCs3OupGlkSanV_13eldritch_core6parser4stmtNtB4_6Parser12function_def
FN:181,_RNvMNtNtCs3OupGlkSanV_13eldritch_core6parser4stmtNtB4_6Parser12if_statement
FN:143,_RNvMNtNtCs3OupGlkSanV_13eldritch_core6parser4stmtNtB4_6Parser13for_statement
FN:217,_RNvMNtNtCs3OupGlkSanV_13eldritch_core6parser4stmtNtB4_6Parser16return_statement
FN:77,_RNvMNtNtCs3OupGlkSanV_13eldritch_core6parser4stmtNtB4_6Parser24parse_block_or_statement
FN:237,_RNvMNtNtCs3OupGlkSanV_13eldritch_core6parser4stmtNtB4_6Parser34assignment_or_expression_statement
FN:11,_RNvMNtNtCs3OupGlkSanV_13eldritch_core6parser4stmtNtB4_6Parser9make_stmt
FN:104,_RNvMNtNtCs3OupGlkSanV_13eldritch_core6parser4stmtNtB4_6Parser9statement
FNDA:2205,_RNvMNtNtCsjTRrhfWa0WU_13eldritch_core6parser4stmtNtB4_6Parser11declaration
FNDA:55,_RNvMNtNtCsjTRrhfWa0WU_13eldritch_core6parser4stmtNtB4_6Parser12function_def
FNDA:43,_RNvMNtNtCsjTRrhfWa0WU_13eldritch_core6parser4stmtNtB4_6Parser12if_statement
FNDA:20,_RNvMNtNtCsjTRrhfWa0WU_13eldritch_core6parser4stmtNtB4_6Parser13for_statement
FNDA:34,_RNvMNtNtCsjTRrhfWa0WU_13eldritch_core6parser4stmtNtB4_6Parser16return_statement
FNDA:115,_RNvMNtNtCsjTRrhfWa0WU_13eldritch_core6parser4stmtNtB4_6Parser24parse_block_or_statement
FNDA:2051,_RNvMNtNtCsjTRrhfWa0WU_13eldritch_core6parser4stmtNtB4_6Parser34assignment_or_expression_statement
FNDA:2205,_RNvMNtNtCsjTRrhfWa0WU_13eldritch_core6parser4stmtNtB4_6Parser9make_stmt
FNDA:2162,_RNvMNtNtCsjTRrhfWa0WU_13eldritch_core6parser4stmtNtB4_6Parser9statement
FNDA:55,_RNCNvMNtNtCsjTRrhfWa0WU_13eldritch_core6parser4stmtNtB6_6Parser12function_def0B8_
FNDA:45,_RNCNvMNtNtCsjTRrhfWa0WU_13eldritch_core6parser4stmtNtB6_6Parser12function_defs0_0B8_
FNDA:45,_RNCNvMNtNtCsjTRrhfWa0WU_13eldritch_core6parser4stmtNtB6_6Parser12function_defs1_0B8_
FNDA:55,_RNCNvMNtNtCsjTRrhfWa0WU_13eldritch_core6parser4stmtNtB6_6Parser12function_defs_0B8_
FNDA:43,_RNCNvMNtNtCsjTRrhfWa0WU_13eldritch_core6parser4stmtNtB6_6Parser12if_statement0B8_
FNDA:7,_RNCNvMNtNtCsjTRrhfWa0WU_13eldritch_core6parser4stmtNtB6_6Parser12if_statements_0B8_
FNDA:26,_RNCNvMNtNtCsjTRrhfWa0WU_13eldritch_core6parser4stmtNtB6_6Parser13for_statement0B8_
FNDA:20,_RNCNvMNtNtCsjTRrhfWa0WU_13eldritch_core6parser4stmtNtB6_6Parser13for_statements0_0B8_
FNDA:20,_RNCNvMNtNtCsjTRrhfWa0WU_13eldritch_core6parser4stmtNtB6_6Parser13for_statements_0B8_
FNDA:34,_RNCNvMNtNtCsjTRrhfWa0WU_13eldritch_core6parser4stmtNtB6_6Parser16return_statement0B8_
FNDA:103,_RNCNvMNtNtCsjTRrhfWa0WU_13eldritch_core6parser4stmtNtB6_6Parser24parse_block_or_statement0B8_
FNDA:102,_RNCNvMNtNtCsjTRrhfWa0WU_13eldritch_core6parser4stmtNtB6_6Parser24parse_block_or_statements_0B8_
FNDA:514,_RNCNvMNtNtCsjTRrhfWa0WU_13eldritch_core6parser4stmtNtB6_6Parser34assignment_or_expression_statement0B8_
FNDA:1511,_RNCNvMNtNtCsjTRrhfWa0WU_13eldritch_core6parser4stmtNtB6_6Parser34assignment_or_expression_statements0_0B8_
FNDA:18,_RNCNvMNtNtCsjTRrhfWa0WU_13eldritch_core6parser4stmtNtB6_6Parser34assignment_or_expression_statements_0B8_
FNDA:1,_RNCNvMNtNtCsjTRrhfWa0WU_13eldritch_core6parser4stmtNtB6_6Parser9statement0B8_
FNDA:20,_RNCNvMNtNtCsjTRrhfWa0WU_13eldritch_core6parser4stmtNtB6_6Parser9statements0_0B8_
FNDA:1,_RNCNvMNtNtCsjTRrhfWa0WU_13eldritch_core6parser4stmtNtB6_6Parser9statements_0B8_
FNDA:0,_RNCNvMNtNtCs3OupGlkSanV_13eldritch_core6parser4stmtNtB6_6Parser12function_def0B8_
FNDA:0,_RNCNvMNtNtCs3OupGlkSanV_13eldritch_core6parser4stmtNtB6_6Parser12function_defs0_0B8_
FNDA:0,_RNCNvMNtNtCs3OupGlkSanV_13eldritch_core6parser4stmtNtB6_6Parser12function_defs1_0B8_
FNDA:0,_RNCNvMNtNtCs3OupGlkSanV_13eldritch_core6parser4stmtNtB6_6Parser12function_defs_0B8_
FNDA:0,_RNCNvMNtNtCs3OupGlkSanV_13eldritch_core6parser4stmtNtB6_6Parser12if_statement0B8_
FNDA:0,_RNCNvMNtNtCs3OupGlkSanV_13eldritch_core6parser4stmtNtB6_6Parser12if_statements_0B8_
FNDA:0,_RNCNvMNtNtCs3OupGlkSanV_13eldritch_core6parser4stmtNtB6_6Parser13for_statement0B8_
FNDA:0,_RNCNvMNtNtCs3OupGlkSanV_13eldritch_core6parser4stmtNtB6_6Parser13for_statements0_0B8_
FNDA:0,_RNCNvMNtNtCs3OupGlkSanV_13eldritch_core6parser4stmtNtB6_6Parser13for_statements_0B8_
FNDA:0,_RNCNvMNtNtCs3OupGlkSanV_13eldritch_core6parser4stmtNtB6_6Parser16return_statement0B8_
FNDA:0,_RNCNvMNtNtCs3OupGlkSanV_13eldritch_core6parser4stmtNtB6_6Parser24parse_block_or_statement0B8_
FNDA:0,_RNCNvMNtNtCs3OupGlkSanV_13eldritch_core6parser4stmtNtB6_6Parser24parse_block_or_statements_0B8_
FNDA:0,_RNCNvMNtNtCs3OupGlkSanV_13eldritch_core6parser4stmtNtB6_6Parser34assignment_or_expression_statement0B8_
FNDA:0,_RNCNvMNtNtCs3OupGlkSanV_13eldritch_core6parser4stmtNtB6_6Parser34assignment_or_expression_statements0_0B8_
FNDA:0,_RNCNvMNtNtCs3OupGlkSanV_13eldritch_core6parser4stmtNtB6_6Parser34assignment_or_expression_statements_0B8_
FNDA:0,_RNCNvMNtNtCs3OupGlkSanV_13eldritch_core6parser4stmtNtB6_6Parser9statement0B8_
FNDA:0,_RNCNvMNtNtCs3OupGlkSanV_13eldritch_core6parser4stmtNtB6_6Parser9statements0_0B8_
FNDA:0,_RNCNvMNtNtCs3OupGlkSanV_13eldritch_core6parser4stmtNtB6_6Parser9statements_0B8_
FNDA:0,_RNvMNtNtCs3OupGlkSanV_13eldritch_core6parser4stmtNtB4_6Parser11declaration
FNDA:0,_RNvMNtNtCs3OupGlkSanV_13eldritch_core6parser4stmtNtB4_6Parser12function_def
FNDA:0,_RNvMNtNtCs3OupGlkSanV_13eldritch_core6parser4stmtNtB4_6Parser12if_statement
FNDA:0,_RNvMNtNtCs3OupGlkSanV_13eldritch_core6parser4stmtNtB4_6Parser13for_statement
FNDA:0,_RNvMNtNtCs3OupGlkSanV_13eldritch_core6parser4stmtNtB4_6Parser16return_statement
FNDA:0,_RNvMNtNtCs3OupGlkSanV_13eldritch_core6parser4stmtNtB4_6Parser24parse_block_or_statement
FNDA:0,_RNvMNtNtCs3OupGlkSanV_13eldritch_core6parser4stmtNtB4_6Parser34assignment_or_expression_statement
FNDA:0,_RNvMNtNtCs3OupGlkSanV_13eldritch_core6parser4stmtNtB4_6Parser9make_stmt
FNDA:0,_RNvMNtNtCs3OupGlkSanV_13eldritch_core6parser4stmtNtB4_6Parser9statement
FNF:27
FNH:27
DA:11,2205
DA:12,2205
DA:13,2205
DA:14,2205
DA:16,2205
DA:17,2205
DA:18,55
DA:20,2150
DA:22,2205
DA:24,55
DA:25,55
DA:28,55
DA:29,55
DA:30,55
DA:31,55
DA:32,0
DA:33,55
DA:34,55
DA:36,0
DA:40,55
DA:41,55
DA:42,55
DA:43,0
DA:45,55
DA:47,45
DA:48,45
DA:49,45
DA:50,0
DA:52,45
DA:53,1
DA:55,44
DA:58,45
DA:59,45
DA:60,45
DA:61,0
DA:63,45
DA:64,44
DA:65,44
DA:67,0
DA:70,44
DA:71,44
DA:72,44
DA:73,44
DA:74,44
DA:75,55
DA:77,115
DA:78,115
DA:79,103
DA:80,103
DA:81,103
DA:82,0
DA:83,103
DA:84,319
DA:85,235
DA:86,16
DA:87,16
DA:88,219
DA:89,2
DA:90,217
DA:91,217
DA:93,102
DA:94,102
DA:95,102
DA:96,0
DA:97,102
DA:99,12
DA:100,12
DA:102,115
DA:104,2162
DA:105,2162
DA:106,2162
DA:107,35
DA:108,2127
DA:109,34
DA:110,2093
DA:111,20
DA:112,2073
DA:113,1
DA:114,1
DA:115,1
DA:116,1
DA:117,0
DA:118,0
DA:119,1
DA:120,2072
DA:121,1
DA:122,1
DA:123,1
DA:124,1
DA:125,0
DA:126,0
DA:127,1
DA:130,2071
DA:131,20
DA:132,20
DA:133,20
DA:134,20
DA:135,0
DA:136,0
DA:137,20
DA:139,2051
DA:141,2162
DA:143,20
DA:144,20
DA:146,26
DA:147,26
DA:148,26
DA:149,0
DA:150,26
DA:151,26
DA:152,0
DA:154,26
DA:156,26
DA:157,6
DA:159,20
DA:163,20
DA:164,20
DA:165,20
DA:166,0
DA:167,20
DA:168,20
DA:169,20
DA:170,20
DA:171,0
DA:172,20
DA:173,20
DA:174,20
DA:176,0
DA:178,20
DA:179,20
DA:181,43
DA:182,43
DA:183,43
DA:184,43
DA:185,43
DA:186,0
DA:187,43
DA:188,43
DA:189,43
DA:190,43
DA:192,0
DA:195,43
DA:196,8
DA:197,8
DA:198,8
DA:199,35
DA:200,7
DA:201,7
DA:202,7
DA:203,0
DA:204,7
DA:205,7
DA:206,7
DA:207,7
DA:208,7
DA:209,28
DA:210,43
DA:211,43
DA:212,43
DA:213,43
DA:214,43
DA:215,43
DA:217,34
DA:218,34
DA:219,34
DA:220,34
DA:221,30
DA:222,30
DA:224,30
DA:225,30
DA:226,30
DA:227,4
DA:228,34
DA:229,34
DA:230,34
DA:231,34
DA:232,0
DA:233,0
DA:234,34
DA:235,34
DA:237,2051
DA:238,2051
DA:239,2048
DA:242,2048
DA:243,6
DA:246,6
DA:247,6
DA:248,6
DA:251,6
DA:252,6
DA:253,6
DA:254,0
DA:256,0
DA:257,0
DA:258,0
DA:260,0
DA:262,6
DA:263,6
DA:264,2042
DA:266,2048
DA:274,2048
DA:275,2
DA:277,2046
DA:281,2048
DA:282,518
DA:283,517
DA:286,514
DA:287,514
DA:288,2
DA:289,2
DA:291,2
DA:292,2
DA:293,2
DA:294,0
DA:295,0
DA:296,0
DA:297,0
DA:299,0
DA:300,2
DA:301,2
DA:302,2
DA:303,512
DA:305,514
DA:306,514
DA:307,514
DA:308,514
DA:309,514
DA:310,0
DA:311,0
DA:312,514
DA:313,514
DA:314,514
DA:315,514
DA:316,514
DA:317,1530
DA:318,0
DA:319,1530
DA:322,1530
DA:323,1530
DA:324,1530
DA:325,1530
DA:326,1530
DA:327,1530
DA:328,1530
DA:329,1530
DA:331,19
DA:332,0
DA:333,19
DA:334,19
DA:335,1
DA:336,18
DA:338,18
DA:339,18
DA:340,18
DA:341,18
DA:342,18
DA:343,18
DA:344,18
DA:345,0
DA:346,0
DA:347,18
DA:348,1511
DA:350,1511
DA:351,1511
DA:352,1511
DA:353,1511
DA:354,1
DA:355,0
DA:356,1510
DA:357,2051
BRF:0
BRH:0
LF:270
LH:229
end_of_record
SF:/app/implants/lib/eldritch/eldritch-core/src/token.rs
FN:13,_RNvMNtCsjTRrhfWa0WU_13eldritch_core5tokenNtB2_4Span3new
FN:190,_RNvMs0_NtCsjTRrhfWa0WU_13eldritch_core5tokenNtB5_9TokenKind12from_keyword
FN:111,_RNvXs_NtCsjTRrhfWa0WU_13eldritch_core5tokenNtB4_9TokenKindNtNtCs4Vq2ZLagKfv_4core3fmt7Display3fmt
FN:190,_RNvMs0_NtCs3OupGlkSanV_13eldritch_core5tokenNtB5_9TokenKind12from_keyword
FN:111,_RNvXs_NtCs3OupGlkSanV_13eldritch_core5tokenNtB4_9TokenKindNtNtCs4Vq2ZLagKfv_4core3fmt7Display3fmt
FN:13,_RNvMNtCs3OupGlkSanV_13eldritch_core5tokenNtB2_4Span3new
FNDA:36401,_RNvMNtCsjTRrhfWa0WU_13eldritch_core5tokenNtB2_4Span3new
FNDA:4588,_RNvMs0_NtCsjTRrhfWa0WU_13eldritch_core5tokenNtB5_9TokenKind12from_keyword
FNDA:5,_RNvXs_NtCsjTRrhfWa0WU_13eldritch_core5tokenNtB4_9TokenKindNtNtCs4Vq2ZLagKfv_4core3fmt7Display3fmt
FNDA:0,_RNvMs0_NtCs3OupGlkSanV_13eldritch_core5tokenNtB5_9TokenKind12from_keyword
FNDA:0,_RNvXs_NtCs3OupGlkSanV_13eldritch_core5tokenNtB4_9TokenKindNtNtCs4Vq2ZLagKfv_4core3fmt7Display3fmt
FNDA:6,_RNvMNtCs3OupGlkSanV_13eldritch_core5tokenNtB2_4Span3new
FNF:3
FNH:3
DA:13,36407
DA:14,36407
DA:15,36407
DA:111,5
DA:112,5
DA:113,0
DA:114,0
DA:115,0
DA:116,0
DA:117,0
DA:118,0
DA:119,0
DA:120,0
DA:121,1
DA:122,0
DA:123,0
DA:124,0
DA:125,0
DA:126,0
DA:127,0
DA:128,2
DA:130,0
DA:131,0
DA:132,0
DA:133,0
DA:134,0
DA:135,0
DA:136,0
DA:137,0
DA:139,0
DA:140,0
DA:141,0
DA:142,0
DA:143,0
DA:144,0
DA:146,0
DA:148,0
DA:149,0
DA:150,0
DA:151,0
DA:152,0
DA:153,0
DA:155,0
DA:156,0
DA:157,0
DA:158,0
DA:159,0
DA:160,0
DA:162,0
DA:163,1
DA:164,0
DA:165,0
DA:166,0
DA:167,0
DA:168,0
DA:169,0
DA:170,0
DA:171,0
DA:172,0
DA:173,0
DA:174,0
DA:175,0
DA:176,0
DA:177,0
DA:178,0
DA:179,0
DA:181,0
DA:182,1
DA:183,0
DA:184,0
DA:186,5
DA:190,4588
DA:191,4588
DA:192,4588
DA:193,4517
DA:194,4465
DA:195,4456
DA:196,4445
DA:197,4410
DA:198,4353
DA:199,4211
DA:200,4145
DA:201,4094
DA:202,4070
DA:203,4062
DA:204,4049
DA:205,4007
DA:206,4005
DA:207,4003
DA:208,3976
DA:209,3964
DA:211,4588
BRF:0
BRH:0
LF:92
LH:31
end_of_record
SF:/app/implants/lib/eldritch/eldritch-macros/src/impls.rs
FN:65,_RNCNvNtCs6gym6TeX7xG_15eldritch_macros5impls23expand_eldritch_library0B5_
FN:166,_RNvNtCs6gym6TeX7xG_15eldritch_macros5impls14is_option_type
FN:175,_RNvNtCs6gym6TeX7xG_15eldritch_macros5impls19is_interpreter_type
FN:187,_RNvNtCs6gym6TeX7xG_15eldritch_macros5impls21generate_args_parsing
FN:18,_RNvNtCs6gym6TeX7xG_15eldritch_macros5impls23expand_eldritch_library
FN:130,_RNvNtCs6gym6TeX7xG_15eldritch_macros5impls28expand_eldritch_library_impl
FN:166,_RNvNtCsitY1v29MR87_15eldritch_macros5impls14is_option_type
FN:175,_RNvNtCsitY1v29MR87_15eldritch_macros5impls19is_interpreter_type
FN:187,_RNvNtCsitY1v29MR87_15eldritch_macros5impls21generate_args_parsing
FN:18,_RNvNtCsitY1v29MR87_15eldritch_macros5impls23expand_eldritch_library
FN:130,_RNvNtCsitY1v29MR87_15eldritch_macros5impls28expand_eldritch_library_impl
FN:65,_RNCNvNtCsitY1v29MR87_15eldritch_macros5impls23expand_eldritch_library0B5_
FNDA:3,_RNCNvNtCs6gym6TeX7xG_15eldritch_macros5impls23expand_eldritch_library0B5_
FNDA:2,_RNvNtCs6gym6TeX7xG_15eldritch_macros5impls14is_option_type
FNDA:3,_RNvNtCs6gym6TeX7xG_15eldritch_macros5impls19is_interpreter_type
FNDA:3,_RNvNtCs6gym6TeX7xG_15eldritch_macros5impls21generate_args_parsing
FNDA:4,_RNvNtCs6gym6TeX7xG_15eldritch_macros5impls23expand_eldritch_library
FNDA:1,_RNvNtCs6gym6TeX7xG_15eldritch_macros5impls28expand_eldritch_library_impl
FNDA:364,_RNvNtCsitY1v29MR87_15eldritch_macros5impls14is_option_type
FNDA:366,_RNvNtCsitY1v29MR87_15eldritch_macros5impls19is_interpreter_type
FNDA:212,_RNvNtCsitY1v29MR87_15eldritch_macros5impls21generate_args_parsing
FNDA:24,_RNvNtCsitY1v29MR87_15eldritch_macros5impls23expand_eldritch_library
FNDA:26,_RNvNtCsitY1v29MR87_15eldritch_macros5impls28expand_eldritch_library_impl
FNDA:208,_RNCNvNtCsitY1v29MR87_15eldritch_macros5impls23expand_eldritch_library0B5_
FNF:6
FNH:6
DA:18,28
DA:19,28
DA:20,28
DA:21,28
DA:22,28
DA:23,28
DA:26,28
DA:27,27
DA:29,1
DA:30,1
DA:31,1
DA:32,1
DA:36,27
DA:37,27
DA:38,27
DA:40,27
DA:41,27
DA:43,254
DA:44,227
DA:46,227
DA:47,227
DA:48,227
DA:50,2484
DA:51,2257
DA:52,215
DA:53,215
DA:54,4
DA:55,4
DA:56,4
DA:57,211
DA:58,2042
DA:59,0
DA:60,2042
DA:63,227
DA:64,215
DA:65,215
DA:66,215
DA:68,215
DA:77,215
DA:81,12
DA:82,0
DA:86,27
DA:92,27
DA:100,27
DA:123,27
DA:124,28
DA:130,27
DA:131,27
DA:132,27
DA:133,27
DA:134,27
DA:135,27
DA:136,27
DA:138,27
DA:140,27
DA:141,27
DA:142,27
DA:143,27
DA:144,27
DA:145,27
DA:146,27
DA:147,27
DA:148,27
DA:149,27
DA:150,27
DA:151,27
DA:152,27
DA:153,27
DA:154,27
DA:155,27
DA:156,27
DA:157,27
DA:158,27
DA:159,27
DA:160,27
DA:161,27
DA:162,27
DA:163,27
DA:166,366
DA:167,366
DA:168,366
DA:169,366
DA:170,0
DA:171,0
DA:172,0
DA:173,366
DA:175,369
DA:178,369
DA:179,3
DA:180,3
DA:182,3
DA:183,366
DA:184,366
DA:185,369
DA:187,215
DA:188,215
DA:189,215
DA:190,215
DA:191,215
DA:193,799
DA:194,584
DA:195,215
DA:196,369
DA:197,369
DA:198,369
DA:201,369
DA:203,2
DA:204,2
DA:205,367
DA:207,367
DA:208,367
DA:211,367
DA:212,1
DA:213,1
DA:215,0
DA:218,366
DA:222,367
DA:228,367
DA:229,1
DA:230,1
DA:231,1
DA:232,1
DA:233,1
DA:234,1
DA:235,1
DA:236,1
DA:237,1
DA:238,1
DA:239,1
DA:240,366
DA:241,75
DA:243,291
DA:246,366
DA:255,366
DA:257,367
DA:263,215
DA:264,215
DA:266,215
DA:273,215
DA:274,54
DA:275,54
DA:276,54
DA:277,54
DA:278,54
DA:279,54
DA:280,54
DA:281,54
DA:282,161
DA:296,215
DA:297,215
DA:298,215
DA:300,215
DA:301,215
BRF:0
BRH:0
LF:154
LH:134
end_of_record
SF:/app/implants/lib/eldritch/eldritch-macros/src/lib.rs
FN:26,_RNvCs6gym6TeX7xG_15eldritch_macros15eldritch_method
FN:10,_RNvCs6gym6TeX7xG_15eldritch_macros16eldritch_library
FN:18,_RNvCs6gym6TeX7xG_15eldritch_macros21eldritch_library_impl
FN:26,_RNvCsitY1v29MR87_15eldritch_macros15eldritch_method
FN:10,_RNvCsitY1v29MR87_15eldritch_macros16eldritch_library
FN:18,_RNvCsitY1v29MR87_15eldritch_macros21eldritch_library_impl
FNDA:0,_RNvCs6gym6TeX7xG_15eldritch_macros15eldritch_method
FNDA:0,_RNvCs6gym6TeX7xG_15eldritch_macros16eldritch_library
FNDA:0,_RNvCs6gym6TeX7xG_15eldritch_macros21eldritch_library_impl
FNDA:212,_RNvCsitY1v29MR87_15eldritch_macros15eldritch_method
FNDA:24,_RNvCsitY1v29MR87_15eldritch_macros16eldritch_library
FNDA:26,_RNvCsitY1v29MR87_15eldritch_macros21eldritch_library_impl
FNF:3
FNH:3
DA:10,24
DA:11,24
DA:12,24
DA:13,0
DA:15,24
DA:18,26
DA:19,26
DA:20,26
DA:21,0
DA:23,26
DA:26,212
DA:27,212
DA:28,212
BRF:0
BRH:0
LF:13
LH:11
end_of_record
SF:/app/implants/lib/eldritch/eldritch-repl/src/core.rs
FN:113,_RNvMs_NtCs9uMhwIwzheZ_13eldritch_repl4coreNtB4_4Repl11get_history
FN:87,_RNvXNtCs9uMhwIwzheZ_13eldritch_repl4coreNtB2_4ReplNtNtCs4Vq2ZLagKfv_4core7default7Default7default
FN:655,_RNCNvNtCs9uMhwIwzheZ_13eldritch_repl4core13expand_macros0B5_
FN:690,_RNCNvNtCs9uMhwIwzheZ_13eldritch_repl4core13expand_macross_0B5_
FN:352,_RNvMs_NtCs9uMhwIwzheZ_13eldritch_repl4coreNtB4_4Repl10end_search
FN:368,_RNvMs_NtCs9uMhwIwzheZ_13eldritch_repl4coreNtB4_4Repl10handle_tab
FN:486,_RNvMs_NtCs9uMhwIwzheZ_13eldritch_repl4coreNtB4_4Repl10history_up
FN:383,_RNvMs_NtCs9uMhwIwzheZ_13eldritch_repl4coreNtB4_4Repl10insert_str
FN:429,_RNvMs_NtCs9uMhwIwzheZ_13eldritch_repl4coreNtB4_4Repl10move_right
FN:377,_RNvMs_NtCs9uMhwIwzheZ_13eldritch_repl4coreNtB4_4Repl11insert_char
FN:452,_RNvMs_NtCs9uMhwIwzheZ_13eldritch_repl4coreNtB4_4Repl11kill_to_end
FN:275,_RNvMs_NtCs9uMhwIwzheZ_13eldritch_repl4coreNtB4_4Repl11search_next
FN:539,_RNvMs_NtCs9uMhwIwzheZ_13eldritch_repl4coreNtB4_4Repl12handle_enter
FN:161,_RNvMs_NtCs9uMhwIwzheZ_13eldritch_repl4coreNtB4_4Repl12handle_input
FN:512,_RNvMs_NtCs9uMhwIwzheZ_13eldritch_repl4coreNtB4_4Repl12history_down
FN:109,_RNvMs_NtCs9uMhwIwzheZ_13eldritch_repl4coreNtB4_4Repl12load_history
FN:246,_RNvMs_NtCs9uMhwIwzheZ_13eldritch_repl4coreNtB4_4Repl12start_search
FN:305,_RNvMs_NtCs9uMhwIwzheZ_13eldritch_repl4coreNtB4_4Repl13search_append
FN:135,_RNvMs_NtCs9uMhwIwzheZ_13eldritch_repl4coreNtB4_4Repl14current_prompt
FN:324,_RNvMs_NtCs9uMhwIwzheZ_13eldritch_repl4coreNtB4_4Repl14perform_search
FN:589,_RNvMs_NtCs9uMhwIwzheZ_13eldritch_repl4coreNtB4_4Repl14should_execute
FN:467,_RNvMs_NtCs9uMhwIwzheZ_13eldritch_repl4coreNtB4_4Repl14word_backspace
FN:117,_RNvMs_NtCs9uMhwIwzheZ_13eldritch_repl4coreNtB4_4Repl15set_suggestions
FN:218,_RNvMs_NtCs9uMhwIwzheZ_13eldritch_repl4coreNtB4_4Repl16cycle_suggestion
FN:146,_RNvMs_NtCs9uMhwIwzheZ_13eldritch_repl4coreNtB4_4Repl16get_render_state
FN:314,_RNvMs_NtCs9uMhwIwzheZ_13eldritch_repl4coreNtB4_4Repl16search_backspace
FN:230,_RNvMs_NtCs9uMhwIwzheZ_13eldritch_repl4coreNtB4_4Repl17accept_suggestion
FN:129,_RNvMs_NtCs9uMhwIwzheZ_13eldritch_repl4coreNtB4_4Repl17clear_suggestions
FN:260,_RNvMs_NtCs9uMhwIwzheZ_13eldritch_repl4coreNtB4_4Repl19handle_search_input
FN:93,_RNvMs_NtCs9uMhwIwzheZ_13eldritch_repl4coreNtB4_4Repl3new
FN:530,_RNvMs_NtCs9uMhwIwzheZ_13eldritch_repl4coreNtB4_4Repl6cancel
FN:404,_RNvMs_NtCs9uMhwIwzheZ_13eldritch_repl4coreNtB4_4Repl6delete
FN:447,_RNvMs_NtCs9uMhwIwzheZ_13eldritch_repl4coreNtB4_4Repl8move_end
FN:389,_RNvMs_NtCs9uMhwIwzheZ_13eldritch_repl4coreNtB4_4Repl9backspace
FN:461,_RNvMs_NtCs9uMhwIwzheZ_13eldritch_repl4coreNtB4_4Repl9kill_line
FN:442,_RNvMs_NtCs9uMhwIwzheZ_13eldritch_repl4coreNtB4_4Repl9move_home
FN:416,_RNvMs_NtCs9uMhwIwzheZ_13eldritch_repl4coreNtB4_4Repl9move_left
FN:650,_RNvNtCs9uMhwIwzheZ_13eldritch_repl4core13expand_macros
FN:655,_RNCNvNtCscp2YUIjiP6B_13eldritch_repl4core13expand_macros0B5_
FN:690,_RNCNvNtCscp2YUIjiP6B_13eldritch_repl4core13expand_macross_0B5_
FN:352,_RNvMs_NtCscp2YUIjiP6B_13eldritch_repl4coreNtB4_4Repl10end_search
FN:368,_RNvMs_NtCscp2YUIjiP6B_13eldritch_repl4coreNtB4_4Repl10handle_tab
FN:486,_RNvMs_NtCscp2YUIjiP6B_13eldritch_repl4coreNtB4_4Repl10history_up
FN:383,_RNvMs_NtCscp2YUIjiP6B_13eldritch_repl4coreNtB4_4Repl10insert_str
FN:429,_RNvMs_NtCscp2YUIjiP6B_13eldritch_repl4coreNtB4_4Repl10move_right
FN:113,_RNvMs_NtCscp2YUIjiP6B_13eldritch_repl4coreNtB4_4Repl11get_history
